	.file	"main.cc"
	.text
.Ltext_begin:
	.data
	.file	1 "main.cc"
	.file	2 "/usr/lib/gcc/x86_64-linux-gnu/4.8/../../../../include/c++/4.8/bits/ios_base.h"
	.file	3 "/usr/lib/gcc/x86_64-linux-gnu/4.8/../../../../include/x86_64-linux-gnu/c++/4.8/bits/c++config.h"
	.file	4 "/usr/lib/gcc/x86_64-linux-gnu/4.8/../../../../include/c++/4.8/bits/postypes.h"
	.file	5 "/usr/lib/gcc/x86_64-linux-gnu/4.8/../../../../include/c++/4.8/bits/locale_classes.h"
	.file	6 "/usr/include/xlocale.h"
	.file	7 "/usr/lib/gcc/x86_64-linux-gnu/4.8/../../../../include/x86_64-linux-gnu/c++/4.8/bits/c++locale.h"
	.file	8 "/usr/lib/gcc/x86_64-linux-gnu/4.8/../../../../include/c++/4.8/bits/basic_string.h"
	.file	9 "/usr/lib/gcc/x86_64-linux-gnu/4.8/../../../../include/c++/4.8/ext/new_allocator.h"
	.file	10 "/usr/lib/gcc/x86_64-linux-gnu/4.8/../../../../include/c++/4.8/bits/allocator.h"
	.file	11 "/usr/lib/gcc/x86_64-linux-gnu/4.8/../../../../include/c++/4.8/bits/memoryfwd.h"
	.file	12 "/usr/lib/gcc/x86_64-linux-gnu/4.8/../../../../include/c++/4.8/bits/stl_iterator.h"
	.file	13 "/usr/lib/gcc/x86_64-linux-gnu/4.8/../../../../include/c++/4.8/bits/basic_string.tcc"
	.file	14 "/usr/lib/gcc/x86_64-linux-gnu/4.8/../../../../include/c++/4.8/initializer_list"
	.file	15 "/usr/lib/gcc/x86_64-linux-gnu/4.8/../../../../include/c++/4.8/bits/stringfwd.h"
	.file	16 "/usr/lib/gcc/x86_64-linux-gnu/4.8/../../../../include/c++/4.8/bits/char_traits.h"
	.file	17 "/usr/lib/gcc/x86_64-linux-gnu/4.8/../../../../include/c++/4.8/iostream"
	.file	18 "/usr/lib/gcc/x86_64-linux-gnu/4.8/../../../../include/c++/4.8/bits/basic_ios.h"
	.file	19 "/usr/lib/gcc/x86_64-linux-gnu/4.8/../../../../include/c++/4.8/bits/basic_ios.tcc"
	.file	20 "/usr/lib/gcc/x86_64-linux-gnu/4.8/../../../../include/c++/4.8/bits/streambuf.tcc"
	.file	21 "/usr/lib/gcc/x86_64-linux-gnu/4.8/../../../../include/c++/4.8/streambuf"
	.file	22 "/usr/lib/gcc/x86_64-linux-gnu/4.8/../../../../include/c++/4.8/bits/stl_algobase.h"
	.file	23 "/usr/lib/gcc/x86_64-linux-gnu/4.8/../../../../include/c++/4.8/istream"
	.file	24 "/usr/lib/gcc/x86_64-linux-gnu/4.8/../../../../include/c++/4.8/bits/istream.tcc"
	.file	25 "/usr/lib/gcc/x86_64-linux-gnu/4.8/../../../../include/c++/4.8/iosfwd"
	.file	26 "/usr/lib/gcc/x86_64-linux-gnu/4.8/../../../../include/x86_64-linux-gnu/c++/4.8/bits/ctype_base.h"
	.file	27 "/usr/lib/gcc/x86_64-linux-gnu/4.8/../../../../include/c++/4.8/bits/locale_facets.h"
	.file	28 "/usr/lib/gcc/x86_64-linux-gnu/4.8/../../../../include/c++/4.8/bits/locale_facets.tcc"
	.file	29 "/usr/lib/gcc/x86_64-linux-gnu/4.8/../../../../include/c++/4.8/ostream"
	.file	30 "/usr/lib/gcc/x86_64-linux-gnu/4.8/../../../../include/c++/4.8/bits/ostream.tcc"
	.file	31 "./../../../metaprog/loop.h"
	.file	32 "./../../../metaprog/int_.h"
	.text
	.globl	main
	.align	16, 0x90
	.type	main,@function
main:                                   # @main
	.cfi_startproc
.Lfunc_begin0:
	.loc	1 27 0                  # main.cc:27:0
# BB#0:                                 # %entry
	.loc	1 23 0 prologue_end     # main.cc:23:0
	pushq	%rax
.Ltmp1:
	.cfi_def_cfa_offset 16
	movl	$_ZSt4cout, %edi
	callq	_ZN5Forr_IN6libmda8metaprog6detail18loop_iterator_implINS1_4int_ILi0EEES5_NS4_ILi200EEEEENS3_IS6_S5_S6_EEE5applyERSo
	xorl	%eax, %eax
.Ltmp2:
	.loc	1 31 0                  # main.cc:31:0
	popq	%rdx
	ret
.Ltmp3:
.Ltmp4:
	.size	main, .Ltmp4-main
.Lfunc_end0:
	.cfi_endproc

	.section	.text._ZN5Forr_IN6libmda8metaprog6detail18loop_iterator_implINS1_4int_ILi0EEES5_NS4_ILi200EEEEENS3_IS6_S5_S6_EEE5applyERSo,"axG",@progbits,_ZN5Forr_IN6libmda8metaprog6detail18loop_iterator_implINS1_4int_ILi0EEES5_NS4_ILi200EEEEENS3_IS6_S5_S6_EEE5applyERSo,comdat
	.weak	_ZN5Forr_IN6libmda8metaprog6detail18loop_iterator_implINS1_4int_ILi0EEES5_NS4_ILi200EEEEENS3_IS6_S5_S6_EEE5applyERSo
	.align	16, 0x90
	.type	_ZN5Forr_IN6libmda8metaprog6detail18loop_iterator_implINS1_4int_ILi0EEES5_NS4_ILi200EEEEENS3_IS6_S5_S6_EEE5applyERSo,@function
_ZN5Forr_IN6libmda8metaprog6detail18loop_iterator_implINS1_4int_ILi0EEES5_NS4_ILi200EEEEENS3_IS6_S5_S6_EEE5applyERSo: # @_ZN5Forr_IN6libmda8metaprog6detail18loop_iterator_implINS1_4int_ILi0EEES5_NS4_ILi200EEEEENS3_IS6_S5_S6_EEE5applyERSo
	.cfi_startproc
.Lfunc_begin1:
	.loc	1 8 0                   # main.cc:8:0
# BB#0:                                 # %entry
	pushq	%rbx
.Ltmp7:
	.cfi_def_cfa_offset 16
.Ltmp8:
	.cfi_offset %rbx, -16
	#DEBUG_VALUE: apply:aout <- RDI+0
	movq	%rdi, %rbx
.Ltmp9:
	#DEBUG_VALUE: apply:aout <- RBX+0
	#DEBUG_VALUE: apply:aout <- RBX+0
	#DEBUG_VALUE: apply:aout <- RBX+0
	#DEBUG_VALUE: apply:aout <- RBX+0
	#DEBUG_VALUE: apply:aout <- RBX+0
	#DEBUG_VALUE: apply:aout <- RBX+0
	#DEBUG_VALUE: apply:aout <- RBX+0
	#DEBUG_VALUE: apply:aout <- RBX+0
	xorl	%esi, %esi
	.loc	1 9 0 prologue_end      # main.cc:9:0
.Ltmp10:
	callq	_ZNSolsEi
.Ltmp11:
	#DEBUG_VALUE: operator<<<std::char_traits<char> >:__out <- RAX+0
	#DEBUG_VALUE: length:__s <- undef
	#DEBUG_VALUE: operator<<<std::char_traits<char> >:__s <- undef
	#DEBUG_VALUE: length:__s <- undef
	#DEBUG_VALUE: operator<<<std::char_traits<char> >:__s <- undef
	#DEBUG_VALUE: length:__s <- undef
	#DEBUG_VALUE: operator<<<std::char_traits<char> >:__s <- undef
	#DEBUG_VALUE: length:__s <- undef
	#DEBUG_VALUE: operator<<<std::char_traits<char> >:__s <- undef
	#DEBUG_VALUE: length:__s <- undef
	#DEBUG_VALUE: operator<<<std::char_traits<char> >:__s <- undef
	#DEBUG_VALUE: length:__s <- undef
	#DEBUG_VALUE: operator<<<std::char_traits<char> >:__s <- undef
	#DEBUG_VALUE: length:__s <- undef
	#DEBUG_VALUE: operator<<<std::char_traits<char> >:__s <- undef
	#DEBUG_VALUE: length:__s <- undef
	.loc	29 535 0                # /usr/lib/gcc/x86_64-linux-gnu/4.8/../../../../include/c++/4.8/ostream:535:0
	movq	%rax, %rdi
	movl	$.L.str, %esi
	movl	$1, %edx
	callq	_ZSt16__ostream_insertIcSt11char_traitsIcEERSt13basic_ostreamIT_T0_ES6_PKS3_l
.Ltmp12:
	.loc	1 9 0                   # main.cc:9:0
	movq	%rbx, %rdi
	movl	$1, %esi
	callq	_ZNSolsEi
.Ltmp13:
	#DEBUG_VALUE: operator<<<std::char_traits<char> >:__out <- RAX+0
	.loc	29 535 0                # /usr/lib/gcc/x86_64-linux-gnu/4.8/../../../../include/c++/4.8/ostream:535:0
	movq	%rax, %rdi
.Ltmp14:
	.loc	29 535 0                # /usr/lib/gcc/x86_64-linux-gnu/4.8/../../../../include/c++/4.8/ostream:535:0
	movl	$.L.str, %esi
	movl	$1, %edx
.Ltmp15:
	.loc	29 535 0                # /usr/lib/gcc/x86_64-linux-gnu/4.8/../../../../include/c++/4.8/ostream:535:0
	callq	_ZSt16__ostream_insertIcSt11char_traitsIcEERSt13basic_ostreamIT_T0_ES6_PKS3_l
.Ltmp16:
	.loc	1 9 0                   # main.cc:9:0
	movq	%rbx, %rdi
	movl	$2, %esi
	callq	_ZNSolsEi
.Ltmp17:
	#DEBUG_VALUE: operator<<<std::char_traits<char> >:__out <- RAX+0
	.loc	29 535 0                # /usr/lib/gcc/x86_64-linux-gnu/4.8/../../../../include/c++/4.8/ostream:535:0
	movq	%rax, %rdi
.Ltmp18:
	.loc	29 535 0                # /usr/lib/gcc/x86_64-linux-gnu/4.8/../../../../include/c++/4.8/ostream:535:0
	movl	$.L.str, %esi
	movl	$1, %edx
.Ltmp19:
	.loc	29 535 0                # /usr/lib/gcc/x86_64-linux-gnu/4.8/../../../../include/c++/4.8/ostream:535:0
	callq	_ZSt16__ostream_insertIcSt11char_traitsIcEERSt13basic_ostreamIT_T0_ES6_PKS3_l
.Ltmp20:
	.loc	1 9 0                   # main.cc:9:0
	movq	%rbx, %rdi
	movl	$3, %esi
	callq	_ZNSolsEi
.Ltmp21:
	#DEBUG_VALUE: operator<<<std::char_traits<char> >:__out <- RAX+0
	.loc	29 535 0                # /usr/lib/gcc/x86_64-linux-gnu/4.8/../../../../include/c++/4.8/ostream:535:0
	movq	%rax, %rdi
.Ltmp22:
	.loc	29 535 0                # /usr/lib/gcc/x86_64-linux-gnu/4.8/../../../../include/c++/4.8/ostream:535:0
	movl	$.L.str, %esi
	movl	$1, %edx
.Ltmp23:
	.loc	29 535 0                # /usr/lib/gcc/x86_64-linux-gnu/4.8/../../../../include/c++/4.8/ostream:535:0
	callq	_ZSt16__ostream_insertIcSt11char_traitsIcEERSt13basic_ostreamIT_T0_ES6_PKS3_l
.Ltmp24:
	.loc	1 9 0                   # main.cc:9:0
	movq	%rbx, %rdi
	movl	$4, %esi
	callq	_ZNSolsEi
.Ltmp25:
	#DEBUG_VALUE: operator<<<std::char_traits<char> >:__out <- RAX+0
	.loc	29 535 0                # /usr/lib/gcc/x86_64-linux-gnu/4.8/../../../../include/c++/4.8/ostream:535:0
	movq	%rax, %rdi
.Ltmp26:
	.loc	29 535 0                # /usr/lib/gcc/x86_64-linux-gnu/4.8/../../../../include/c++/4.8/ostream:535:0
	movl	$.L.str, %esi
	movl	$1, %edx
.Ltmp27:
	.loc	29 535 0                # /usr/lib/gcc/x86_64-linux-gnu/4.8/../../../../include/c++/4.8/ostream:535:0
	callq	_ZSt16__ostream_insertIcSt11char_traitsIcEERSt13basic_ostreamIT_T0_ES6_PKS3_l
.Ltmp28:
	.loc	1 9 0                   # main.cc:9:0
	movq	%rbx, %rdi
	movl	$5, %esi
	callq	_ZNSolsEi
.Ltmp29:
	#DEBUG_VALUE: operator<<<std::char_traits<char> >:__out <- RAX+0
	.loc	29 535 0                # /usr/lib/gcc/x86_64-linux-gnu/4.8/../../../../include/c++/4.8/ostream:535:0
	movq	%rax, %rdi
.Ltmp30:
	.loc	29 535 0                # /usr/lib/gcc/x86_64-linux-gnu/4.8/../../../../include/c++/4.8/ostream:535:0
	movl	$.L.str, %esi
	movl	$1, %edx
.Ltmp31:
	.loc	29 535 0                # /usr/lib/gcc/x86_64-linux-gnu/4.8/../../../../include/c++/4.8/ostream:535:0
	callq	_ZSt16__ostream_insertIcSt11char_traitsIcEERSt13basic_ostreamIT_T0_ES6_PKS3_l
.Ltmp32:
	.loc	1 9 0                   # main.cc:9:0
	movq	%rbx, %rdi
	movl	$6, %esi
	callq	_ZNSolsEi
.Ltmp33:
	#DEBUG_VALUE: operator<<<std::char_traits<char> >:__out <- RAX+0
	.loc	29 535 0                # /usr/lib/gcc/x86_64-linux-gnu/4.8/../../../../include/c++/4.8/ostream:535:0
	movq	%rax, %rdi
.Ltmp34:
	.loc	29 535 0                # /usr/lib/gcc/x86_64-linux-gnu/4.8/../../../../include/c++/4.8/ostream:535:0
	movl	$.L.str, %esi
	movl	$1, %edx
.Ltmp35:
	.loc	29 535 0                # /usr/lib/gcc/x86_64-linux-gnu/4.8/../../../../include/c++/4.8/ostream:535:0
	callq	_ZSt16__ostream_insertIcSt11char_traitsIcEERSt13basic_ostreamIT_T0_ES6_PKS3_l
.Ltmp36:
	.loc	1 9 0                   # main.cc:9:0
	movq	%rbx, %rdi
	movl	$7, %esi
	callq	_ZNSolsEi
.Ltmp37:
	#DEBUG_VALUE: operator<<<std::char_traits<char> >:__out <- RAX+0
	.loc	29 535 0                # /usr/lib/gcc/x86_64-linux-gnu/4.8/../../../../include/c++/4.8/ostream:535:0
	movq	%rax, %rdi
.Ltmp38:
	.loc	29 535 0                # /usr/lib/gcc/x86_64-linux-gnu/4.8/../../../../include/c++/4.8/ostream:535:0
	movl	$.L.str, %esi
	movl	$1, %edx
.Ltmp39:
	.loc	29 535 0                # /usr/lib/gcc/x86_64-linux-gnu/4.8/../../../../include/c++/4.8/ostream:535:0
	callq	_ZSt16__ostream_insertIcSt11char_traitsIcEERSt13basic_ostreamIT_T0_ES6_PKS3_l
.Ltmp40:
	.loc	1 10 0                  # main.cc:10:0
	movq	%rbx, %rdi
	popq	%rbx
.Ltmp41:
	jmp	_ZN5Forr_IN6libmda8metaprog6detail18loop_iterator_implINS1_4int_ILi8EEENS4_ILi0EEENS4_ILi200EEEEENS3_IS7_S6_S7_EEE5applyERSo # TAILCALL
.Ltmp42:
.Ltmp43:
	.size	_ZN5Forr_IN6libmda8metaprog6detail18loop_iterator_implINS1_4int_ILi0EEES5_NS4_ILi200EEEEENS3_IS6_S5_S6_EEE5applyERSo, .Ltmp43-_ZN5Forr_IN6libmda8metaprog6detail18loop_iterator_implINS1_4int_ILi0EEES5_NS4_ILi200EEEEENS3_IS6_S5_S6_EEE5applyERSo
.Lfunc_end1:
	.cfi_endproc

	.section	.text._ZN5Forr_IN6libmda8metaprog6detail18loop_iterator_implINS1_4int_ILi8EEENS4_ILi0EEENS4_ILi200EEEEENS3_IS7_S6_S7_EEE5applyERSo,"axG",@progbits,_ZN5Forr_IN6libmda8metaprog6detail18loop_iterator_implINS1_4int_ILi8EEENS4_ILi0EEENS4_ILi200EEEEENS3_IS7_S6_S7_EEE5applyERSo,comdat
	.weak	_ZN5Forr_IN6libmda8metaprog6detail18loop_iterator_implINS1_4int_ILi8EEENS4_ILi0EEENS4_ILi200EEEEENS3_IS7_S6_S7_EEE5applyERSo
	.align	16, 0x90
	.type	_ZN5Forr_IN6libmda8metaprog6detail18loop_iterator_implINS1_4int_ILi8EEENS4_ILi0EEENS4_ILi200EEEEENS3_IS7_S6_S7_EEE5applyERSo,@function
_ZN5Forr_IN6libmda8metaprog6detail18loop_iterator_implINS1_4int_ILi8EEENS4_ILi0EEENS4_ILi200EEEEENS3_IS7_S6_S7_EEE5applyERSo: # @_ZN5Forr_IN6libmda8metaprog6detail18loop_iterator_implINS1_4int_ILi8EEENS4_ILi0EEENS4_ILi200EEEEENS3_IS7_S6_S7_EEE5applyERSo
	.cfi_startproc
.Lfunc_begin2:
	.loc	1 8 0                   # main.cc:8:0
# BB#0:                                 # %entry
	pushq	%rbx
.Ltmp46:
	.cfi_def_cfa_offset 16
.Ltmp47:
	.cfi_offset %rbx, -16
	#DEBUG_VALUE: apply:aout <- RDI+0
	movq	%rdi, %rbx
.Ltmp48:
	#DEBUG_VALUE: apply:aout <- RBX+0
	#DEBUG_VALUE: apply:aout <- RBX+0
	#DEBUG_VALUE: apply:aout <- RBX+0
	#DEBUG_VALUE: apply:aout <- RBX+0
	#DEBUG_VALUE: apply:aout <- RBX+0
	#DEBUG_VALUE: apply:aout <- RBX+0
	#DEBUG_VALUE: apply:aout <- RBX+0
	#DEBUG_VALUE: apply:aout <- RBX+0
	movl	$8, %esi
	.loc	1 9 0 prologue_end      # main.cc:9:0
.Ltmp49:
	callq	_ZNSolsEi
.Ltmp50:
	#DEBUG_VALUE: operator<<<std::char_traits<char> >:__out <- RAX+0
	#DEBUG_VALUE: length:__s <- undef
	#DEBUG_VALUE: operator<<<std::char_traits<char> >:__s <- undef
	#DEBUG_VALUE: length:__s <- undef
	#DEBUG_VALUE: operator<<<std::char_traits<char> >:__s <- undef
	#DEBUG_VALUE: length:__s <- undef
	#DEBUG_VALUE: operator<<<std::char_traits<char> >:__s <- undef
	#DEBUG_VALUE: length:__s <- undef
	#DEBUG_VALUE: operator<<<std::char_traits<char> >:__s <- undef
	#DEBUG_VALUE: length:__s <- undef
	#DEBUG_VALUE: operator<<<std::char_traits<char> >:__s <- undef
	#DEBUG_VALUE: length:__s <- undef
	#DEBUG_VALUE: operator<<<std::char_traits<char> >:__s <- undef
	#DEBUG_VALUE: length:__s <- undef
	#DEBUG_VALUE: operator<<<std::char_traits<char> >:__s <- undef
	#DEBUG_VALUE: length:__s <- undef
	.loc	29 535 0                # /usr/lib/gcc/x86_64-linux-gnu/4.8/../../../../include/c++/4.8/ostream:535:0
	movq	%rax, %rdi
	movl	$.L.str, %esi
	movl	$1, %edx
	callq	_ZSt16__ostream_insertIcSt11char_traitsIcEERSt13basic_ostreamIT_T0_ES6_PKS3_l
.Ltmp51:
	.loc	1 9 0                   # main.cc:9:0
	movq	%rbx, %rdi
	movl	$9, %esi
	callq	_ZNSolsEi
.Ltmp52:
	#DEBUG_VALUE: operator<<<std::char_traits<char> >:__out <- RAX+0
	.loc	29 535 0                # /usr/lib/gcc/x86_64-linux-gnu/4.8/../../../../include/c++/4.8/ostream:535:0
	movq	%rax, %rdi
.Ltmp53:
	.loc	29 535 0                # /usr/lib/gcc/x86_64-linux-gnu/4.8/../../../../include/c++/4.8/ostream:535:0
	movl	$.L.str, %esi
	movl	$1, %edx
.Ltmp54:
	.loc	29 535 0                # /usr/lib/gcc/x86_64-linux-gnu/4.8/../../../../include/c++/4.8/ostream:535:0
	callq	_ZSt16__ostream_insertIcSt11char_traitsIcEERSt13basic_ostreamIT_T0_ES6_PKS3_l
.Ltmp55:
	.loc	1 9 0                   # main.cc:9:0
	movq	%rbx, %rdi
	movl	$10, %esi
	callq	_ZNSolsEi
.Ltmp56:
	#DEBUG_VALUE: operator<<<std::char_traits<char> >:__out <- RAX+0
	.loc	29 535 0                # /usr/lib/gcc/x86_64-linux-gnu/4.8/../../../../include/c++/4.8/ostream:535:0
	movq	%rax, %rdi
.Ltmp57:
	.loc	29 535 0                # /usr/lib/gcc/x86_64-linux-gnu/4.8/../../../../include/c++/4.8/ostream:535:0
	movl	$.L.str, %esi
	movl	$1, %edx
.Ltmp58:
	.loc	29 535 0                # /usr/lib/gcc/x86_64-linux-gnu/4.8/../../../../include/c++/4.8/ostream:535:0
	callq	_ZSt16__ostream_insertIcSt11char_traitsIcEERSt13basic_ostreamIT_T0_ES6_PKS3_l
.Ltmp59:
	.loc	1 9 0                   # main.cc:9:0
	movq	%rbx, %rdi
	movl	$11, %esi
	callq	_ZNSolsEi
.Ltmp60:
	#DEBUG_VALUE: operator<<<std::char_traits<char> >:__out <- RAX+0
	.loc	29 535 0                # /usr/lib/gcc/x86_64-linux-gnu/4.8/../../../../include/c++/4.8/ostream:535:0
	movq	%rax, %rdi
.Ltmp61:
	.loc	29 535 0                # /usr/lib/gcc/x86_64-linux-gnu/4.8/../../../../include/c++/4.8/ostream:535:0
	movl	$.L.str, %esi
	movl	$1, %edx
.Ltmp62:
	.loc	29 535 0                # /usr/lib/gcc/x86_64-linux-gnu/4.8/../../../../include/c++/4.8/ostream:535:0
	callq	_ZSt16__ostream_insertIcSt11char_traitsIcEERSt13basic_ostreamIT_T0_ES6_PKS3_l
.Ltmp63:
	.loc	1 9 0                   # main.cc:9:0
	movq	%rbx, %rdi
	movl	$12, %esi
	callq	_ZNSolsEi
.Ltmp64:
	#DEBUG_VALUE: operator<<<std::char_traits<char> >:__out <- RAX+0
	.loc	29 535 0                # /usr/lib/gcc/x86_64-linux-gnu/4.8/../../../../include/c++/4.8/ostream:535:0
	movq	%rax, %rdi
.Ltmp65:
	.loc	29 535 0                # /usr/lib/gcc/x86_64-linux-gnu/4.8/../../../../include/c++/4.8/ostream:535:0
	movl	$.L.str, %esi
	movl	$1, %edx
.Ltmp66:
	.loc	29 535 0                # /usr/lib/gcc/x86_64-linux-gnu/4.8/../../../../include/c++/4.8/ostream:535:0
	callq	_ZSt16__ostream_insertIcSt11char_traitsIcEERSt13basic_ostreamIT_T0_ES6_PKS3_l
.Ltmp67:
	.loc	1 9 0                   # main.cc:9:0
	movq	%rbx, %rdi
	movl	$13, %esi
	callq	_ZNSolsEi
.Ltmp68:
	#DEBUG_VALUE: operator<<<std::char_traits<char> >:__out <- RAX+0
	.loc	29 535 0                # /usr/lib/gcc/x86_64-linux-gnu/4.8/../../../../include/c++/4.8/ostream:535:0
	movq	%rax, %rdi
.Ltmp69:
	.loc	29 535 0                # /usr/lib/gcc/x86_64-linux-gnu/4.8/../../../../include/c++/4.8/ostream:535:0
	movl	$.L.str, %esi
	movl	$1, %edx
.Ltmp70:
	.loc	29 535 0                # /usr/lib/gcc/x86_64-linux-gnu/4.8/../../../../include/c++/4.8/ostream:535:0
	callq	_ZSt16__ostream_insertIcSt11char_traitsIcEERSt13basic_ostreamIT_T0_ES6_PKS3_l
.Ltmp71:
	.loc	1 9 0                   # main.cc:9:0
	movq	%rbx, %rdi
	movl	$14, %esi
	callq	_ZNSolsEi
.Ltmp72:
	#DEBUG_VALUE: operator<<<std::char_traits<char> >:__out <- RAX+0
	.loc	29 535 0                # /usr/lib/gcc/x86_64-linux-gnu/4.8/../../../../include/c++/4.8/ostream:535:0
	movq	%rax, %rdi
.Ltmp73:
	.loc	29 535 0                # /usr/lib/gcc/x86_64-linux-gnu/4.8/../../../../include/c++/4.8/ostream:535:0
	movl	$.L.str, %esi
	movl	$1, %edx
.Ltmp74:
	.loc	29 535 0                # /usr/lib/gcc/x86_64-linux-gnu/4.8/../../../../include/c++/4.8/ostream:535:0
	callq	_ZSt16__ostream_insertIcSt11char_traitsIcEERSt13basic_ostreamIT_T0_ES6_PKS3_l
.Ltmp75:
	.loc	1 9 0                   # main.cc:9:0
	movq	%rbx, %rdi
	movl	$15, %esi
	callq	_ZNSolsEi
.Ltmp76:
	#DEBUG_VALUE: operator<<<std::char_traits<char> >:__out <- RAX+0
	.loc	29 535 0                # /usr/lib/gcc/x86_64-linux-gnu/4.8/../../../../include/c++/4.8/ostream:535:0
	movq	%rax, %rdi
.Ltmp77:
	.loc	29 535 0                # /usr/lib/gcc/x86_64-linux-gnu/4.8/../../../../include/c++/4.8/ostream:535:0
	movl	$.L.str, %esi
	movl	$1, %edx
.Ltmp78:
	.loc	29 535 0                # /usr/lib/gcc/x86_64-linux-gnu/4.8/../../../../include/c++/4.8/ostream:535:0
	callq	_ZSt16__ostream_insertIcSt11char_traitsIcEERSt13basic_ostreamIT_T0_ES6_PKS3_l
.Ltmp79:
	.loc	1 10 0                  # main.cc:10:0
	movq	%rbx, %rdi
	popq	%rbx
.Ltmp80:
	jmp	_ZN5Forr_IN6libmda8metaprog6detail18loop_iterator_implINS1_4int_ILi16EEENS4_ILi0EEENS4_ILi200EEEEENS3_IS7_S6_S7_EEE5applyERSo # TAILCALL
.Ltmp81:
.Ltmp82:
	.size	_ZN5Forr_IN6libmda8metaprog6detail18loop_iterator_implINS1_4int_ILi8EEENS4_ILi0EEENS4_ILi200EEEEENS3_IS7_S6_S7_EEE5applyERSo, .Ltmp82-_ZN5Forr_IN6libmda8metaprog6detail18loop_iterator_implINS1_4int_ILi8EEENS4_ILi0EEENS4_ILi200EEEEENS3_IS7_S6_S7_EEE5applyERSo
.Lfunc_end2:
	.cfi_endproc

	.section	.text._ZN5Forr_IN6libmda8metaprog6detail18loop_iterator_implINS1_4int_ILi16EEENS4_ILi0EEENS4_ILi200EEEEENS3_IS7_S6_S7_EEE5applyERSo,"axG",@progbits,_ZN5Forr_IN6libmda8metaprog6detail18loop_iterator_implINS1_4int_ILi16EEENS4_ILi0EEENS4_ILi200EEEEENS3_IS7_S6_S7_EEE5applyERSo,comdat
	.weak	_ZN5Forr_IN6libmda8metaprog6detail18loop_iterator_implINS1_4int_ILi16EEENS4_ILi0EEENS4_ILi200EEEEENS3_IS7_S6_S7_EEE5applyERSo
	.align	16, 0x90
	.type	_ZN5Forr_IN6libmda8metaprog6detail18loop_iterator_implINS1_4int_ILi16EEENS4_ILi0EEENS4_ILi200EEEEENS3_IS7_S6_S7_EEE5applyERSo,@function
_ZN5Forr_IN6libmda8metaprog6detail18loop_iterator_implINS1_4int_ILi16EEENS4_ILi0EEENS4_ILi200EEEEENS3_IS7_S6_S7_EEE5applyERSo: # @_ZN5Forr_IN6libmda8metaprog6detail18loop_iterator_implINS1_4int_ILi16EEENS4_ILi0EEENS4_ILi200EEEEENS3_IS7_S6_S7_EEE5applyERSo
	.cfi_startproc
.Lfunc_begin3:
	.loc	1 8 0                   # main.cc:8:0
# BB#0:                                 # %entry
	pushq	%rbx
.Ltmp85:
	.cfi_def_cfa_offset 16
.Ltmp86:
	.cfi_offset %rbx, -16
	#DEBUG_VALUE: apply:aout <- RDI+0
	movq	%rdi, %rbx
.Ltmp87:
	#DEBUG_VALUE: apply:aout <- RBX+0
	#DEBUG_VALUE: apply:aout <- RBX+0
	#DEBUG_VALUE: apply:aout <- RBX+0
	#DEBUG_VALUE: apply:aout <- RBX+0
	#DEBUG_VALUE: apply:aout <- RBX+0
	#DEBUG_VALUE: apply:aout <- RBX+0
	#DEBUG_VALUE: apply:aout <- RBX+0
	#DEBUG_VALUE: apply:aout <- RBX+0
	movl	$16, %esi
	.loc	1 9 0 prologue_end      # main.cc:9:0
.Ltmp88:
	callq	_ZNSolsEi
.Ltmp89:
	#DEBUG_VALUE: operator<<<std::char_traits<char> >:__out <- RAX+0
	#DEBUG_VALUE: length:__s <- undef
	#DEBUG_VALUE: operator<<<std::char_traits<char> >:__s <- undef
	#DEBUG_VALUE: length:__s <- undef
	#DEBUG_VALUE: operator<<<std::char_traits<char> >:__s <- undef
	#DEBUG_VALUE: length:__s <- undef
	#DEBUG_VALUE: operator<<<std::char_traits<char> >:__s <- undef
	#DEBUG_VALUE: length:__s <- undef
	#DEBUG_VALUE: operator<<<std::char_traits<char> >:__s <- undef
	#DEBUG_VALUE: length:__s <- undef
	#DEBUG_VALUE: operator<<<std::char_traits<char> >:__s <- undef
	#DEBUG_VALUE: length:__s <- undef
	#DEBUG_VALUE: operator<<<std::char_traits<char> >:__s <- undef
	#DEBUG_VALUE: length:__s <- undef
	#DEBUG_VALUE: operator<<<std::char_traits<char> >:__s <- undef
	#DEBUG_VALUE: length:__s <- undef
	.loc	29 535 0                # /usr/lib/gcc/x86_64-linux-gnu/4.8/../../../../include/c++/4.8/ostream:535:0
	movq	%rax, %rdi
	movl	$.L.str, %esi
	movl	$1, %edx
	callq	_ZSt16__ostream_insertIcSt11char_traitsIcEERSt13basic_ostreamIT_T0_ES6_PKS3_l
.Ltmp90:
	.loc	1 9 0                   # main.cc:9:0
	movq	%rbx, %rdi
	movl	$17, %esi
	callq	_ZNSolsEi
.Ltmp91:
	#DEBUG_VALUE: operator<<<std::char_traits<char> >:__out <- RAX+0
	.loc	29 535 0                # /usr/lib/gcc/x86_64-linux-gnu/4.8/../../../../include/c++/4.8/ostream:535:0
	movq	%rax, %rdi
.Ltmp92:
	.loc	29 535 0                # /usr/lib/gcc/x86_64-linux-gnu/4.8/../../../../include/c++/4.8/ostream:535:0
	movl	$.L.str, %esi
	movl	$1, %edx
.Ltmp93:
	.loc	29 535 0                # /usr/lib/gcc/x86_64-linux-gnu/4.8/../../../../include/c++/4.8/ostream:535:0
	callq	_ZSt16__ostream_insertIcSt11char_traitsIcEERSt13basic_ostreamIT_T0_ES6_PKS3_l
.Ltmp94:
	.loc	1 9 0                   # main.cc:9:0
	movq	%rbx, %rdi
	movl	$18, %esi
	callq	_ZNSolsEi
.Ltmp95:
	#DEBUG_VALUE: operator<<<std::char_traits<char> >:__out <- RAX+0
	.loc	29 535 0                # /usr/lib/gcc/x86_64-linux-gnu/4.8/../../../../include/c++/4.8/ostream:535:0
	movq	%rax, %rdi
.Ltmp96:
	.loc	29 535 0                # /usr/lib/gcc/x86_64-linux-gnu/4.8/../../../../include/c++/4.8/ostream:535:0
	movl	$.L.str, %esi
	movl	$1, %edx
.Ltmp97:
	.loc	29 535 0                # /usr/lib/gcc/x86_64-linux-gnu/4.8/../../../../include/c++/4.8/ostream:535:0
	callq	_ZSt16__ostream_insertIcSt11char_traitsIcEERSt13basic_ostreamIT_T0_ES6_PKS3_l
.Ltmp98:
	.loc	1 9 0                   # main.cc:9:0
	movq	%rbx, %rdi
	movl	$19, %esi
	callq	_ZNSolsEi
.Ltmp99:
	#DEBUG_VALUE: operator<<<std::char_traits<char> >:__out <- RAX+0
	.loc	29 535 0                # /usr/lib/gcc/x86_64-linux-gnu/4.8/../../../../include/c++/4.8/ostream:535:0
	movq	%rax, %rdi
.Ltmp100:
	.loc	29 535 0                # /usr/lib/gcc/x86_64-linux-gnu/4.8/../../../../include/c++/4.8/ostream:535:0
	movl	$.L.str, %esi
	movl	$1, %edx
.Ltmp101:
	.loc	29 535 0                # /usr/lib/gcc/x86_64-linux-gnu/4.8/../../../../include/c++/4.8/ostream:535:0
	callq	_ZSt16__ostream_insertIcSt11char_traitsIcEERSt13basic_ostreamIT_T0_ES6_PKS3_l
.Ltmp102:
	.loc	1 9 0                   # main.cc:9:0
	movq	%rbx, %rdi
	movl	$20, %esi
	callq	_ZNSolsEi
.Ltmp103:
	#DEBUG_VALUE: operator<<<std::char_traits<char> >:__out <- RAX+0
	.loc	29 535 0                # /usr/lib/gcc/x86_64-linux-gnu/4.8/../../../../include/c++/4.8/ostream:535:0
	movq	%rax, %rdi
.Ltmp104:
	.loc	29 535 0                # /usr/lib/gcc/x86_64-linux-gnu/4.8/../../../../include/c++/4.8/ostream:535:0
	movl	$.L.str, %esi
	movl	$1, %edx
.Ltmp105:
	.loc	29 535 0                # /usr/lib/gcc/x86_64-linux-gnu/4.8/../../../../include/c++/4.8/ostream:535:0
	callq	_ZSt16__ostream_insertIcSt11char_traitsIcEERSt13basic_ostreamIT_T0_ES6_PKS3_l
.Ltmp106:
	.loc	1 9 0                   # main.cc:9:0
	movq	%rbx, %rdi
	movl	$21, %esi
	callq	_ZNSolsEi
.Ltmp107:
	#DEBUG_VALUE: operator<<<std::char_traits<char> >:__out <- RAX+0
	.loc	29 535 0                # /usr/lib/gcc/x86_64-linux-gnu/4.8/../../../../include/c++/4.8/ostream:535:0
	movq	%rax, %rdi
.Ltmp108:
	.loc	29 535 0                # /usr/lib/gcc/x86_64-linux-gnu/4.8/../../../../include/c++/4.8/ostream:535:0
	movl	$.L.str, %esi
	movl	$1, %edx
.Ltmp109:
	.loc	29 535 0                # /usr/lib/gcc/x86_64-linux-gnu/4.8/../../../../include/c++/4.8/ostream:535:0
	callq	_ZSt16__ostream_insertIcSt11char_traitsIcEERSt13basic_ostreamIT_T0_ES6_PKS3_l
.Ltmp110:
	.loc	1 9 0                   # main.cc:9:0
	movq	%rbx, %rdi
	movl	$22, %esi
	callq	_ZNSolsEi
.Ltmp111:
	#DEBUG_VALUE: operator<<<std::char_traits<char> >:__out <- RAX+0
	.loc	29 535 0                # /usr/lib/gcc/x86_64-linux-gnu/4.8/../../../../include/c++/4.8/ostream:535:0
	movq	%rax, %rdi
.Ltmp112:
	.loc	29 535 0                # /usr/lib/gcc/x86_64-linux-gnu/4.8/../../../../include/c++/4.8/ostream:535:0
	movl	$.L.str, %esi
	movl	$1, %edx
.Ltmp113:
	.loc	29 535 0                # /usr/lib/gcc/x86_64-linux-gnu/4.8/../../../../include/c++/4.8/ostream:535:0
	callq	_ZSt16__ostream_insertIcSt11char_traitsIcEERSt13basic_ostreamIT_T0_ES6_PKS3_l
.Ltmp114:
	.loc	1 9 0                   # main.cc:9:0
	movq	%rbx, %rdi
	movl	$23, %esi
	callq	_ZNSolsEi
.Ltmp115:
	#DEBUG_VALUE: operator<<<std::char_traits<char> >:__out <- RAX+0
	.loc	29 535 0                # /usr/lib/gcc/x86_64-linux-gnu/4.8/../../../../include/c++/4.8/ostream:535:0
	movq	%rax, %rdi
.Ltmp116:
	.loc	29 535 0                # /usr/lib/gcc/x86_64-linux-gnu/4.8/../../../../include/c++/4.8/ostream:535:0
	movl	$.L.str, %esi
	movl	$1, %edx
.Ltmp117:
	.loc	29 535 0                # /usr/lib/gcc/x86_64-linux-gnu/4.8/../../../../include/c++/4.8/ostream:535:0
	callq	_ZSt16__ostream_insertIcSt11char_traitsIcEERSt13basic_ostreamIT_T0_ES6_PKS3_l
.Ltmp118:
	.loc	1 10 0                  # main.cc:10:0
	movq	%rbx, %rdi
	popq	%rbx
.Ltmp119:
	jmp	_ZN5Forr_IN6libmda8metaprog6detail18loop_iterator_implINS1_4int_ILi24EEENS4_ILi0EEENS4_ILi200EEEEENS3_IS7_S6_S7_EEE5applyERSo # TAILCALL
.Ltmp120:
.Ltmp121:
	.size	_ZN5Forr_IN6libmda8metaprog6detail18loop_iterator_implINS1_4int_ILi16EEENS4_ILi0EEENS4_ILi200EEEEENS3_IS7_S6_S7_EEE5applyERSo, .Ltmp121-_ZN5Forr_IN6libmda8metaprog6detail18loop_iterator_implINS1_4int_ILi16EEENS4_ILi0EEENS4_ILi200EEEEENS3_IS7_S6_S7_EEE5applyERSo
.Lfunc_end3:
	.cfi_endproc

	.section	.text._ZN5Forr_IN6libmda8metaprog6detail18loop_iterator_implINS1_4int_ILi24EEENS4_ILi0EEENS4_ILi200EEEEENS3_IS7_S6_S7_EEE5applyERSo,"axG",@progbits,_ZN5Forr_IN6libmda8metaprog6detail18loop_iterator_implINS1_4int_ILi24EEENS4_ILi0EEENS4_ILi200EEEEENS3_IS7_S6_S7_EEE5applyERSo,comdat
	.weak	_ZN5Forr_IN6libmda8metaprog6detail18loop_iterator_implINS1_4int_ILi24EEENS4_ILi0EEENS4_ILi200EEEEENS3_IS7_S6_S7_EEE5applyERSo
	.align	16, 0x90
	.type	_ZN5Forr_IN6libmda8metaprog6detail18loop_iterator_implINS1_4int_ILi24EEENS4_ILi0EEENS4_ILi200EEEEENS3_IS7_S6_S7_EEE5applyERSo,@function
_ZN5Forr_IN6libmda8metaprog6detail18loop_iterator_implINS1_4int_ILi24EEENS4_ILi0EEENS4_ILi200EEEEENS3_IS7_S6_S7_EEE5applyERSo: # @_ZN5Forr_IN6libmda8metaprog6detail18loop_iterator_implINS1_4int_ILi24EEENS4_ILi0EEENS4_ILi200EEEEENS3_IS7_S6_S7_EEE5applyERSo
	.cfi_startproc
.Lfunc_begin4:
	.loc	1 8 0                   # main.cc:8:0
# BB#0:                                 # %entry
	pushq	%rbx
.Ltmp124:
	.cfi_def_cfa_offset 16
.Ltmp125:
	.cfi_offset %rbx, -16
	#DEBUG_VALUE: apply:aout <- RDI+0
	movq	%rdi, %rbx
.Ltmp126:
	#DEBUG_VALUE: apply:aout <- RBX+0
	#DEBUG_VALUE: apply:aout <- RBX+0
	#DEBUG_VALUE: apply:aout <- RBX+0
	#DEBUG_VALUE: apply:aout <- RBX+0
	#DEBUG_VALUE: apply:aout <- RBX+0
	#DEBUG_VALUE: apply:aout <- RBX+0
	#DEBUG_VALUE: apply:aout <- RBX+0
	#DEBUG_VALUE: apply:aout <- RBX+0
	movl	$24, %esi
	.loc	1 9 0 prologue_end      # main.cc:9:0
.Ltmp127:
	callq	_ZNSolsEi
.Ltmp128:
	#DEBUG_VALUE: operator<<<std::char_traits<char> >:__out <- RAX+0
	#DEBUG_VALUE: length:__s <- undef
	#DEBUG_VALUE: operator<<<std::char_traits<char> >:__s <- undef
	#DEBUG_VALUE: length:__s <- undef
	#DEBUG_VALUE: operator<<<std::char_traits<char> >:__s <- undef
	#DEBUG_VALUE: length:__s <- undef
	#DEBUG_VALUE: operator<<<std::char_traits<char> >:__s <- undef
	#DEBUG_VALUE: length:__s <- undef
	#DEBUG_VALUE: operator<<<std::char_traits<char> >:__s <- undef
	#DEBUG_VALUE: length:__s <- undef
	#DEBUG_VALUE: operator<<<std::char_traits<char> >:__s <- undef
	#DEBUG_VALUE: length:__s <- undef
	#DEBUG_VALUE: operator<<<std::char_traits<char> >:__s <- undef
	#DEBUG_VALUE: length:__s <- undef
	#DEBUG_VALUE: operator<<<std::char_traits<char> >:__s <- undef
	#DEBUG_VALUE: length:__s <- undef
	.loc	29 535 0                # /usr/lib/gcc/x86_64-linux-gnu/4.8/../../../../include/c++/4.8/ostream:535:0
	movq	%rax, %rdi
	movl	$.L.str, %esi
	movl	$1, %edx
	callq	_ZSt16__ostream_insertIcSt11char_traitsIcEERSt13basic_ostreamIT_T0_ES6_PKS3_l
.Ltmp129:
	.loc	1 9 0                   # main.cc:9:0
	movq	%rbx, %rdi
	movl	$25, %esi
	callq	_ZNSolsEi
.Ltmp130:
	#DEBUG_VALUE: operator<<<std::char_traits<char> >:__out <- RAX+0
	.loc	29 535 0                # /usr/lib/gcc/x86_64-linux-gnu/4.8/../../../../include/c++/4.8/ostream:535:0
	movq	%rax, %rdi
.Ltmp131:
	.loc	29 535 0                # /usr/lib/gcc/x86_64-linux-gnu/4.8/../../../../include/c++/4.8/ostream:535:0
	movl	$.L.str, %esi
	movl	$1, %edx
.Ltmp132:
	.loc	29 535 0                # /usr/lib/gcc/x86_64-linux-gnu/4.8/../../../../include/c++/4.8/ostream:535:0
	callq	_ZSt16__ostream_insertIcSt11char_traitsIcEERSt13basic_ostreamIT_T0_ES6_PKS3_l
.Ltmp133:
	.loc	1 9 0                   # main.cc:9:0
	movq	%rbx, %rdi
	movl	$26, %esi
	callq	_ZNSolsEi
.Ltmp134:
	#DEBUG_VALUE: operator<<<std::char_traits<char> >:__out <- RAX+0
	.loc	29 535 0                # /usr/lib/gcc/x86_64-linux-gnu/4.8/../../../../include/c++/4.8/ostream:535:0
	movq	%rax, %rdi
.Ltmp135:
	.loc	29 535 0                # /usr/lib/gcc/x86_64-linux-gnu/4.8/../../../../include/c++/4.8/ostream:535:0
	movl	$.L.str, %esi
	movl	$1, %edx
.Ltmp136:
	.loc	29 535 0                # /usr/lib/gcc/x86_64-linux-gnu/4.8/../../../../include/c++/4.8/ostream:535:0
	callq	_ZSt16__ostream_insertIcSt11char_traitsIcEERSt13basic_ostreamIT_T0_ES6_PKS3_l
.Ltmp137:
	.loc	1 9 0                   # main.cc:9:0
	movq	%rbx, %rdi
	movl	$27, %esi
	callq	_ZNSolsEi
.Ltmp138:
	#DEBUG_VALUE: operator<<<std::char_traits<char> >:__out <- RAX+0
	.loc	29 535 0                # /usr/lib/gcc/x86_64-linux-gnu/4.8/../../../../include/c++/4.8/ostream:535:0
	movq	%rax, %rdi
.Ltmp139:
	.loc	29 535 0                # /usr/lib/gcc/x86_64-linux-gnu/4.8/../../../../include/c++/4.8/ostream:535:0
	movl	$.L.str, %esi
	movl	$1, %edx
.Ltmp140:
	.loc	29 535 0                # /usr/lib/gcc/x86_64-linux-gnu/4.8/../../../../include/c++/4.8/ostream:535:0
	callq	_ZSt16__ostream_insertIcSt11char_traitsIcEERSt13basic_ostreamIT_T0_ES6_PKS3_l
.Ltmp141:
	.loc	1 9 0                   # main.cc:9:0
	movq	%rbx, %rdi
	movl	$28, %esi
	callq	_ZNSolsEi
.Ltmp142:
	#DEBUG_VALUE: operator<<<std::char_traits<char> >:__out <- RAX+0
	.loc	29 535 0                # /usr/lib/gcc/x86_64-linux-gnu/4.8/../../../../include/c++/4.8/ostream:535:0
	movq	%rax, %rdi
.Ltmp143:
	.loc	29 535 0                # /usr/lib/gcc/x86_64-linux-gnu/4.8/../../../../include/c++/4.8/ostream:535:0
	movl	$.L.str, %esi
	movl	$1, %edx
.Ltmp144:
	.loc	29 535 0                # /usr/lib/gcc/x86_64-linux-gnu/4.8/../../../../include/c++/4.8/ostream:535:0
	callq	_ZSt16__ostream_insertIcSt11char_traitsIcEERSt13basic_ostreamIT_T0_ES6_PKS3_l
.Ltmp145:
	.loc	1 9 0                   # main.cc:9:0
	movq	%rbx, %rdi
	movl	$29, %esi
	callq	_ZNSolsEi
.Ltmp146:
	#DEBUG_VALUE: operator<<<std::char_traits<char> >:__out <- RAX+0
	.loc	29 535 0                # /usr/lib/gcc/x86_64-linux-gnu/4.8/../../../../include/c++/4.8/ostream:535:0
	movq	%rax, %rdi
.Ltmp147:
	.loc	29 535 0                # /usr/lib/gcc/x86_64-linux-gnu/4.8/../../../../include/c++/4.8/ostream:535:0
	movl	$.L.str, %esi
	movl	$1, %edx
.Ltmp148:
	.loc	29 535 0                # /usr/lib/gcc/x86_64-linux-gnu/4.8/../../../../include/c++/4.8/ostream:535:0
	callq	_ZSt16__ostream_insertIcSt11char_traitsIcEERSt13basic_ostreamIT_T0_ES6_PKS3_l
.Ltmp149:
	.loc	1 9 0                   # main.cc:9:0
	movq	%rbx, %rdi
	movl	$30, %esi
	callq	_ZNSolsEi
.Ltmp150:
	#DEBUG_VALUE: operator<<<std::char_traits<char> >:__out <- RAX+0
	.loc	29 535 0                # /usr/lib/gcc/x86_64-linux-gnu/4.8/../../../../include/c++/4.8/ostream:535:0
	movq	%rax, %rdi
.Ltmp151:
	.loc	29 535 0                # /usr/lib/gcc/x86_64-linux-gnu/4.8/../../../../include/c++/4.8/ostream:535:0
	movl	$.L.str, %esi
	movl	$1, %edx
.Ltmp152:
	.loc	29 535 0                # /usr/lib/gcc/x86_64-linux-gnu/4.8/../../../../include/c++/4.8/ostream:535:0
	callq	_ZSt16__ostream_insertIcSt11char_traitsIcEERSt13basic_ostreamIT_T0_ES6_PKS3_l
.Ltmp153:
	.loc	1 9 0                   # main.cc:9:0
	movq	%rbx, %rdi
	movl	$31, %esi
	callq	_ZNSolsEi
.Ltmp154:
	#DEBUG_VALUE: operator<<<std::char_traits<char> >:__out <- RAX+0
	.loc	29 535 0                # /usr/lib/gcc/x86_64-linux-gnu/4.8/../../../../include/c++/4.8/ostream:535:0
	movq	%rax, %rdi
.Ltmp155:
	.loc	29 535 0                # /usr/lib/gcc/x86_64-linux-gnu/4.8/../../../../include/c++/4.8/ostream:535:0
	movl	$.L.str, %esi
	movl	$1, %edx
.Ltmp156:
	.loc	29 535 0                # /usr/lib/gcc/x86_64-linux-gnu/4.8/../../../../include/c++/4.8/ostream:535:0
	callq	_ZSt16__ostream_insertIcSt11char_traitsIcEERSt13basic_ostreamIT_T0_ES6_PKS3_l
.Ltmp157:
	.loc	1 10 0                  # main.cc:10:0
	movq	%rbx, %rdi
	popq	%rbx
.Ltmp158:
	jmp	_ZN5Forr_IN6libmda8metaprog6detail18loop_iterator_implINS1_4int_ILi32EEENS4_ILi0EEENS4_ILi200EEEEENS3_IS7_S6_S7_EEE5applyERSo # TAILCALL
.Ltmp159:
.Ltmp160:
	.size	_ZN5Forr_IN6libmda8metaprog6detail18loop_iterator_implINS1_4int_ILi24EEENS4_ILi0EEENS4_ILi200EEEEENS3_IS7_S6_S7_EEE5applyERSo, .Ltmp160-_ZN5Forr_IN6libmda8metaprog6detail18loop_iterator_implINS1_4int_ILi24EEENS4_ILi0EEENS4_ILi200EEEEENS3_IS7_S6_S7_EEE5applyERSo
.Lfunc_end4:
	.cfi_endproc

	.section	.text._ZN5Forr_IN6libmda8metaprog6detail18loop_iterator_implINS1_4int_ILi32EEENS4_ILi0EEENS4_ILi200EEEEENS3_IS7_S6_S7_EEE5applyERSo,"axG",@progbits,_ZN5Forr_IN6libmda8metaprog6detail18loop_iterator_implINS1_4int_ILi32EEENS4_ILi0EEENS4_ILi200EEEEENS3_IS7_S6_S7_EEE5applyERSo,comdat
	.weak	_ZN5Forr_IN6libmda8metaprog6detail18loop_iterator_implINS1_4int_ILi32EEENS4_ILi0EEENS4_ILi200EEEEENS3_IS7_S6_S7_EEE5applyERSo
	.align	16, 0x90
	.type	_ZN5Forr_IN6libmda8metaprog6detail18loop_iterator_implINS1_4int_ILi32EEENS4_ILi0EEENS4_ILi200EEEEENS3_IS7_S6_S7_EEE5applyERSo,@function
_ZN5Forr_IN6libmda8metaprog6detail18loop_iterator_implINS1_4int_ILi32EEENS4_ILi0EEENS4_ILi200EEEEENS3_IS7_S6_S7_EEE5applyERSo: # @_ZN5Forr_IN6libmda8metaprog6detail18loop_iterator_implINS1_4int_ILi32EEENS4_ILi0EEENS4_ILi200EEEEENS3_IS7_S6_S7_EEE5applyERSo
	.cfi_startproc
.Lfunc_begin5:
	.loc	1 8 0                   # main.cc:8:0
# BB#0:                                 # %entry
	pushq	%rbx
.Ltmp163:
	.cfi_def_cfa_offset 16
.Ltmp164:
	.cfi_offset %rbx, -16
	#DEBUG_VALUE: apply:aout <- RDI+0
	movq	%rdi, %rbx
.Ltmp165:
	#DEBUG_VALUE: apply:aout <- RBX+0
	#DEBUG_VALUE: apply:aout <- RBX+0
	#DEBUG_VALUE: apply:aout <- RBX+0
	#DEBUG_VALUE: apply:aout <- RBX+0
	#DEBUG_VALUE: apply:aout <- RBX+0
	#DEBUG_VALUE: apply:aout <- RBX+0
	#DEBUG_VALUE: apply:aout <- RBX+0
	#DEBUG_VALUE: apply:aout <- RBX+0
	movl	$32, %esi
	.loc	1 9 0 prologue_end      # main.cc:9:0
.Ltmp166:
	callq	_ZNSolsEi
.Ltmp167:
	#DEBUG_VALUE: operator<<<std::char_traits<char> >:__out <- RAX+0
	#DEBUG_VALUE: length:__s <- undef
	#DEBUG_VALUE: operator<<<std::char_traits<char> >:__s <- undef
	#DEBUG_VALUE: length:__s <- undef
	#DEBUG_VALUE: operator<<<std::char_traits<char> >:__s <- undef
	#DEBUG_VALUE: length:__s <- undef
	#DEBUG_VALUE: operator<<<std::char_traits<char> >:__s <- undef
	#DEBUG_VALUE: length:__s <- undef
	#DEBUG_VALUE: operator<<<std::char_traits<char> >:__s <- undef
	#DEBUG_VALUE: length:__s <- undef
	#DEBUG_VALUE: operator<<<std::char_traits<char> >:__s <- undef
	#DEBUG_VALUE: length:__s <- undef
	#DEBUG_VALUE: operator<<<std::char_traits<char> >:__s <- undef
	#DEBUG_VALUE: length:__s <- undef
	#DEBUG_VALUE: operator<<<std::char_traits<char> >:__s <- undef
	#DEBUG_VALUE: length:__s <- undef
	.loc	29 535 0                # /usr/lib/gcc/x86_64-linux-gnu/4.8/../../../../include/c++/4.8/ostream:535:0
	movq	%rax, %rdi
	movl	$.L.str, %esi
	movl	$1, %edx
	callq	_ZSt16__ostream_insertIcSt11char_traitsIcEERSt13basic_ostreamIT_T0_ES6_PKS3_l
.Ltmp168:
	.loc	1 9 0                   # main.cc:9:0
	movq	%rbx, %rdi
	movl	$33, %esi
	callq	_ZNSolsEi
.Ltmp169:
	#DEBUG_VALUE: operator<<<std::char_traits<char> >:__out <- RAX+0
	.loc	29 535 0                # /usr/lib/gcc/x86_64-linux-gnu/4.8/../../../../include/c++/4.8/ostream:535:0
	movq	%rax, %rdi
.Ltmp170:
	.loc	29 535 0                # /usr/lib/gcc/x86_64-linux-gnu/4.8/../../../../include/c++/4.8/ostream:535:0
	movl	$.L.str, %esi
	movl	$1, %edx
.Ltmp171:
	.loc	29 535 0                # /usr/lib/gcc/x86_64-linux-gnu/4.8/../../../../include/c++/4.8/ostream:535:0
	callq	_ZSt16__ostream_insertIcSt11char_traitsIcEERSt13basic_ostreamIT_T0_ES6_PKS3_l
.Ltmp172:
	.loc	1 9 0                   # main.cc:9:0
	movq	%rbx, %rdi
	movl	$34, %esi
	callq	_ZNSolsEi
.Ltmp173:
	#DEBUG_VALUE: operator<<<std::char_traits<char> >:__out <- RAX+0
	.loc	29 535 0                # /usr/lib/gcc/x86_64-linux-gnu/4.8/../../../../include/c++/4.8/ostream:535:0
	movq	%rax, %rdi
.Ltmp174:
	.loc	29 535 0                # /usr/lib/gcc/x86_64-linux-gnu/4.8/../../../../include/c++/4.8/ostream:535:0
	movl	$.L.str, %esi
	movl	$1, %edx
.Ltmp175:
	.loc	29 535 0                # /usr/lib/gcc/x86_64-linux-gnu/4.8/../../../../include/c++/4.8/ostream:535:0
	callq	_ZSt16__ostream_insertIcSt11char_traitsIcEERSt13basic_ostreamIT_T0_ES6_PKS3_l
.Ltmp176:
	.loc	1 9 0                   # main.cc:9:0
	movq	%rbx, %rdi
	movl	$35, %esi
	callq	_ZNSolsEi
.Ltmp177:
	#DEBUG_VALUE: operator<<<std::char_traits<char> >:__out <- RAX+0
	.loc	29 535 0                # /usr/lib/gcc/x86_64-linux-gnu/4.8/../../../../include/c++/4.8/ostream:535:0
	movq	%rax, %rdi
.Ltmp178:
	.loc	29 535 0                # /usr/lib/gcc/x86_64-linux-gnu/4.8/../../../../include/c++/4.8/ostream:535:0
	movl	$.L.str, %esi
	movl	$1, %edx
.Ltmp179:
	.loc	29 535 0                # /usr/lib/gcc/x86_64-linux-gnu/4.8/../../../../include/c++/4.8/ostream:535:0
	callq	_ZSt16__ostream_insertIcSt11char_traitsIcEERSt13basic_ostreamIT_T0_ES6_PKS3_l
.Ltmp180:
	.loc	1 9 0                   # main.cc:9:0
	movq	%rbx, %rdi
	movl	$36, %esi
	callq	_ZNSolsEi
.Ltmp181:
	#DEBUG_VALUE: operator<<<std::char_traits<char> >:__out <- RAX+0
	.loc	29 535 0                # /usr/lib/gcc/x86_64-linux-gnu/4.8/../../../../include/c++/4.8/ostream:535:0
	movq	%rax, %rdi
.Ltmp182:
	.loc	29 535 0                # /usr/lib/gcc/x86_64-linux-gnu/4.8/../../../../include/c++/4.8/ostream:535:0
	movl	$.L.str, %esi
	movl	$1, %edx
.Ltmp183:
	.loc	29 535 0                # /usr/lib/gcc/x86_64-linux-gnu/4.8/../../../../include/c++/4.8/ostream:535:0
	callq	_ZSt16__ostream_insertIcSt11char_traitsIcEERSt13basic_ostreamIT_T0_ES6_PKS3_l
.Ltmp184:
	.loc	1 9 0                   # main.cc:9:0
	movq	%rbx, %rdi
	movl	$37, %esi
	callq	_ZNSolsEi
.Ltmp185:
	#DEBUG_VALUE: operator<<<std::char_traits<char> >:__out <- RAX+0
	.loc	29 535 0                # /usr/lib/gcc/x86_64-linux-gnu/4.8/../../../../include/c++/4.8/ostream:535:0
	movq	%rax, %rdi
.Ltmp186:
	.loc	29 535 0                # /usr/lib/gcc/x86_64-linux-gnu/4.8/../../../../include/c++/4.8/ostream:535:0
	movl	$.L.str, %esi
	movl	$1, %edx
.Ltmp187:
	.loc	29 535 0                # /usr/lib/gcc/x86_64-linux-gnu/4.8/../../../../include/c++/4.8/ostream:535:0
	callq	_ZSt16__ostream_insertIcSt11char_traitsIcEERSt13basic_ostreamIT_T0_ES6_PKS3_l
.Ltmp188:
	.loc	1 9 0                   # main.cc:9:0
	movq	%rbx, %rdi
	movl	$38, %esi
	callq	_ZNSolsEi
.Ltmp189:
	#DEBUG_VALUE: operator<<<std::char_traits<char> >:__out <- RAX+0
	.loc	29 535 0                # /usr/lib/gcc/x86_64-linux-gnu/4.8/../../../../include/c++/4.8/ostream:535:0
	movq	%rax, %rdi
.Ltmp190:
	.loc	29 535 0                # /usr/lib/gcc/x86_64-linux-gnu/4.8/../../../../include/c++/4.8/ostream:535:0
	movl	$.L.str, %esi
	movl	$1, %edx
.Ltmp191:
	.loc	29 535 0                # /usr/lib/gcc/x86_64-linux-gnu/4.8/../../../../include/c++/4.8/ostream:535:0
	callq	_ZSt16__ostream_insertIcSt11char_traitsIcEERSt13basic_ostreamIT_T0_ES6_PKS3_l
.Ltmp192:
	.loc	1 9 0                   # main.cc:9:0
	movq	%rbx, %rdi
	movl	$39, %esi
	callq	_ZNSolsEi
.Ltmp193:
	#DEBUG_VALUE: operator<<<std::char_traits<char> >:__out <- RAX+0
	.loc	29 535 0                # /usr/lib/gcc/x86_64-linux-gnu/4.8/../../../../include/c++/4.8/ostream:535:0
	movq	%rax, %rdi
.Ltmp194:
	.loc	29 535 0                # /usr/lib/gcc/x86_64-linux-gnu/4.8/../../../../include/c++/4.8/ostream:535:0
	movl	$.L.str, %esi
	movl	$1, %edx
.Ltmp195:
	.loc	29 535 0                # /usr/lib/gcc/x86_64-linux-gnu/4.8/../../../../include/c++/4.8/ostream:535:0
	callq	_ZSt16__ostream_insertIcSt11char_traitsIcEERSt13basic_ostreamIT_T0_ES6_PKS3_l
.Ltmp196:
	.loc	1 10 0                  # main.cc:10:0
	movq	%rbx, %rdi
	popq	%rbx
.Ltmp197:
	jmp	_ZN5Forr_IN6libmda8metaprog6detail18loop_iterator_implINS1_4int_ILi40EEENS4_ILi0EEENS4_ILi200EEEEENS3_IS7_S6_S7_EEE5applyERSo # TAILCALL
.Ltmp198:
.Ltmp199:
	.size	_ZN5Forr_IN6libmda8metaprog6detail18loop_iterator_implINS1_4int_ILi32EEENS4_ILi0EEENS4_ILi200EEEEENS3_IS7_S6_S7_EEE5applyERSo, .Ltmp199-_ZN5Forr_IN6libmda8metaprog6detail18loop_iterator_implINS1_4int_ILi32EEENS4_ILi0EEENS4_ILi200EEEEENS3_IS7_S6_S7_EEE5applyERSo
.Lfunc_end5:
	.cfi_endproc

	.section	.text._ZN5Forr_IN6libmda8metaprog6detail18loop_iterator_implINS1_4int_ILi40EEENS4_ILi0EEENS4_ILi200EEEEENS3_IS7_S6_S7_EEE5applyERSo,"axG",@progbits,_ZN5Forr_IN6libmda8metaprog6detail18loop_iterator_implINS1_4int_ILi40EEENS4_ILi0EEENS4_ILi200EEEEENS3_IS7_S6_S7_EEE5applyERSo,comdat
	.weak	_ZN5Forr_IN6libmda8metaprog6detail18loop_iterator_implINS1_4int_ILi40EEENS4_ILi0EEENS4_ILi200EEEEENS3_IS7_S6_S7_EEE5applyERSo
	.align	16, 0x90
	.type	_ZN5Forr_IN6libmda8metaprog6detail18loop_iterator_implINS1_4int_ILi40EEENS4_ILi0EEENS4_ILi200EEEEENS3_IS7_S6_S7_EEE5applyERSo,@function
_ZN5Forr_IN6libmda8metaprog6detail18loop_iterator_implINS1_4int_ILi40EEENS4_ILi0EEENS4_ILi200EEEEENS3_IS7_S6_S7_EEE5applyERSo: # @_ZN5Forr_IN6libmda8metaprog6detail18loop_iterator_implINS1_4int_ILi40EEENS4_ILi0EEENS4_ILi200EEEEENS3_IS7_S6_S7_EEE5applyERSo
	.cfi_startproc
.Lfunc_begin6:
	.loc	1 8 0                   # main.cc:8:0
# BB#0:                                 # %entry
	pushq	%rbx
.Ltmp202:
	.cfi_def_cfa_offset 16
.Ltmp203:
	.cfi_offset %rbx, -16
	#DEBUG_VALUE: apply:aout <- RDI+0
	movq	%rdi, %rbx
.Ltmp204:
	#DEBUG_VALUE: apply:aout <- RBX+0
	#DEBUG_VALUE: apply:aout <- RBX+0
	#DEBUG_VALUE: apply:aout <- RBX+0
	#DEBUG_VALUE: apply:aout <- RBX+0
	#DEBUG_VALUE: apply:aout <- RBX+0
	#DEBUG_VALUE: apply:aout <- RBX+0
	#DEBUG_VALUE: apply:aout <- RBX+0
	#DEBUG_VALUE: apply:aout <- RBX+0
	movl	$40, %esi
	.loc	1 9 0 prologue_end      # main.cc:9:0
.Ltmp205:
	callq	_ZNSolsEi
.Ltmp206:
	#DEBUG_VALUE: operator<<<std::char_traits<char> >:__out <- RAX+0
	#DEBUG_VALUE: length:__s <- undef
	#DEBUG_VALUE: operator<<<std::char_traits<char> >:__s <- undef
	#DEBUG_VALUE: length:__s <- undef
	#DEBUG_VALUE: operator<<<std::char_traits<char> >:__s <- undef
	#DEBUG_VALUE: length:__s <- undef
	#DEBUG_VALUE: operator<<<std::char_traits<char> >:__s <- undef
	#DEBUG_VALUE: length:__s <- undef
	#DEBUG_VALUE: operator<<<std::char_traits<char> >:__s <- undef
	#DEBUG_VALUE: length:__s <- undef
	#DEBUG_VALUE: operator<<<std::char_traits<char> >:__s <- undef
	#DEBUG_VALUE: length:__s <- undef
	#DEBUG_VALUE: operator<<<std::char_traits<char> >:__s <- undef
	#DEBUG_VALUE: length:__s <- undef
	#DEBUG_VALUE: operator<<<std::char_traits<char> >:__s <- undef
	#DEBUG_VALUE: length:__s <- undef
	.loc	29 535 0                # /usr/lib/gcc/x86_64-linux-gnu/4.8/../../../../include/c++/4.8/ostream:535:0
	movq	%rax, %rdi
	movl	$.L.str, %esi
	movl	$1, %edx
	callq	_ZSt16__ostream_insertIcSt11char_traitsIcEERSt13basic_ostreamIT_T0_ES6_PKS3_l
.Ltmp207:
	.loc	1 9 0                   # main.cc:9:0
	movq	%rbx, %rdi
	movl	$41, %esi
	callq	_ZNSolsEi
.Ltmp208:
	#DEBUG_VALUE: operator<<<std::char_traits<char> >:__out <- RAX+0
	.loc	29 535 0                # /usr/lib/gcc/x86_64-linux-gnu/4.8/../../../../include/c++/4.8/ostream:535:0
	movq	%rax, %rdi
.Ltmp209:
	.loc	29 535 0                # /usr/lib/gcc/x86_64-linux-gnu/4.8/../../../../include/c++/4.8/ostream:535:0
	movl	$.L.str, %esi
	movl	$1, %edx
.Ltmp210:
	.loc	29 535 0                # /usr/lib/gcc/x86_64-linux-gnu/4.8/../../../../include/c++/4.8/ostream:535:0
	callq	_ZSt16__ostream_insertIcSt11char_traitsIcEERSt13basic_ostreamIT_T0_ES6_PKS3_l
.Ltmp211:
	.loc	1 9 0                   # main.cc:9:0
	movq	%rbx, %rdi
	movl	$42, %esi
	callq	_ZNSolsEi
.Ltmp212:
	#DEBUG_VALUE: operator<<<std::char_traits<char> >:__out <- RAX+0
	.loc	29 535 0                # /usr/lib/gcc/x86_64-linux-gnu/4.8/../../../../include/c++/4.8/ostream:535:0
	movq	%rax, %rdi
.Ltmp213:
	.loc	29 535 0                # /usr/lib/gcc/x86_64-linux-gnu/4.8/../../../../include/c++/4.8/ostream:535:0
	movl	$.L.str, %esi
	movl	$1, %edx
.Ltmp214:
	.loc	29 535 0                # /usr/lib/gcc/x86_64-linux-gnu/4.8/../../../../include/c++/4.8/ostream:535:0
	callq	_ZSt16__ostream_insertIcSt11char_traitsIcEERSt13basic_ostreamIT_T0_ES6_PKS3_l
.Ltmp215:
	.loc	1 9 0                   # main.cc:9:0
	movq	%rbx, %rdi
	movl	$43, %esi
	callq	_ZNSolsEi
.Ltmp216:
	#DEBUG_VALUE: operator<<<std::char_traits<char> >:__out <- RAX+0
	.loc	29 535 0                # /usr/lib/gcc/x86_64-linux-gnu/4.8/../../../../include/c++/4.8/ostream:535:0
	movq	%rax, %rdi
.Ltmp217:
	.loc	29 535 0                # /usr/lib/gcc/x86_64-linux-gnu/4.8/../../../../include/c++/4.8/ostream:535:0
	movl	$.L.str, %esi
	movl	$1, %edx
.Ltmp218:
	.loc	29 535 0                # /usr/lib/gcc/x86_64-linux-gnu/4.8/../../../../include/c++/4.8/ostream:535:0
	callq	_ZSt16__ostream_insertIcSt11char_traitsIcEERSt13basic_ostreamIT_T0_ES6_PKS3_l
.Ltmp219:
	.loc	1 9 0                   # main.cc:9:0
	movq	%rbx, %rdi
	movl	$44, %esi
	callq	_ZNSolsEi
.Ltmp220:
	#DEBUG_VALUE: operator<<<std::char_traits<char> >:__out <- RAX+0
	.loc	29 535 0                # /usr/lib/gcc/x86_64-linux-gnu/4.8/../../../../include/c++/4.8/ostream:535:0
	movq	%rax, %rdi
.Ltmp221:
	.loc	29 535 0                # /usr/lib/gcc/x86_64-linux-gnu/4.8/../../../../include/c++/4.8/ostream:535:0
	movl	$.L.str, %esi
	movl	$1, %edx
.Ltmp222:
	.loc	29 535 0                # /usr/lib/gcc/x86_64-linux-gnu/4.8/../../../../include/c++/4.8/ostream:535:0
	callq	_ZSt16__ostream_insertIcSt11char_traitsIcEERSt13basic_ostreamIT_T0_ES6_PKS3_l
.Ltmp223:
	.loc	1 9 0                   # main.cc:9:0
	movq	%rbx, %rdi
	movl	$45, %esi
	callq	_ZNSolsEi
.Ltmp224:
	#DEBUG_VALUE: operator<<<std::char_traits<char> >:__out <- RAX+0
	.loc	29 535 0                # /usr/lib/gcc/x86_64-linux-gnu/4.8/../../../../include/c++/4.8/ostream:535:0
	movq	%rax, %rdi
.Ltmp225:
	.loc	29 535 0                # /usr/lib/gcc/x86_64-linux-gnu/4.8/../../../../include/c++/4.8/ostream:535:0
	movl	$.L.str, %esi
	movl	$1, %edx
.Ltmp226:
	.loc	29 535 0                # /usr/lib/gcc/x86_64-linux-gnu/4.8/../../../../include/c++/4.8/ostream:535:0
	callq	_ZSt16__ostream_insertIcSt11char_traitsIcEERSt13basic_ostreamIT_T0_ES6_PKS3_l
.Ltmp227:
	.loc	1 9 0                   # main.cc:9:0
	movq	%rbx, %rdi
	movl	$46, %esi
	callq	_ZNSolsEi
.Ltmp228:
	#DEBUG_VALUE: operator<<<std::char_traits<char> >:__out <- RAX+0
	.loc	29 535 0                # /usr/lib/gcc/x86_64-linux-gnu/4.8/../../../../include/c++/4.8/ostream:535:0
	movq	%rax, %rdi
.Ltmp229:
	.loc	29 535 0                # /usr/lib/gcc/x86_64-linux-gnu/4.8/../../../../include/c++/4.8/ostream:535:0
	movl	$.L.str, %esi
	movl	$1, %edx
.Ltmp230:
	.loc	29 535 0                # /usr/lib/gcc/x86_64-linux-gnu/4.8/../../../../include/c++/4.8/ostream:535:0
	callq	_ZSt16__ostream_insertIcSt11char_traitsIcEERSt13basic_ostreamIT_T0_ES6_PKS3_l
.Ltmp231:
	.loc	1 9 0                   # main.cc:9:0
	movq	%rbx, %rdi
	movl	$47, %esi
	callq	_ZNSolsEi
.Ltmp232:
	#DEBUG_VALUE: operator<<<std::char_traits<char> >:__out <- RAX+0
	.loc	29 535 0                # /usr/lib/gcc/x86_64-linux-gnu/4.8/../../../../include/c++/4.8/ostream:535:0
	movq	%rax, %rdi
.Ltmp233:
	.loc	29 535 0                # /usr/lib/gcc/x86_64-linux-gnu/4.8/../../../../include/c++/4.8/ostream:535:0
	movl	$.L.str, %esi
	movl	$1, %edx
.Ltmp234:
	.loc	29 535 0                # /usr/lib/gcc/x86_64-linux-gnu/4.8/../../../../include/c++/4.8/ostream:535:0
	callq	_ZSt16__ostream_insertIcSt11char_traitsIcEERSt13basic_ostreamIT_T0_ES6_PKS3_l
.Ltmp235:
	.loc	1 10 0                  # main.cc:10:0
	movq	%rbx, %rdi
	popq	%rbx
.Ltmp236:
	jmp	_ZN5Forr_IN6libmda8metaprog6detail18loop_iterator_implINS1_4int_ILi48EEENS4_ILi0EEENS4_ILi200EEEEENS3_IS7_S6_S7_EEE5applyERSo # TAILCALL
.Ltmp237:
.Ltmp238:
	.size	_ZN5Forr_IN6libmda8metaprog6detail18loop_iterator_implINS1_4int_ILi40EEENS4_ILi0EEENS4_ILi200EEEEENS3_IS7_S6_S7_EEE5applyERSo, .Ltmp238-_ZN5Forr_IN6libmda8metaprog6detail18loop_iterator_implINS1_4int_ILi40EEENS4_ILi0EEENS4_ILi200EEEEENS3_IS7_S6_S7_EEE5applyERSo
.Lfunc_end6:
	.cfi_endproc

	.section	.text._ZN5Forr_IN6libmda8metaprog6detail18loop_iterator_implINS1_4int_ILi48EEENS4_ILi0EEENS4_ILi200EEEEENS3_IS7_S6_S7_EEE5applyERSo,"axG",@progbits,_ZN5Forr_IN6libmda8metaprog6detail18loop_iterator_implINS1_4int_ILi48EEENS4_ILi0EEENS4_ILi200EEEEENS3_IS7_S6_S7_EEE5applyERSo,comdat
	.weak	_ZN5Forr_IN6libmda8metaprog6detail18loop_iterator_implINS1_4int_ILi48EEENS4_ILi0EEENS4_ILi200EEEEENS3_IS7_S6_S7_EEE5applyERSo
	.align	16, 0x90
	.type	_ZN5Forr_IN6libmda8metaprog6detail18loop_iterator_implINS1_4int_ILi48EEENS4_ILi0EEENS4_ILi200EEEEENS3_IS7_S6_S7_EEE5applyERSo,@function
_ZN5Forr_IN6libmda8metaprog6detail18loop_iterator_implINS1_4int_ILi48EEENS4_ILi0EEENS4_ILi200EEEEENS3_IS7_S6_S7_EEE5applyERSo: # @_ZN5Forr_IN6libmda8metaprog6detail18loop_iterator_implINS1_4int_ILi48EEENS4_ILi0EEENS4_ILi200EEEEENS3_IS7_S6_S7_EEE5applyERSo
	.cfi_startproc
.Lfunc_begin7:
	.loc	1 8 0                   # main.cc:8:0
# BB#0:                                 # %entry
	pushq	%rbx
.Ltmp241:
	.cfi_def_cfa_offset 16
.Ltmp242:
	.cfi_offset %rbx, -16
	#DEBUG_VALUE: apply:aout <- RDI+0
	movq	%rdi, %rbx
.Ltmp243:
	#DEBUG_VALUE: apply:aout <- RBX+0
	#DEBUG_VALUE: apply:aout <- RBX+0
	#DEBUG_VALUE: apply:aout <- RBX+0
	#DEBUG_VALUE: apply:aout <- RBX+0
	#DEBUG_VALUE: apply:aout <- RBX+0
	#DEBUG_VALUE: apply:aout <- RBX+0
	#DEBUG_VALUE: apply:aout <- RBX+0
	#DEBUG_VALUE: apply:aout <- RBX+0
	movl	$48, %esi
	.loc	1 9 0 prologue_end      # main.cc:9:0
.Ltmp244:
	callq	_ZNSolsEi
.Ltmp245:
	#DEBUG_VALUE: operator<<<std::char_traits<char> >:__out <- RAX+0
	#DEBUG_VALUE: length:__s <- undef
	#DEBUG_VALUE: operator<<<std::char_traits<char> >:__s <- undef
	#DEBUG_VALUE: length:__s <- undef
	#DEBUG_VALUE: operator<<<std::char_traits<char> >:__s <- undef
	#DEBUG_VALUE: length:__s <- undef
	#DEBUG_VALUE: operator<<<std::char_traits<char> >:__s <- undef
	#DEBUG_VALUE: length:__s <- undef
	#DEBUG_VALUE: operator<<<std::char_traits<char> >:__s <- undef
	#DEBUG_VALUE: length:__s <- undef
	#DEBUG_VALUE: operator<<<std::char_traits<char> >:__s <- undef
	#DEBUG_VALUE: length:__s <- undef
	#DEBUG_VALUE: operator<<<std::char_traits<char> >:__s <- undef
	#DEBUG_VALUE: length:__s <- undef
	#DEBUG_VALUE: operator<<<std::char_traits<char> >:__s <- undef
	#DEBUG_VALUE: length:__s <- undef
	.loc	29 535 0                # /usr/lib/gcc/x86_64-linux-gnu/4.8/../../../../include/c++/4.8/ostream:535:0
	movq	%rax, %rdi
	movl	$.L.str, %esi
	movl	$1, %edx
	callq	_ZSt16__ostream_insertIcSt11char_traitsIcEERSt13basic_ostreamIT_T0_ES6_PKS3_l
.Ltmp246:
	.loc	1 9 0                   # main.cc:9:0
	movq	%rbx, %rdi
	movl	$49, %esi
	callq	_ZNSolsEi
.Ltmp247:
	#DEBUG_VALUE: operator<<<std::char_traits<char> >:__out <- RAX+0
	.loc	29 535 0                # /usr/lib/gcc/x86_64-linux-gnu/4.8/../../../../include/c++/4.8/ostream:535:0
	movq	%rax, %rdi
.Ltmp248:
	.loc	29 535 0                # /usr/lib/gcc/x86_64-linux-gnu/4.8/../../../../include/c++/4.8/ostream:535:0
	movl	$.L.str, %esi
	movl	$1, %edx
.Ltmp249:
	.loc	29 535 0                # /usr/lib/gcc/x86_64-linux-gnu/4.8/../../../../include/c++/4.8/ostream:535:0
	callq	_ZSt16__ostream_insertIcSt11char_traitsIcEERSt13basic_ostreamIT_T0_ES6_PKS3_l
.Ltmp250:
	.loc	1 9 0                   # main.cc:9:0
	movq	%rbx, %rdi
	movl	$50, %esi
	callq	_ZNSolsEi
.Ltmp251:
	#DEBUG_VALUE: operator<<<std::char_traits<char> >:__out <- RAX+0
	.loc	29 535 0                # /usr/lib/gcc/x86_64-linux-gnu/4.8/../../../../include/c++/4.8/ostream:535:0
	movq	%rax, %rdi
.Ltmp252:
	.loc	29 535 0                # /usr/lib/gcc/x86_64-linux-gnu/4.8/../../../../include/c++/4.8/ostream:535:0
	movl	$.L.str, %esi
	movl	$1, %edx
.Ltmp253:
	.loc	29 535 0                # /usr/lib/gcc/x86_64-linux-gnu/4.8/../../../../include/c++/4.8/ostream:535:0
	callq	_ZSt16__ostream_insertIcSt11char_traitsIcEERSt13basic_ostreamIT_T0_ES6_PKS3_l
.Ltmp254:
	.loc	1 9 0                   # main.cc:9:0
	movq	%rbx, %rdi
	movl	$51, %esi
	callq	_ZNSolsEi
.Ltmp255:
	#DEBUG_VALUE: operator<<<std::char_traits<char> >:__out <- RAX+0
	.loc	29 535 0                # /usr/lib/gcc/x86_64-linux-gnu/4.8/../../../../include/c++/4.8/ostream:535:0
	movq	%rax, %rdi
.Ltmp256:
	.loc	29 535 0                # /usr/lib/gcc/x86_64-linux-gnu/4.8/../../../../include/c++/4.8/ostream:535:0
	movl	$.L.str, %esi
	movl	$1, %edx
.Ltmp257:
	.loc	29 535 0                # /usr/lib/gcc/x86_64-linux-gnu/4.8/../../../../include/c++/4.8/ostream:535:0
	callq	_ZSt16__ostream_insertIcSt11char_traitsIcEERSt13basic_ostreamIT_T0_ES6_PKS3_l
.Ltmp258:
	.loc	1 9 0                   # main.cc:9:0
	movq	%rbx, %rdi
	movl	$52, %esi
	callq	_ZNSolsEi
.Ltmp259:
	#DEBUG_VALUE: operator<<<std::char_traits<char> >:__out <- RAX+0
	.loc	29 535 0                # /usr/lib/gcc/x86_64-linux-gnu/4.8/../../../../include/c++/4.8/ostream:535:0
	movq	%rax, %rdi
.Ltmp260:
	.loc	29 535 0                # /usr/lib/gcc/x86_64-linux-gnu/4.8/../../../../include/c++/4.8/ostream:535:0
	movl	$.L.str, %esi
	movl	$1, %edx
.Ltmp261:
	.loc	29 535 0                # /usr/lib/gcc/x86_64-linux-gnu/4.8/../../../../include/c++/4.8/ostream:535:0
	callq	_ZSt16__ostream_insertIcSt11char_traitsIcEERSt13basic_ostreamIT_T0_ES6_PKS3_l
.Ltmp262:
	.loc	1 9 0                   # main.cc:9:0
	movq	%rbx, %rdi
	movl	$53, %esi
	callq	_ZNSolsEi
.Ltmp263:
	#DEBUG_VALUE: operator<<<std::char_traits<char> >:__out <- RAX+0
	.loc	29 535 0                # /usr/lib/gcc/x86_64-linux-gnu/4.8/../../../../include/c++/4.8/ostream:535:0
	movq	%rax, %rdi
.Ltmp264:
	.loc	29 535 0                # /usr/lib/gcc/x86_64-linux-gnu/4.8/../../../../include/c++/4.8/ostream:535:0
	movl	$.L.str, %esi
	movl	$1, %edx
.Ltmp265:
	.loc	29 535 0                # /usr/lib/gcc/x86_64-linux-gnu/4.8/../../../../include/c++/4.8/ostream:535:0
	callq	_ZSt16__ostream_insertIcSt11char_traitsIcEERSt13basic_ostreamIT_T0_ES6_PKS3_l
.Ltmp266:
	.loc	1 9 0                   # main.cc:9:0
	movq	%rbx, %rdi
	movl	$54, %esi
	callq	_ZNSolsEi
.Ltmp267:
	#DEBUG_VALUE: operator<<<std::char_traits<char> >:__out <- RAX+0
	.loc	29 535 0                # /usr/lib/gcc/x86_64-linux-gnu/4.8/../../../../include/c++/4.8/ostream:535:0
	movq	%rax, %rdi
.Ltmp268:
	.loc	29 535 0                # /usr/lib/gcc/x86_64-linux-gnu/4.8/../../../../include/c++/4.8/ostream:535:0
	movl	$.L.str, %esi
	movl	$1, %edx
.Ltmp269:
	.loc	29 535 0                # /usr/lib/gcc/x86_64-linux-gnu/4.8/../../../../include/c++/4.8/ostream:535:0
	callq	_ZSt16__ostream_insertIcSt11char_traitsIcEERSt13basic_ostreamIT_T0_ES6_PKS3_l
.Ltmp270:
	.loc	1 9 0                   # main.cc:9:0
	movq	%rbx, %rdi
	movl	$55, %esi
	callq	_ZNSolsEi
.Ltmp271:
	#DEBUG_VALUE: operator<<<std::char_traits<char> >:__out <- RAX+0
	.loc	29 535 0                # /usr/lib/gcc/x86_64-linux-gnu/4.8/../../../../include/c++/4.8/ostream:535:0
	movq	%rax, %rdi
.Ltmp272:
	.loc	29 535 0                # /usr/lib/gcc/x86_64-linux-gnu/4.8/../../../../include/c++/4.8/ostream:535:0
	movl	$.L.str, %esi
	movl	$1, %edx
.Ltmp273:
	.loc	29 535 0                # /usr/lib/gcc/x86_64-linux-gnu/4.8/../../../../include/c++/4.8/ostream:535:0
	callq	_ZSt16__ostream_insertIcSt11char_traitsIcEERSt13basic_ostreamIT_T0_ES6_PKS3_l
.Ltmp274:
	.loc	1 10 0                  # main.cc:10:0
	movq	%rbx, %rdi
	popq	%rbx
.Ltmp275:
	jmp	_ZN5Forr_IN6libmda8metaprog6detail18loop_iterator_implINS1_4int_ILi56EEENS4_ILi0EEENS4_ILi200EEEEENS3_IS7_S6_S7_EEE5applyERSo # TAILCALL
.Ltmp276:
.Ltmp277:
	.size	_ZN5Forr_IN6libmda8metaprog6detail18loop_iterator_implINS1_4int_ILi48EEENS4_ILi0EEENS4_ILi200EEEEENS3_IS7_S6_S7_EEE5applyERSo, .Ltmp277-_ZN5Forr_IN6libmda8metaprog6detail18loop_iterator_implINS1_4int_ILi48EEENS4_ILi0EEENS4_ILi200EEEEENS3_IS7_S6_S7_EEE5applyERSo
.Lfunc_end7:
	.cfi_endproc

	.section	.text._ZN5Forr_IN6libmda8metaprog6detail18loop_iterator_implINS1_4int_ILi56EEENS4_ILi0EEENS4_ILi200EEEEENS3_IS7_S6_S7_EEE5applyERSo,"axG",@progbits,_ZN5Forr_IN6libmda8metaprog6detail18loop_iterator_implINS1_4int_ILi56EEENS4_ILi0EEENS4_ILi200EEEEENS3_IS7_S6_S7_EEE5applyERSo,comdat
	.weak	_ZN5Forr_IN6libmda8metaprog6detail18loop_iterator_implINS1_4int_ILi56EEENS4_ILi0EEENS4_ILi200EEEEENS3_IS7_S6_S7_EEE5applyERSo
	.align	16, 0x90
	.type	_ZN5Forr_IN6libmda8metaprog6detail18loop_iterator_implINS1_4int_ILi56EEENS4_ILi0EEENS4_ILi200EEEEENS3_IS7_S6_S7_EEE5applyERSo,@function
_ZN5Forr_IN6libmda8metaprog6detail18loop_iterator_implINS1_4int_ILi56EEENS4_ILi0EEENS4_ILi200EEEEENS3_IS7_S6_S7_EEE5applyERSo: # @_ZN5Forr_IN6libmda8metaprog6detail18loop_iterator_implINS1_4int_ILi56EEENS4_ILi0EEENS4_ILi200EEEEENS3_IS7_S6_S7_EEE5applyERSo
	.cfi_startproc
.Lfunc_begin8:
	.loc	1 8 0                   # main.cc:8:0
# BB#0:                                 # %entry
	pushq	%rbx
.Ltmp280:
	.cfi_def_cfa_offset 16
.Ltmp281:
	.cfi_offset %rbx, -16
	#DEBUG_VALUE: apply:aout <- RDI+0
	movq	%rdi, %rbx
.Ltmp282:
	#DEBUG_VALUE: apply:aout <- RBX+0
	#DEBUG_VALUE: apply:aout <- RBX+0
	#DEBUG_VALUE: apply:aout <- RBX+0
	#DEBUG_VALUE: apply:aout <- RBX+0
	#DEBUG_VALUE: apply:aout <- RBX+0
	#DEBUG_VALUE: apply:aout <- RBX+0
	#DEBUG_VALUE: apply:aout <- RBX+0
	#DEBUG_VALUE: apply:aout <- RBX+0
	movl	$56, %esi
	.loc	1 9 0 prologue_end      # main.cc:9:0
.Ltmp283:
	callq	_ZNSolsEi
.Ltmp284:
	#DEBUG_VALUE: operator<<<std::char_traits<char> >:__out <- RAX+0
	#DEBUG_VALUE: length:__s <- undef
	#DEBUG_VALUE: operator<<<std::char_traits<char> >:__s <- undef
	#DEBUG_VALUE: length:__s <- undef
	#DEBUG_VALUE: operator<<<std::char_traits<char> >:__s <- undef
	#DEBUG_VALUE: length:__s <- undef
	#DEBUG_VALUE: operator<<<std::char_traits<char> >:__s <- undef
	#DEBUG_VALUE: length:__s <- undef
	#DEBUG_VALUE: operator<<<std::char_traits<char> >:__s <- undef
	#DEBUG_VALUE: length:__s <- undef
	#DEBUG_VALUE: operator<<<std::char_traits<char> >:__s <- undef
	#DEBUG_VALUE: length:__s <- undef
	#DEBUG_VALUE: operator<<<std::char_traits<char> >:__s <- undef
	#DEBUG_VALUE: length:__s <- undef
	#DEBUG_VALUE: operator<<<std::char_traits<char> >:__s <- undef
	#DEBUG_VALUE: length:__s <- undef
	.loc	29 535 0                # /usr/lib/gcc/x86_64-linux-gnu/4.8/../../../../include/c++/4.8/ostream:535:0
	movq	%rax, %rdi
	movl	$.L.str, %esi
	movl	$1, %edx
	callq	_ZSt16__ostream_insertIcSt11char_traitsIcEERSt13basic_ostreamIT_T0_ES6_PKS3_l
.Ltmp285:
	.loc	1 9 0                   # main.cc:9:0
	movq	%rbx, %rdi
	movl	$57, %esi
	callq	_ZNSolsEi
.Ltmp286:
	#DEBUG_VALUE: operator<<<std::char_traits<char> >:__out <- RAX+0
	.loc	29 535 0                # /usr/lib/gcc/x86_64-linux-gnu/4.8/../../../../include/c++/4.8/ostream:535:0
	movq	%rax, %rdi
.Ltmp287:
	.loc	29 535 0                # /usr/lib/gcc/x86_64-linux-gnu/4.8/../../../../include/c++/4.8/ostream:535:0
	movl	$.L.str, %esi
	movl	$1, %edx
.Ltmp288:
	.loc	29 535 0                # /usr/lib/gcc/x86_64-linux-gnu/4.8/../../../../include/c++/4.8/ostream:535:0
	callq	_ZSt16__ostream_insertIcSt11char_traitsIcEERSt13basic_ostreamIT_T0_ES6_PKS3_l
.Ltmp289:
	.loc	1 9 0                   # main.cc:9:0
	movq	%rbx, %rdi
	movl	$58, %esi
	callq	_ZNSolsEi
.Ltmp290:
	#DEBUG_VALUE: operator<<<std::char_traits<char> >:__out <- RAX+0
	.loc	29 535 0                # /usr/lib/gcc/x86_64-linux-gnu/4.8/../../../../include/c++/4.8/ostream:535:0
	movq	%rax, %rdi
.Ltmp291:
	.loc	29 535 0                # /usr/lib/gcc/x86_64-linux-gnu/4.8/../../../../include/c++/4.8/ostream:535:0
	movl	$.L.str, %esi
	movl	$1, %edx
.Ltmp292:
	.loc	29 535 0                # /usr/lib/gcc/x86_64-linux-gnu/4.8/../../../../include/c++/4.8/ostream:535:0
	callq	_ZSt16__ostream_insertIcSt11char_traitsIcEERSt13basic_ostreamIT_T0_ES6_PKS3_l
.Ltmp293:
	.loc	1 9 0                   # main.cc:9:0
	movq	%rbx, %rdi
	movl	$59, %esi
	callq	_ZNSolsEi
.Ltmp294:
	#DEBUG_VALUE: operator<<<std::char_traits<char> >:__out <- RAX+0
	.loc	29 535 0                # /usr/lib/gcc/x86_64-linux-gnu/4.8/../../../../include/c++/4.8/ostream:535:0
	movq	%rax, %rdi
.Ltmp295:
	.loc	29 535 0                # /usr/lib/gcc/x86_64-linux-gnu/4.8/../../../../include/c++/4.8/ostream:535:0
	movl	$.L.str, %esi
	movl	$1, %edx
.Ltmp296:
	.loc	29 535 0                # /usr/lib/gcc/x86_64-linux-gnu/4.8/../../../../include/c++/4.8/ostream:535:0
	callq	_ZSt16__ostream_insertIcSt11char_traitsIcEERSt13basic_ostreamIT_T0_ES6_PKS3_l
.Ltmp297:
	.loc	1 9 0                   # main.cc:9:0
	movq	%rbx, %rdi
	movl	$60, %esi
	callq	_ZNSolsEi
.Ltmp298:
	#DEBUG_VALUE: operator<<<std::char_traits<char> >:__out <- RAX+0
	.loc	29 535 0                # /usr/lib/gcc/x86_64-linux-gnu/4.8/../../../../include/c++/4.8/ostream:535:0
	movq	%rax, %rdi
.Ltmp299:
	.loc	29 535 0                # /usr/lib/gcc/x86_64-linux-gnu/4.8/../../../../include/c++/4.8/ostream:535:0
	movl	$.L.str, %esi
	movl	$1, %edx
.Ltmp300:
	.loc	29 535 0                # /usr/lib/gcc/x86_64-linux-gnu/4.8/../../../../include/c++/4.8/ostream:535:0
	callq	_ZSt16__ostream_insertIcSt11char_traitsIcEERSt13basic_ostreamIT_T0_ES6_PKS3_l
.Ltmp301:
	.loc	1 9 0                   # main.cc:9:0
	movq	%rbx, %rdi
	movl	$61, %esi
	callq	_ZNSolsEi
.Ltmp302:
	#DEBUG_VALUE: operator<<<std::char_traits<char> >:__out <- RAX+0
	.loc	29 535 0                # /usr/lib/gcc/x86_64-linux-gnu/4.8/../../../../include/c++/4.8/ostream:535:0
	movq	%rax, %rdi
.Ltmp303:
	.loc	29 535 0                # /usr/lib/gcc/x86_64-linux-gnu/4.8/../../../../include/c++/4.8/ostream:535:0
	movl	$.L.str, %esi
	movl	$1, %edx
.Ltmp304:
	.loc	29 535 0                # /usr/lib/gcc/x86_64-linux-gnu/4.8/../../../../include/c++/4.8/ostream:535:0
	callq	_ZSt16__ostream_insertIcSt11char_traitsIcEERSt13basic_ostreamIT_T0_ES6_PKS3_l
.Ltmp305:
	.loc	1 9 0                   # main.cc:9:0
	movq	%rbx, %rdi
	movl	$62, %esi
	callq	_ZNSolsEi
.Ltmp306:
	#DEBUG_VALUE: operator<<<std::char_traits<char> >:__out <- RAX+0
	.loc	29 535 0                # /usr/lib/gcc/x86_64-linux-gnu/4.8/../../../../include/c++/4.8/ostream:535:0
	movq	%rax, %rdi
.Ltmp307:
	.loc	29 535 0                # /usr/lib/gcc/x86_64-linux-gnu/4.8/../../../../include/c++/4.8/ostream:535:0
	movl	$.L.str, %esi
	movl	$1, %edx
.Ltmp308:
	.loc	29 535 0                # /usr/lib/gcc/x86_64-linux-gnu/4.8/../../../../include/c++/4.8/ostream:535:0
	callq	_ZSt16__ostream_insertIcSt11char_traitsIcEERSt13basic_ostreamIT_T0_ES6_PKS3_l
.Ltmp309:
	.loc	1 9 0                   # main.cc:9:0
	movq	%rbx, %rdi
	movl	$63, %esi
	callq	_ZNSolsEi
.Ltmp310:
	#DEBUG_VALUE: operator<<<std::char_traits<char> >:__out <- RAX+0
	.loc	29 535 0                # /usr/lib/gcc/x86_64-linux-gnu/4.8/../../../../include/c++/4.8/ostream:535:0
	movq	%rax, %rdi
.Ltmp311:
	.loc	29 535 0                # /usr/lib/gcc/x86_64-linux-gnu/4.8/../../../../include/c++/4.8/ostream:535:0
	movl	$.L.str, %esi
	movl	$1, %edx
.Ltmp312:
	.loc	29 535 0                # /usr/lib/gcc/x86_64-linux-gnu/4.8/../../../../include/c++/4.8/ostream:535:0
	callq	_ZSt16__ostream_insertIcSt11char_traitsIcEERSt13basic_ostreamIT_T0_ES6_PKS3_l
.Ltmp313:
	.loc	1 10 0                  # main.cc:10:0
	movq	%rbx, %rdi
	popq	%rbx
.Ltmp314:
	jmp	_ZN5Forr_IN6libmda8metaprog6detail18loop_iterator_implINS1_4int_ILi64EEENS4_ILi0EEENS4_ILi200EEEEENS3_IS7_S6_S7_EEE5applyERSo # TAILCALL
.Ltmp315:
.Ltmp316:
	.size	_ZN5Forr_IN6libmda8metaprog6detail18loop_iterator_implINS1_4int_ILi56EEENS4_ILi0EEENS4_ILi200EEEEENS3_IS7_S6_S7_EEE5applyERSo, .Ltmp316-_ZN5Forr_IN6libmda8metaprog6detail18loop_iterator_implINS1_4int_ILi56EEENS4_ILi0EEENS4_ILi200EEEEENS3_IS7_S6_S7_EEE5applyERSo
.Lfunc_end8:
	.cfi_endproc

	.section	.text._ZN5Forr_IN6libmda8metaprog6detail18loop_iterator_implINS1_4int_ILi64EEENS4_ILi0EEENS4_ILi200EEEEENS3_IS7_S6_S7_EEE5applyERSo,"axG",@progbits,_ZN5Forr_IN6libmda8metaprog6detail18loop_iterator_implINS1_4int_ILi64EEENS4_ILi0EEENS4_ILi200EEEEENS3_IS7_S6_S7_EEE5applyERSo,comdat
	.weak	_ZN5Forr_IN6libmda8metaprog6detail18loop_iterator_implINS1_4int_ILi64EEENS4_ILi0EEENS4_ILi200EEEEENS3_IS7_S6_S7_EEE5applyERSo
	.align	16, 0x90
	.type	_ZN5Forr_IN6libmda8metaprog6detail18loop_iterator_implINS1_4int_ILi64EEENS4_ILi0EEENS4_ILi200EEEEENS3_IS7_S6_S7_EEE5applyERSo,@function
_ZN5Forr_IN6libmda8metaprog6detail18loop_iterator_implINS1_4int_ILi64EEENS4_ILi0EEENS4_ILi200EEEEENS3_IS7_S6_S7_EEE5applyERSo: # @_ZN5Forr_IN6libmda8metaprog6detail18loop_iterator_implINS1_4int_ILi64EEENS4_ILi0EEENS4_ILi200EEEEENS3_IS7_S6_S7_EEE5applyERSo
	.cfi_startproc
.Lfunc_begin9:
	.loc	1 8 0                   # main.cc:8:0
# BB#0:                                 # %entry
	pushq	%rbx
.Ltmp319:
	.cfi_def_cfa_offset 16
.Ltmp320:
	.cfi_offset %rbx, -16
	#DEBUG_VALUE: apply:aout <- RDI+0
	movq	%rdi, %rbx
.Ltmp321:
	#DEBUG_VALUE: apply:aout <- RBX+0
	#DEBUG_VALUE: apply:aout <- RBX+0
	#DEBUG_VALUE: apply:aout <- RBX+0
	#DEBUG_VALUE: apply:aout <- RBX+0
	#DEBUG_VALUE: apply:aout <- RBX+0
	#DEBUG_VALUE: apply:aout <- RBX+0
	#DEBUG_VALUE: apply:aout <- RBX+0
	#DEBUG_VALUE: apply:aout <- RBX+0
	movl	$64, %esi
	.loc	1 9 0 prologue_end      # main.cc:9:0
.Ltmp322:
	callq	_ZNSolsEi
.Ltmp323:
	#DEBUG_VALUE: operator<<<std::char_traits<char> >:__out <- RAX+0
	#DEBUG_VALUE: length:__s <- undef
	#DEBUG_VALUE: operator<<<std::char_traits<char> >:__s <- undef
	#DEBUG_VALUE: length:__s <- undef
	#DEBUG_VALUE: operator<<<std::char_traits<char> >:__s <- undef
	#DEBUG_VALUE: length:__s <- undef
	#DEBUG_VALUE: operator<<<std::char_traits<char> >:__s <- undef
	#DEBUG_VALUE: length:__s <- undef
	#DEBUG_VALUE: operator<<<std::char_traits<char> >:__s <- undef
	#DEBUG_VALUE: length:__s <- undef
	#DEBUG_VALUE: operator<<<std::char_traits<char> >:__s <- undef
	#DEBUG_VALUE: length:__s <- undef
	#DEBUG_VALUE: operator<<<std::char_traits<char> >:__s <- undef
	#DEBUG_VALUE: length:__s <- undef
	#DEBUG_VALUE: operator<<<std::char_traits<char> >:__s <- undef
	#DEBUG_VALUE: length:__s <- undef
	.loc	29 535 0                # /usr/lib/gcc/x86_64-linux-gnu/4.8/../../../../include/c++/4.8/ostream:535:0
	movq	%rax, %rdi
	movl	$.L.str, %esi
	movl	$1, %edx
	callq	_ZSt16__ostream_insertIcSt11char_traitsIcEERSt13basic_ostreamIT_T0_ES6_PKS3_l
.Ltmp324:
	.loc	1 9 0                   # main.cc:9:0
	movq	%rbx, %rdi
	movl	$65, %esi
	callq	_ZNSolsEi
.Ltmp325:
	#DEBUG_VALUE: operator<<<std::char_traits<char> >:__out <- RAX+0
	.loc	29 535 0                # /usr/lib/gcc/x86_64-linux-gnu/4.8/../../../../include/c++/4.8/ostream:535:0
	movq	%rax, %rdi
.Ltmp326:
	.loc	29 535 0                # /usr/lib/gcc/x86_64-linux-gnu/4.8/../../../../include/c++/4.8/ostream:535:0
	movl	$.L.str, %esi
	movl	$1, %edx
.Ltmp327:
	.loc	29 535 0                # /usr/lib/gcc/x86_64-linux-gnu/4.8/../../../../include/c++/4.8/ostream:535:0
	callq	_ZSt16__ostream_insertIcSt11char_traitsIcEERSt13basic_ostreamIT_T0_ES6_PKS3_l
.Ltmp328:
	.loc	1 9 0                   # main.cc:9:0
	movq	%rbx, %rdi
	movl	$66, %esi
	callq	_ZNSolsEi
.Ltmp329:
	#DEBUG_VALUE: operator<<<std::char_traits<char> >:__out <- RAX+0
	.loc	29 535 0                # /usr/lib/gcc/x86_64-linux-gnu/4.8/../../../../include/c++/4.8/ostream:535:0
	movq	%rax, %rdi
.Ltmp330:
	.loc	29 535 0                # /usr/lib/gcc/x86_64-linux-gnu/4.8/../../../../include/c++/4.8/ostream:535:0
	movl	$.L.str, %esi
	movl	$1, %edx
.Ltmp331:
	.loc	29 535 0                # /usr/lib/gcc/x86_64-linux-gnu/4.8/../../../../include/c++/4.8/ostream:535:0
	callq	_ZSt16__ostream_insertIcSt11char_traitsIcEERSt13basic_ostreamIT_T0_ES6_PKS3_l
.Ltmp332:
	.loc	1 9 0                   # main.cc:9:0
	movq	%rbx, %rdi
	movl	$67, %esi
	callq	_ZNSolsEi
.Ltmp333:
	#DEBUG_VALUE: operator<<<std::char_traits<char> >:__out <- RAX+0
	.loc	29 535 0                # /usr/lib/gcc/x86_64-linux-gnu/4.8/../../../../include/c++/4.8/ostream:535:0
	movq	%rax, %rdi
.Ltmp334:
	.loc	29 535 0                # /usr/lib/gcc/x86_64-linux-gnu/4.8/../../../../include/c++/4.8/ostream:535:0
	movl	$.L.str, %esi
	movl	$1, %edx
.Ltmp335:
	.loc	29 535 0                # /usr/lib/gcc/x86_64-linux-gnu/4.8/../../../../include/c++/4.8/ostream:535:0
	callq	_ZSt16__ostream_insertIcSt11char_traitsIcEERSt13basic_ostreamIT_T0_ES6_PKS3_l
.Ltmp336:
	.loc	1 9 0                   # main.cc:9:0
	movq	%rbx, %rdi
	movl	$68, %esi
	callq	_ZNSolsEi
.Ltmp337:
	#DEBUG_VALUE: operator<<<std::char_traits<char> >:__out <- RAX+0
	.loc	29 535 0                # /usr/lib/gcc/x86_64-linux-gnu/4.8/../../../../include/c++/4.8/ostream:535:0
	movq	%rax, %rdi
.Ltmp338:
	.loc	29 535 0                # /usr/lib/gcc/x86_64-linux-gnu/4.8/../../../../include/c++/4.8/ostream:535:0
	movl	$.L.str, %esi
	movl	$1, %edx
.Ltmp339:
	.loc	29 535 0                # /usr/lib/gcc/x86_64-linux-gnu/4.8/../../../../include/c++/4.8/ostream:535:0
	callq	_ZSt16__ostream_insertIcSt11char_traitsIcEERSt13basic_ostreamIT_T0_ES6_PKS3_l
.Ltmp340:
	.loc	1 9 0                   # main.cc:9:0
	movq	%rbx, %rdi
	movl	$69, %esi
	callq	_ZNSolsEi
.Ltmp341:
	#DEBUG_VALUE: operator<<<std::char_traits<char> >:__out <- RAX+0
	.loc	29 535 0                # /usr/lib/gcc/x86_64-linux-gnu/4.8/../../../../include/c++/4.8/ostream:535:0
	movq	%rax, %rdi
.Ltmp342:
	.loc	29 535 0                # /usr/lib/gcc/x86_64-linux-gnu/4.8/../../../../include/c++/4.8/ostream:535:0
	movl	$.L.str, %esi
	movl	$1, %edx
.Ltmp343:
	.loc	29 535 0                # /usr/lib/gcc/x86_64-linux-gnu/4.8/../../../../include/c++/4.8/ostream:535:0
	callq	_ZSt16__ostream_insertIcSt11char_traitsIcEERSt13basic_ostreamIT_T0_ES6_PKS3_l
.Ltmp344:
	.loc	1 9 0                   # main.cc:9:0
	movq	%rbx, %rdi
	movl	$70, %esi
	callq	_ZNSolsEi
.Ltmp345:
	#DEBUG_VALUE: operator<<<std::char_traits<char> >:__out <- RAX+0
	.loc	29 535 0                # /usr/lib/gcc/x86_64-linux-gnu/4.8/../../../../include/c++/4.8/ostream:535:0
	movq	%rax, %rdi
.Ltmp346:
	.loc	29 535 0                # /usr/lib/gcc/x86_64-linux-gnu/4.8/../../../../include/c++/4.8/ostream:535:0
	movl	$.L.str, %esi
	movl	$1, %edx
.Ltmp347:
	.loc	29 535 0                # /usr/lib/gcc/x86_64-linux-gnu/4.8/../../../../include/c++/4.8/ostream:535:0
	callq	_ZSt16__ostream_insertIcSt11char_traitsIcEERSt13basic_ostreamIT_T0_ES6_PKS3_l
.Ltmp348:
	.loc	1 9 0                   # main.cc:9:0
	movq	%rbx, %rdi
	movl	$71, %esi
	callq	_ZNSolsEi
.Ltmp349:
	#DEBUG_VALUE: operator<<<std::char_traits<char> >:__out <- RAX+0
	.loc	29 535 0                # /usr/lib/gcc/x86_64-linux-gnu/4.8/../../../../include/c++/4.8/ostream:535:0
	movq	%rax, %rdi
.Ltmp350:
	.loc	29 535 0                # /usr/lib/gcc/x86_64-linux-gnu/4.8/../../../../include/c++/4.8/ostream:535:0
	movl	$.L.str, %esi
	movl	$1, %edx
.Ltmp351:
	.loc	29 535 0                # /usr/lib/gcc/x86_64-linux-gnu/4.8/../../../../include/c++/4.8/ostream:535:0
	callq	_ZSt16__ostream_insertIcSt11char_traitsIcEERSt13basic_ostreamIT_T0_ES6_PKS3_l
.Ltmp352:
	.loc	1 10 0                  # main.cc:10:0
	movq	%rbx, %rdi
	popq	%rbx
.Ltmp353:
	jmp	_ZN5Forr_IN6libmda8metaprog6detail18loop_iterator_implINS1_4int_ILi72EEENS4_ILi0EEENS4_ILi200EEEEENS3_IS7_S6_S7_EEE5applyERSo # TAILCALL
.Ltmp354:
.Ltmp355:
	.size	_ZN5Forr_IN6libmda8metaprog6detail18loop_iterator_implINS1_4int_ILi64EEENS4_ILi0EEENS4_ILi200EEEEENS3_IS7_S6_S7_EEE5applyERSo, .Ltmp355-_ZN5Forr_IN6libmda8metaprog6detail18loop_iterator_implINS1_4int_ILi64EEENS4_ILi0EEENS4_ILi200EEEEENS3_IS7_S6_S7_EEE5applyERSo
.Lfunc_end9:
	.cfi_endproc

	.section	.text._ZN5Forr_IN6libmda8metaprog6detail18loop_iterator_implINS1_4int_ILi72EEENS4_ILi0EEENS4_ILi200EEEEENS3_IS7_S6_S7_EEE5applyERSo,"axG",@progbits,_ZN5Forr_IN6libmda8metaprog6detail18loop_iterator_implINS1_4int_ILi72EEENS4_ILi0EEENS4_ILi200EEEEENS3_IS7_S6_S7_EEE5applyERSo,comdat
	.weak	_ZN5Forr_IN6libmda8metaprog6detail18loop_iterator_implINS1_4int_ILi72EEENS4_ILi0EEENS4_ILi200EEEEENS3_IS7_S6_S7_EEE5applyERSo
	.align	16, 0x90
	.type	_ZN5Forr_IN6libmda8metaprog6detail18loop_iterator_implINS1_4int_ILi72EEENS4_ILi0EEENS4_ILi200EEEEENS3_IS7_S6_S7_EEE5applyERSo,@function
_ZN5Forr_IN6libmda8metaprog6detail18loop_iterator_implINS1_4int_ILi72EEENS4_ILi0EEENS4_ILi200EEEEENS3_IS7_S6_S7_EEE5applyERSo: # @_ZN5Forr_IN6libmda8metaprog6detail18loop_iterator_implINS1_4int_ILi72EEENS4_ILi0EEENS4_ILi200EEEEENS3_IS7_S6_S7_EEE5applyERSo
	.cfi_startproc
.Lfunc_begin10:
	.loc	1 8 0                   # main.cc:8:0
# BB#0:                                 # %entry
	pushq	%rbx
.Ltmp358:
	.cfi_def_cfa_offset 16
.Ltmp359:
	.cfi_offset %rbx, -16
	#DEBUG_VALUE: apply:aout <- RDI+0
	movq	%rdi, %rbx
.Ltmp360:
	#DEBUG_VALUE: apply:aout <- RBX+0
	#DEBUG_VALUE: apply:aout <- RBX+0
	#DEBUG_VALUE: apply:aout <- RBX+0
	#DEBUG_VALUE: apply:aout <- RBX+0
	#DEBUG_VALUE: apply:aout <- RBX+0
	#DEBUG_VALUE: apply:aout <- RBX+0
	#DEBUG_VALUE: apply:aout <- RBX+0
	#DEBUG_VALUE: apply:aout <- RBX+0
	movl	$72, %esi
	.loc	1 9 0 prologue_end      # main.cc:9:0
.Ltmp361:
	callq	_ZNSolsEi
.Ltmp362:
	#DEBUG_VALUE: operator<<<std::char_traits<char> >:__out <- RAX+0
	#DEBUG_VALUE: length:__s <- undef
	#DEBUG_VALUE: operator<<<std::char_traits<char> >:__s <- undef
	#DEBUG_VALUE: length:__s <- undef
	#DEBUG_VALUE: operator<<<std::char_traits<char> >:__s <- undef
	#DEBUG_VALUE: length:__s <- undef
	#DEBUG_VALUE: operator<<<std::char_traits<char> >:__s <- undef
	#DEBUG_VALUE: length:__s <- undef
	#DEBUG_VALUE: operator<<<std::char_traits<char> >:__s <- undef
	#DEBUG_VALUE: length:__s <- undef
	#DEBUG_VALUE: operator<<<std::char_traits<char> >:__s <- undef
	#DEBUG_VALUE: length:__s <- undef
	#DEBUG_VALUE: operator<<<std::char_traits<char> >:__s <- undef
	#DEBUG_VALUE: length:__s <- undef
	#DEBUG_VALUE: operator<<<std::char_traits<char> >:__s <- undef
	#DEBUG_VALUE: length:__s <- undef
	.loc	29 535 0                # /usr/lib/gcc/x86_64-linux-gnu/4.8/../../../../include/c++/4.8/ostream:535:0
	movq	%rax, %rdi
	movl	$.L.str, %esi
	movl	$1, %edx
	callq	_ZSt16__ostream_insertIcSt11char_traitsIcEERSt13basic_ostreamIT_T0_ES6_PKS3_l
.Ltmp363:
	.loc	1 9 0                   # main.cc:9:0
	movq	%rbx, %rdi
	movl	$73, %esi
	callq	_ZNSolsEi
.Ltmp364:
	#DEBUG_VALUE: operator<<<std::char_traits<char> >:__out <- RAX+0
	.loc	29 535 0                # /usr/lib/gcc/x86_64-linux-gnu/4.8/../../../../include/c++/4.8/ostream:535:0
	movq	%rax, %rdi
.Ltmp365:
	.loc	29 535 0                # /usr/lib/gcc/x86_64-linux-gnu/4.8/../../../../include/c++/4.8/ostream:535:0
	movl	$.L.str, %esi
	movl	$1, %edx
.Ltmp366:
	.loc	29 535 0                # /usr/lib/gcc/x86_64-linux-gnu/4.8/../../../../include/c++/4.8/ostream:535:0
	callq	_ZSt16__ostream_insertIcSt11char_traitsIcEERSt13basic_ostreamIT_T0_ES6_PKS3_l
.Ltmp367:
	.loc	1 9 0                   # main.cc:9:0
	movq	%rbx, %rdi
	movl	$74, %esi
	callq	_ZNSolsEi
.Ltmp368:
	#DEBUG_VALUE: operator<<<std::char_traits<char> >:__out <- RAX+0
	.loc	29 535 0                # /usr/lib/gcc/x86_64-linux-gnu/4.8/../../../../include/c++/4.8/ostream:535:0
	movq	%rax, %rdi
.Ltmp369:
	.loc	29 535 0                # /usr/lib/gcc/x86_64-linux-gnu/4.8/../../../../include/c++/4.8/ostream:535:0
	movl	$.L.str, %esi
	movl	$1, %edx
.Ltmp370:
	.loc	29 535 0                # /usr/lib/gcc/x86_64-linux-gnu/4.8/../../../../include/c++/4.8/ostream:535:0
	callq	_ZSt16__ostream_insertIcSt11char_traitsIcEERSt13basic_ostreamIT_T0_ES6_PKS3_l
.Ltmp371:
	.loc	1 9 0                   # main.cc:9:0
	movq	%rbx, %rdi
	movl	$75, %esi
	callq	_ZNSolsEi
.Ltmp372:
	#DEBUG_VALUE: operator<<<std::char_traits<char> >:__out <- RAX+0
	.loc	29 535 0                # /usr/lib/gcc/x86_64-linux-gnu/4.8/../../../../include/c++/4.8/ostream:535:0
	movq	%rax, %rdi
.Ltmp373:
	.loc	29 535 0                # /usr/lib/gcc/x86_64-linux-gnu/4.8/../../../../include/c++/4.8/ostream:535:0
	movl	$.L.str, %esi
	movl	$1, %edx
.Ltmp374:
	.loc	29 535 0                # /usr/lib/gcc/x86_64-linux-gnu/4.8/../../../../include/c++/4.8/ostream:535:0
	callq	_ZSt16__ostream_insertIcSt11char_traitsIcEERSt13basic_ostreamIT_T0_ES6_PKS3_l
.Ltmp375:
	.loc	1 9 0                   # main.cc:9:0
	movq	%rbx, %rdi
	movl	$76, %esi
	callq	_ZNSolsEi
.Ltmp376:
	#DEBUG_VALUE: operator<<<std::char_traits<char> >:__out <- RAX+0
	.loc	29 535 0                # /usr/lib/gcc/x86_64-linux-gnu/4.8/../../../../include/c++/4.8/ostream:535:0
	movq	%rax, %rdi
.Ltmp377:
	.loc	29 535 0                # /usr/lib/gcc/x86_64-linux-gnu/4.8/../../../../include/c++/4.8/ostream:535:0
	movl	$.L.str, %esi
	movl	$1, %edx
.Ltmp378:
	.loc	29 535 0                # /usr/lib/gcc/x86_64-linux-gnu/4.8/../../../../include/c++/4.8/ostream:535:0
	callq	_ZSt16__ostream_insertIcSt11char_traitsIcEERSt13basic_ostreamIT_T0_ES6_PKS3_l
.Ltmp379:
	.loc	1 9 0                   # main.cc:9:0
	movq	%rbx, %rdi
	movl	$77, %esi
	callq	_ZNSolsEi
.Ltmp380:
	#DEBUG_VALUE: operator<<<std::char_traits<char> >:__out <- RAX+0
	.loc	29 535 0                # /usr/lib/gcc/x86_64-linux-gnu/4.8/../../../../include/c++/4.8/ostream:535:0
	movq	%rax, %rdi
.Ltmp381:
	.loc	29 535 0                # /usr/lib/gcc/x86_64-linux-gnu/4.8/../../../../include/c++/4.8/ostream:535:0
	movl	$.L.str, %esi
	movl	$1, %edx
.Ltmp382:
	.loc	29 535 0                # /usr/lib/gcc/x86_64-linux-gnu/4.8/../../../../include/c++/4.8/ostream:535:0
	callq	_ZSt16__ostream_insertIcSt11char_traitsIcEERSt13basic_ostreamIT_T0_ES6_PKS3_l
.Ltmp383:
	.loc	1 9 0                   # main.cc:9:0
	movq	%rbx, %rdi
	movl	$78, %esi
	callq	_ZNSolsEi
.Ltmp384:
	#DEBUG_VALUE: operator<<<std::char_traits<char> >:__out <- RAX+0
	.loc	29 535 0                # /usr/lib/gcc/x86_64-linux-gnu/4.8/../../../../include/c++/4.8/ostream:535:0
	movq	%rax, %rdi
.Ltmp385:
	.loc	29 535 0                # /usr/lib/gcc/x86_64-linux-gnu/4.8/../../../../include/c++/4.8/ostream:535:0
	movl	$.L.str, %esi
	movl	$1, %edx
.Ltmp386:
	.loc	29 535 0                # /usr/lib/gcc/x86_64-linux-gnu/4.8/../../../../include/c++/4.8/ostream:535:0
	callq	_ZSt16__ostream_insertIcSt11char_traitsIcEERSt13basic_ostreamIT_T0_ES6_PKS3_l
.Ltmp387:
	.loc	1 9 0                   # main.cc:9:0
	movq	%rbx, %rdi
	movl	$79, %esi
	callq	_ZNSolsEi
.Ltmp388:
	#DEBUG_VALUE: operator<<<std::char_traits<char> >:__out <- RAX+0
	.loc	29 535 0                # /usr/lib/gcc/x86_64-linux-gnu/4.8/../../../../include/c++/4.8/ostream:535:0
	movq	%rax, %rdi
.Ltmp389:
	.loc	29 535 0                # /usr/lib/gcc/x86_64-linux-gnu/4.8/../../../../include/c++/4.8/ostream:535:0
	movl	$.L.str, %esi
	movl	$1, %edx
.Ltmp390:
	.loc	29 535 0                # /usr/lib/gcc/x86_64-linux-gnu/4.8/../../../../include/c++/4.8/ostream:535:0
	callq	_ZSt16__ostream_insertIcSt11char_traitsIcEERSt13basic_ostreamIT_T0_ES6_PKS3_l
.Ltmp391:
	.loc	1 10 0                  # main.cc:10:0
	movq	%rbx, %rdi
	popq	%rbx
.Ltmp392:
	jmp	_ZN5Forr_IN6libmda8metaprog6detail18loop_iterator_implINS1_4int_ILi80EEENS4_ILi0EEENS4_ILi200EEEEENS3_IS7_S6_S7_EEE5applyERSo # TAILCALL
.Ltmp393:
.Ltmp394:
	.size	_ZN5Forr_IN6libmda8metaprog6detail18loop_iterator_implINS1_4int_ILi72EEENS4_ILi0EEENS4_ILi200EEEEENS3_IS7_S6_S7_EEE5applyERSo, .Ltmp394-_ZN5Forr_IN6libmda8metaprog6detail18loop_iterator_implINS1_4int_ILi72EEENS4_ILi0EEENS4_ILi200EEEEENS3_IS7_S6_S7_EEE5applyERSo
.Lfunc_end10:
	.cfi_endproc

	.section	.text._ZN5Forr_IN6libmda8metaprog6detail18loop_iterator_implINS1_4int_ILi80EEENS4_ILi0EEENS4_ILi200EEEEENS3_IS7_S6_S7_EEE5applyERSo,"axG",@progbits,_ZN5Forr_IN6libmda8metaprog6detail18loop_iterator_implINS1_4int_ILi80EEENS4_ILi0EEENS4_ILi200EEEEENS3_IS7_S6_S7_EEE5applyERSo,comdat
	.weak	_ZN5Forr_IN6libmda8metaprog6detail18loop_iterator_implINS1_4int_ILi80EEENS4_ILi0EEENS4_ILi200EEEEENS3_IS7_S6_S7_EEE5applyERSo
	.align	16, 0x90
	.type	_ZN5Forr_IN6libmda8metaprog6detail18loop_iterator_implINS1_4int_ILi80EEENS4_ILi0EEENS4_ILi200EEEEENS3_IS7_S6_S7_EEE5applyERSo,@function
_ZN5Forr_IN6libmda8metaprog6detail18loop_iterator_implINS1_4int_ILi80EEENS4_ILi0EEENS4_ILi200EEEEENS3_IS7_S6_S7_EEE5applyERSo: # @_ZN5Forr_IN6libmda8metaprog6detail18loop_iterator_implINS1_4int_ILi80EEENS4_ILi0EEENS4_ILi200EEEEENS3_IS7_S6_S7_EEE5applyERSo
	.cfi_startproc
.Lfunc_begin11:
	.loc	1 8 0                   # main.cc:8:0
# BB#0:                                 # %entry
	pushq	%rbx
.Ltmp397:
	.cfi_def_cfa_offset 16
.Ltmp398:
	.cfi_offset %rbx, -16
	#DEBUG_VALUE: apply:aout <- RDI+0
	movq	%rdi, %rbx
.Ltmp399:
	#DEBUG_VALUE: apply:aout <- RBX+0
	#DEBUG_VALUE: apply:aout <- RBX+0
	#DEBUG_VALUE: apply:aout <- RBX+0
	#DEBUG_VALUE: apply:aout <- RBX+0
	#DEBUG_VALUE: apply:aout <- RBX+0
	#DEBUG_VALUE: apply:aout <- RBX+0
	#DEBUG_VALUE: apply:aout <- RBX+0
	#DEBUG_VALUE: apply:aout <- RBX+0
	movl	$80, %esi
	.loc	1 9 0 prologue_end      # main.cc:9:0
.Ltmp400:
	callq	_ZNSolsEi
.Ltmp401:
	#DEBUG_VALUE: operator<<<std::char_traits<char> >:__out <- RAX+0
	#DEBUG_VALUE: length:__s <- undef
	#DEBUG_VALUE: operator<<<std::char_traits<char> >:__s <- undef
	#DEBUG_VALUE: length:__s <- undef
	#DEBUG_VALUE: operator<<<std::char_traits<char> >:__s <- undef
	#DEBUG_VALUE: length:__s <- undef
	#DEBUG_VALUE: operator<<<std::char_traits<char> >:__s <- undef
	#DEBUG_VALUE: length:__s <- undef
	#DEBUG_VALUE: operator<<<std::char_traits<char> >:__s <- undef
	#DEBUG_VALUE: length:__s <- undef
	#DEBUG_VALUE: operator<<<std::char_traits<char> >:__s <- undef
	#DEBUG_VALUE: length:__s <- undef
	#DEBUG_VALUE: operator<<<std::char_traits<char> >:__s <- undef
	#DEBUG_VALUE: length:__s <- undef
	#DEBUG_VALUE: operator<<<std::char_traits<char> >:__s <- undef
	#DEBUG_VALUE: length:__s <- undef
	.loc	29 535 0                # /usr/lib/gcc/x86_64-linux-gnu/4.8/../../../../include/c++/4.8/ostream:535:0
	movq	%rax, %rdi
	movl	$.L.str, %esi
	movl	$1, %edx
	callq	_ZSt16__ostream_insertIcSt11char_traitsIcEERSt13basic_ostreamIT_T0_ES6_PKS3_l
.Ltmp402:
	.loc	1 9 0                   # main.cc:9:0
	movq	%rbx, %rdi
	movl	$81, %esi
	callq	_ZNSolsEi
.Ltmp403:
	#DEBUG_VALUE: operator<<<std::char_traits<char> >:__out <- RAX+0
	.loc	29 535 0                # /usr/lib/gcc/x86_64-linux-gnu/4.8/../../../../include/c++/4.8/ostream:535:0
	movq	%rax, %rdi
.Ltmp404:
	.loc	29 535 0                # /usr/lib/gcc/x86_64-linux-gnu/4.8/../../../../include/c++/4.8/ostream:535:0
	movl	$.L.str, %esi
	movl	$1, %edx
.Ltmp405:
	.loc	29 535 0                # /usr/lib/gcc/x86_64-linux-gnu/4.8/../../../../include/c++/4.8/ostream:535:0
	callq	_ZSt16__ostream_insertIcSt11char_traitsIcEERSt13basic_ostreamIT_T0_ES6_PKS3_l
.Ltmp406:
	.loc	1 9 0                   # main.cc:9:0
	movq	%rbx, %rdi
	movl	$82, %esi
	callq	_ZNSolsEi
.Ltmp407:
	#DEBUG_VALUE: operator<<<std::char_traits<char> >:__out <- RAX+0
	.loc	29 535 0                # /usr/lib/gcc/x86_64-linux-gnu/4.8/../../../../include/c++/4.8/ostream:535:0
	movq	%rax, %rdi
.Ltmp408:
	.loc	29 535 0                # /usr/lib/gcc/x86_64-linux-gnu/4.8/../../../../include/c++/4.8/ostream:535:0
	movl	$.L.str, %esi
	movl	$1, %edx
.Ltmp409:
	.loc	29 535 0                # /usr/lib/gcc/x86_64-linux-gnu/4.8/../../../../include/c++/4.8/ostream:535:0
	callq	_ZSt16__ostream_insertIcSt11char_traitsIcEERSt13basic_ostreamIT_T0_ES6_PKS3_l
.Ltmp410:
	.loc	1 9 0                   # main.cc:9:0
	movq	%rbx, %rdi
	movl	$83, %esi
	callq	_ZNSolsEi
.Ltmp411:
	#DEBUG_VALUE: operator<<<std::char_traits<char> >:__out <- RAX+0
	.loc	29 535 0                # /usr/lib/gcc/x86_64-linux-gnu/4.8/../../../../include/c++/4.8/ostream:535:0
	movq	%rax, %rdi
.Ltmp412:
	.loc	29 535 0                # /usr/lib/gcc/x86_64-linux-gnu/4.8/../../../../include/c++/4.8/ostream:535:0
	movl	$.L.str, %esi
	movl	$1, %edx
.Ltmp413:
	.loc	29 535 0                # /usr/lib/gcc/x86_64-linux-gnu/4.8/../../../../include/c++/4.8/ostream:535:0
	callq	_ZSt16__ostream_insertIcSt11char_traitsIcEERSt13basic_ostreamIT_T0_ES6_PKS3_l
.Ltmp414:
	.loc	1 9 0                   # main.cc:9:0
	movq	%rbx, %rdi
	movl	$84, %esi
	callq	_ZNSolsEi
.Ltmp415:
	#DEBUG_VALUE: operator<<<std::char_traits<char> >:__out <- RAX+0
	.loc	29 535 0                # /usr/lib/gcc/x86_64-linux-gnu/4.8/../../../../include/c++/4.8/ostream:535:0
	movq	%rax, %rdi
.Ltmp416:
	.loc	29 535 0                # /usr/lib/gcc/x86_64-linux-gnu/4.8/../../../../include/c++/4.8/ostream:535:0
	movl	$.L.str, %esi
	movl	$1, %edx
.Ltmp417:
	.loc	29 535 0                # /usr/lib/gcc/x86_64-linux-gnu/4.8/../../../../include/c++/4.8/ostream:535:0
	callq	_ZSt16__ostream_insertIcSt11char_traitsIcEERSt13basic_ostreamIT_T0_ES6_PKS3_l
.Ltmp418:
	.loc	1 9 0                   # main.cc:9:0
	movq	%rbx, %rdi
	movl	$85, %esi
	callq	_ZNSolsEi
.Ltmp419:
	#DEBUG_VALUE: operator<<<std::char_traits<char> >:__out <- RAX+0
	.loc	29 535 0                # /usr/lib/gcc/x86_64-linux-gnu/4.8/../../../../include/c++/4.8/ostream:535:0
	movq	%rax, %rdi
.Ltmp420:
	.loc	29 535 0                # /usr/lib/gcc/x86_64-linux-gnu/4.8/../../../../include/c++/4.8/ostream:535:0
	movl	$.L.str, %esi
	movl	$1, %edx
.Ltmp421:
	.loc	29 535 0                # /usr/lib/gcc/x86_64-linux-gnu/4.8/../../../../include/c++/4.8/ostream:535:0
	callq	_ZSt16__ostream_insertIcSt11char_traitsIcEERSt13basic_ostreamIT_T0_ES6_PKS3_l
.Ltmp422:
	.loc	1 9 0                   # main.cc:9:0
	movq	%rbx, %rdi
	movl	$86, %esi
	callq	_ZNSolsEi
.Ltmp423:
	#DEBUG_VALUE: operator<<<std::char_traits<char> >:__out <- RAX+0
	.loc	29 535 0                # /usr/lib/gcc/x86_64-linux-gnu/4.8/../../../../include/c++/4.8/ostream:535:0
	movq	%rax, %rdi
.Ltmp424:
	.loc	29 535 0                # /usr/lib/gcc/x86_64-linux-gnu/4.8/../../../../include/c++/4.8/ostream:535:0
	movl	$.L.str, %esi
	movl	$1, %edx
.Ltmp425:
	.loc	29 535 0                # /usr/lib/gcc/x86_64-linux-gnu/4.8/../../../../include/c++/4.8/ostream:535:0
	callq	_ZSt16__ostream_insertIcSt11char_traitsIcEERSt13basic_ostreamIT_T0_ES6_PKS3_l
.Ltmp426:
	.loc	1 9 0                   # main.cc:9:0
	movq	%rbx, %rdi
	movl	$87, %esi
	callq	_ZNSolsEi
.Ltmp427:
	#DEBUG_VALUE: operator<<<std::char_traits<char> >:__out <- RAX+0
	.loc	29 535 0                # /usr/lib/gcc/x86_64-linux-gnu/4.8/../../../../include/c++/4.8/ostream:535:0
	movq	%rax, %rdi
.Ltmp428:
	.loc	29 535 0                # /usr/lib/gcc/x86_64-linux-gnu/4.8/../../../../include/c++/4.8/ostream:535:0
	movl	$.L.str, %esi
	movl	$1, %edx
.Ltmp429:
	.loc	29 535 0                # /usr/lib/gcc/x86_64-linux-gnu/4.8/../../../../include/c++/4.8/ostream:535:0
	callq	_ZSt16__ostream_insertIcSt11char_traitsIcEERSt13basic_ostreamIT_T0_ES6_PKS3_l
.Ltmp430:
	.loc	1 10 0                  # main.cc:10:0
	movq	%rbx, %rdi
	popq	%rbx
.Ltmp431:
	jmp	_ZN5Forr_IN6libmda8metaprog6detail18loop_iterator_implINS1_4int_ILi88EEENS4_ILi0EEENS4_ILi200EEEEENS3_IS7_S6_S7_EEE5applyERSo # TAILCALL
.Ltmp432:
.Ltmp433:
	.size	_ZN5Forr_IN6libmda8metaprog6detail18loop_iterator_implINS1_4int_ILi80EEENS4_ILi0EEENS4_ILi200EEEEENS3_IS7_S6_S7_EEE5applyERSo, .Ltmp433-_ZN5Forr_IN6libmda8metaprog6detail18loop_iterator_implINS1_4int_ILi80EEENS4_ILi0EEENS4_ILi200EEEEENS3_IS7_S6_S7_EEE5applyERSo
.Lfunc_end11:
	.cfi_endproc

	.section	.text._ZN5Forr_IN6libmda8metaprog6detail18loop_iterator_implINS1_4int_ILi88EEENS4_ILi0EEENS4_ILi200EEEEENS3_IS7_S6_S7_EEE5applyERSo,"axG",@progbits,_ZN5Forr_IN6libmda8metaprog6detail18loop_iterator_implINS1_4int_ILi88EEENS4_ILi0EEENS4_ILi200EEEEENS3_IS7_S6_S7_EEE5applyERSo,comdat
	.weak	_ZN5Forr_IN6libmda8metaprog6detail18loop_iterator_implINS1_4int_ILi88EEENS4_ILi0EEENS4_ILi200EEEEENS3_IS7_S6_S7_EEE5applyERSo
	.align	16, 0x90
	.type	_ZN5Forr_IN6libmda8metaprog6detail18loop_iterator_implINS1_4int_ILi88EEENS4_ILi0EEENS4_ILi200EEEEENS3_IS7_S6_S7_EEE5applyERSo,@function
_ZN5Forr_IN6libmda8metaprog6detail18loop_iterator_implINS1_4int_ILi88EEENS4_ILi0EEENS4_ILi200EEEEENS3_IS7_S6_S7_EEE5applyERSo: # @_ZN5Forr_IN6libmda8metaprog6detail18loop_iterator_implINS1_4int_ILi88EEENS4_ILi0EEENS4_ILi200EEEEENS3_IS7_S6_S7_EEE5applyERSo
	.cfi_startproc
.Lfunc_begin12:
	.loc	1 8 0                   # main.cc:8:0
# BB#0:                                 # %entry
	pushq	%rbx
.Ltmp436:
	.cfi_def_cfa_offset 16
.Ltmp437:
	.cfi_offset %rbx, -16
	#DEBUG_VALUE: apply:aout <- RDI+0
	movq	%rdi, %rbx
.Ltmp438:
	#DEBUG_VALUE: apply:aout <- RBX+0
	#DEBUG_VALUE: apply:aout <- RBX+0
	#DEBUG_VALUE: apply:aout <- RBX+0
	#DEBUG_VALUE: apply:aout <- RBX+0
	#DEBUG_VALUE: apply:aout <- RBX+0
	#DEBUG_VALUE: apply:aout <- RBX+0
	#DEBUG_VALUE: apply:aout <- RBX+0
	#DEBUG_VALUE: apply:aout <- RBX+0
	movl	$88, %esi
	.loc	1 9 0 prologue_end      # main.cc:9:0
.Ltmp439:
	callq	_ZNSolsEi
.Ltmp440:
	#DEBUG_VALUE: operator<<<std::char_traits<char> >:__out <- RAX+0
	#DEBUG_VALUE: length:__s <- undef
	#DEBUG_VALUE: operator<<<std::char_traits<char> >:__s <- undef
	#DEBUG_VALUE: length:__s <- undef
	#DEBUG_VALUE: operator<<<std::char_traits<char> >:__s <- undef
	#DEBUG_VALUE: length:__s <- undef
	#DEBUG_VALUE: operator<<<std::char_traits<char> >:__s <- undef
	#DEBUG_VALUE: length:__s <- undef
	#DEBUG_VALUE: operator<<<std::char_traits<char> >:__s <- undef
	#DEBUG_VALUE: length:__s <- undef
	#DEBUG_VALUE: operator<<<std::char_traits<char> >:__s <- undef
	#DEBUG_VALUE: length:__s <- undef
	#DEBUG_VALUE: operator<<<std::char_traits<char> >:__s <- undef
	#DEBUG_VALUE: length:__s <- undef
	#DEBUG_VALUE: operator<<<std::char_traits<char> >:__s <- undef
	#DEBUG_VALUE: length:__s <- undef
	.loc	29 535 0                # /usr/lib/gcc/x86_64-linux-gnu/4.8/../../../../include/c++/4.8/ostream:535:0
	movq	%rax, %rdi
	movl	$.L.str, %esi
	movl	$1, %edx
	callq	_ZSt16__ostream_insertIcSt11char_traitsIcEERSt13basic_ostreamIT_T0_ES6_PKS3_l
.Ltmp441:
	.loc	1 9 0                   # main.cc:9:0
	movq	%rbx, %rdi
	movl	$89, %esi
	callq	_ZNSolsEi
.Ltmp442:
	#DEBUG_VALUE: operator<<<std::char_traits<char> >:__out <- RAX+0
	.loc	29 535 0                # /usr/lib/gcc/x86_64-linux-gnu/4.8/../../../../include/c++/4.8/ostream:535:0
	movq	%rax, %rdi
.Ltmp443:
	.loc	29 535 0                # /usr/lib/gcc/x86_64-linux-gnu/4.8/../../../../include/c++/4.8/ostream:535:0
	movl	$.L.str, %esi
	movl	$1, %edx
.Ltmp444:
	.loc	29 535 0                # /usr/lib/gcc/x86_64-linux-gnu/4.8/../../../../include/c++/4.8/ostream:535:0
	callq	_ZSt16__ostream_insertIcSt11char_traitsIcEERSt13basic_ostreamIT_T0_ES6_PKS3_l
.Ltmp445:
	.loc	1 9 0                   # main.cc:9:0
	movq	%rbx, %rdi
	movl	$90, %esi
	callq	_ZNSolsEi
.Ltmp446:
	#DEBUG_VALUE: operator<<<std::char_traits<char> >:__out <- RAX+0
	.loc	29 535 0                # /usr/lib/gcc/x86_64-linux-gnu/4.8/../../../../include/c++/4.8/ostream:535:0
	movq	%rax, %rdi
.Ltmp447:
	.loc	29 535 0                # /usr/lib/gcc/x86_64-linux-gnu/4.8/../../../../include/c++/4.8/ostream:535:0
	movl	$.L.str, %esi
	movl	$1, %edx
.Ltmp448:
	.loc	29 535 0                # /usr/lib/gcc/x86_64-linux-gnu/4.8/../../../../include/c++/4.8/ostream:535:0
	callq	_ZSt16__ostream_insertIcSt11char_traitsIcEERSt13basic_ostreamIT_T0_ES6_PKS3_l
.Ltmp449:
	.loc	1 9 0                   # main.cc:9:0
	movq	%rbx, %rdi
	movl	$91, %esi
	callq	_ZNSolsEi
.Ltmp450:
	#DEBUG_VALUE: operator<<<std::char_traits<char> >:__out <- RAX+0
	.loc	29 535 0                # /usr/lib/gcc/x86_64-linux-gnu/4.8/../../../../include/c++/4.8/ostream:535:0
	movq	%rax, %rdi
.Ltmp451:
	.loc	29 535 0                # /usr/lib/gcc/x86_64-linux-gnu/4.8/../../../../include/c++/4.8/ostream:535:0
	movl	$.L.str, %esi
	movl	$1, %edx
.Ltmp452:
	.loc	29 535 0                # /usr/lib/gcc/x86_64-linux-gnu/4.8/../../../../include/c++/4.8/ostream:535:0
	callq	_ZSt16__ostream_insertIcSt11char_traitsIcEERSt13basic_ostreamIT_T0_ES6_PKS3_l
.Ltmp453:
	.loc	1 9 0                   # main.cc:9:0
	movq	%rbx, %rdi
	movl	$92, %esi
	callq	_ZNSolsEi
.Ltmp454:
	#DEBUG_VALUE: operator<<<std::char_traits<char> >:__out <- RAX+0
	.loc	29 535 0                # /usr/lib/gcc/x86_64-linux-gnu/4.8/../../../../include/c++/4.8/ostream:535:0
	movq	%rax, %rdi
.Ltmp455:
	.loc	29 535 0                # /usr/lib/gcc/x86_64-linux-gnu/4.8/../../../../include/c++/4.8/ostream:535:0
	movl	$.L.str, %esi
	movl	$1, %edx
.Ltmp456:
	.loc	29 535 0                # /usr/lib/gcc/x86_64-linux-gnu/4.8/../../../../include/c++/4.8/ostream:535:0
	callq	_ZSt16__ostream_insertIcSt11char_traitsIcEERSt13basic_ostreamIT_T0_ES6_PKS3_l
.Ltmp457:
	.loc	1 9 0                   # main.cc:9:0
	movq	%rbx, %rdi
	movl	$93, %esi
	callq	_ZNSolsEi
.Ltmp458:
	#DEBUG_VALUE: operator<<<std::char_traits<char> >:__out <- RAX+0
	.loc	29 535 0                # /usr/lib/gcc/x86_64-linux-gnu/4.8/../../../../include/c++/4.8/ostream:535:0
	movq	%rax, %rdi
.Ltmp459:
	.loc	29 535 0                # /usr/lib/gcc/x86_64-linux-gnu/4.8/../../../../include/c++/4.8/ostream:535:0
	movl	$.L.str, %esi
	movl	$1, %edx
.Ltmp460:
	.loc	29 535 0                # /usr/lib/gcc/x86_64-linux-gnu/4.8/../../../../include/c++/4.8/ostream:535:0
	callq	_ZSt16__ostream_insertIcSt11char_traitsIcEERSt13basic_ostreamIT_T0_ES6_PKS3_l
.Ltmp461:
	.loc	1 9 0                   # main.cc:9:0
	movq	%rbx, %rdi
	movl	$94, %esi
	callq	_ZNSolsEi
.Ltmp462:
	#DEBUG_VALUE: operator<<<std::char_traits<char> >:__out <- RAX+0
	.loc	29 535 0                # /usr/lib/gcc/x86_64-linux-gnu/4.8/../../../../include/c++/4.8/ostream:535:0
	movq	%rax, %rdi
.Ltmp463:
	.loc	29 535 0                # /usr/lib/gcc/x86_64-linux-gnu/4.8/../../../../include/c++/4.8/ostream:535:0
	movl	$.L.str, %esi
	movl	$1, %edx
.Ltmp464:
	.loc	29 535 0                # /usr/lib/gcc/x86_64-linux-gnu/4.8/../../../../include/c++/4.8/ostream:535:0
	callq	_ZSt16__ostream_insertIcSt11char_traitsIcEERSt13basic_ostreamIT_T0_ES6_PKS3_l
.Ltmp465:
	.loc	1 9 0                   # main.cc:9:0
	movq	%rbx, %rdi
	movl	$95, %esi
	callq	_ZNSolsEi
.Ltmp466:
	#DEBUG_VALUE: operator<<<std::char_traits<char> >:__out <- RAX+0
	.loc	29 535 0                # /usr/lib/gcc/x86_64-linux-gnu/4.8/../../../../include/c++/4.8/ostream:535:0
	movq	%rax, %rdi
.Ltmp467:
	.loc	29 535 0                # /usr/lib/gcc/x86_64-linux-gnu/4.8/../../../../include/c++/4.8/ostream:535:0
	movl	$.L.str, %esi
	movl	$1, %edx
.Ltmp468:
	.loc	29 535 0                # /usr/lib/gcc/x86_64-linux-gnu/4.8/../../../../include/c++/4.8/ostream:535:0
	callq	_ZSt16__ostream_insertIcSt11char_traitsIcEERSt13basic_ostreamIT_T0_ES6_PKS3_l
.Ltmp469:
	.loc	1 10 0                  # main.cc:10:0
	movq	%rbx, %rdi
	popq	%rbx
.Ltmp470:
	jmp	_ZN5Forr_IN6libmda8metaprog6detail18loop_iterator_implINS1_4int_ILi96EEENS4_ILi0EEENS4_ILi200EEEEENS3_IS7_S6_S7_EEE5applyERSo # TAILCALL
.Ltmp471:
.Ltmp472:
	.size	_ZN5Forr_IN6libmda8metaprog6detail18loop_iterator_implINS1_4int_ILi88EEENS4_ILi0EEENS4_ILi200EEEEENS3_IS7_S6_S7_EEE5applyERSo, .Ltmp472-_ZN5Forr_IN6libmda8metaprog6detail18loop_iterator_implINS1_4int_ILi88EEENS4_ILi0EEENS4_ILi200EEEEENS3_IS7_S6_S7_EEE5applyERSo
.Lfunc_end12:
	.cfi_endproc

	.section	.text._ZN5Forr_IN6libmda8metaprog6detail18loop_iterator_implINS1_4int_ILi96EEENS4_ILi0EEENS4_ILi200EEEEENS3_IS7_S6_S7_EEE5applyERSo,"axG",@progbits,_ZN5Forr_IN6libmda8metaprog6detail18loop_iterator_implINS1_4int_ILi96EEENS4_ILi0EEENS4_ILi200EEEEENS3_IS7_S6_S7_EEE5applyERSo,comdat
	.weak	_ZN5Forr_IN6libmda8metaprog6detail18loop_iterator_implINS1_4int_ILi96EEENS4_ILi0EEENS4_ILi200EEEEENS3_IS7_S6_S7_EEE5applyERSo
	.align	16, 0x90
	.type	_ZN5Forr_IN6libmda8metaprog6detail18loop_iterator_implINS1_4int_ILi96EEENS4_ILi0EEENS4_ILi200EEEEENS3_IS7_S6_S7_EEE5applyERSo,@function
_ZN5Forr_IN6libmda8metaprog6detail18loop_iterator_implINS1_4int_ILi96EEENS4_ILi0EEENS4_ILi200EEEEENS3_IS7_S6_S7_EEE5applyERSo: # @_ZN5Forr_IN6libmda8metaprog6detail18loop_iterator_implINS1_4int_ILi96EEENS4_ILi0EEENS4_ILi200EEEEENS3_IS7_S6_S7_EEE5applyERSo
	.cfi_startproc
.Lfunc_begin13:
	.loc	1 8 0                   # main.cc:8:0
# BB#0:                                 # %entry
	pushq	%rbx
.Ltmp475:
	.cfi_def_cfa_offset 16
.Ltmp476:
	.cfi_offset %rbx, -16
	#DEBUG_VALUE: apply:aout <- RDI+0
	movq	%rdi, %rbx
.Ltmp477:
	#DEBUG_VALUE: apply:aout <- RBX+0
	#DEBUG_VALUE: apply:aout <- RBX+0
	#DEBUG_VALUE: apply:aout <- RBX+0
	#DEBUG_VALUE: apply:aout <- RBX+0
	#DEBUG_VALUE: apply:aout <- RBX+0
	#DEBUG_VALUE: apply:aout <- RBX+0
	#DEBUG_VALUE: apply:aout <- RBX+0
	#DEBUG_VALUE: apply:aout <- RBX+0
	movl	$96, %esi
	.loc	1 9 0 prologue_end      # main.cc:9:0
.Ltmp478:
	callq	_ZNSolsEi
.Ltmp479:
	#DEBUG_VALUE: operator<<<std::char_traits<char> >:__out <- RAX+0
	#DEBUG_VALUE: length:__s <- undef
	#DEBUG_VALUE: operator<<<std::char_traits<char> >:__s <- undef
	#DEBUG_VALUE: length:__s <- undef
	#DEBUG_VALUE: operator<<<std::char_traits<char> >:__s <- undef
	#DEBUG_VALUE: length:__s <- undef
	#DEBUG_VALUE: operator<<<std::char_traits<char> >:__s <- undef
	#DEBUG_VALUE: length:__s <- undef
	#DEBUG_VALUE: operator<<<std::char_traits<char> >:__s <- undef
	#DEBUG_VALUE: length:__s <- undef
	#DEBUG_VALUE: operator<<<std::char_traits<char> >:__s <- undef
	#DEBUG_VALUE: length:__s <- undef
	#DEBUG_VALUE: operator<<<std::char_traits<char> >:__s <- undef
	#DEBUG_VALUE: length:__s <- undef
	#DEBUG_VALUE: operator<<<std::char_traits<char> >:__s <- undef
	#DEBUG_VALUE: length:__s <- undef
	.loc	29 535 0                # /usr/lib/gcc/x86_64-linux-gnu/4.8/../../../../include/c++/4.8/ostream:535:0
	movq	%rax, %rdi
	movl	$.L.str, %esi
	movl	$1, %edx
	callq	_ZSt16__ostream_insertIcSt11char_traitsIcEERSt13basic_ostreamIT_T0_ES6_PKS3_l
.Ltmp480:
	.loc	1 9 0                   # main.cc:9:0
	movq	%rbx, %rdi
	movl	$97, %esi
	callq	_ZNSolsEi
.Ltmp481:
	#DEBUG_VALUE: operator<<<std::char_traits<char> >:__out <- RAX+0
	.loc	29 535 0                # /usr/lib/gcc/x86_64-linux-gnu/4.8/../../../../include/c++/4.8/ostream:535:0
	movq	%rax, %rdi
.Ltmp482:
	.loc	29 535 0                # /usr/lib/gcc/x86_64-linux-gnu/4.8/../../../../include/c++/4.8/ostream:535:0
	movl	$.L.str, %esi
	movl	$1, %edx
.Ltmp483:
	.loc	29 535 0                # /usr/lib/gcc/x86_64-linux-gnu/4.8/../../../../include/c++/4.8/ostream:535:0
	callq	_ZSt16__ostream_insertIcSt11char_traitsIcEERSt13basic_ostreamIT_T0_ES6_PKS3_l
.Ltmp484:
	.loc	1 9 0                   # main.cc:9:0
	movq	%rbx, %rdi
	movl	$98, %esi
	callq	_ZNSolsEi
.Ltmp485:
	#DEBUG_VALUE: operator<<<std::char_traits<char> >:__out <- RAX+0
	.loc	29 535 0                # /usr/lib/gcc/x86_64-linux-gnu/4.8/../../../../include/c++/4.8/ostream:535:0
	movq	%rax, %rdi
.Ltmp486:
	.loc	29 535 0                # /usr/lib/gcc/x86_64-linux-gnu/4.8/../../../../include/c++/4.8/ostream:535:0
	movl	$.L.str, %esi
	movl	$1, %edx
.Ltmp487:
	.loc	29 535 0                # /usr/lib/gcc/x86_64-linux-gnu/4.8/../../../../include/c++/4.8/ostream:535:0
	callq	_ZSt16__ostream_insertIcSt11char_traitsIcEERSt13basic_ostreamIT_T0_ES6_PKS3_l
.Ltmp488:
	.loc	1 9 0                   # main.cc:9:0
	movq	%rbx, %rdi
	movl	$99, %esi
	callq	_ZNSolsEi
.Ltmp489:
	#DEBUG_VALUE: operator<<<std::char_traits<char> >:__out <- RAX+0
	.loc	29 535 0                # /usr/lib/gcc/x86_64-linux-gnu/4.8/../../../../include/c++/4.8/ostream:535:0
	movq	%rax, %rdi
.Ltmp490:
	.loc	29 535 0                # /usr/lib/gcc/x86_64-linux-gnu/4.8/../../../../include/c++/4.8/ostream:535:0
	movl	$.L.str, %esi
	movl	$1, %edx
.Ltmp491:
	.loc	29 535 0                # /usr/lib/gcc/x86_64-linux-gnu/4.8/../../../../include/c++/4.8/ostream:535:0
	callq	_ZSt16__ostream_insertIcSt11char_traitsIcEERSt13basic_ostreamIT_T0_ES6_PKS3_l
.Ltmp492:
	.loc	1 9 0                   # main.cc:9:0
	movq	%rbx, %rdi
	movl	$100, %esi
	callq	_ZNSolsEi
.Ltmp493:
	#DEBUG_VALUE: operator<<<std::char_traits<char> >:__out <- RAX+0
	.loc	29 535 0                # /usr/lib/gcc/x86_64-linux-gnu/4.8/../../../../include/c++/4.8/ostream:535:0
	movq	%rax, %rdi
.Ltmp494:
	.loc	29 535 0                # /usr/lib/gcc/x86_64-linux-gnu/4.8/../../../../include/c++/4.8/ostream:535:0
	movl	$.L.str, %esi
	movl	$1, %edx
.Ltmp495:
	.loc	29 535 0                # /usr/lib/gcc/x86_64-linux-gnu/4.8/../../../../include/c++/4.8/ostream:535:0
	callq	_ZSt16__ostream_insertIcSt11char_traitsIcEERSt13basic_ostreamIT_T0_ES6_PKS3_l
.Ltmp496:
	.loc	1 9 0                   # main.cc:9:0
	movq	%rbx, %rdi
	movl	$101, %esi
	callq	_ZNSolsEi
.Ltmp497:
	#DEBUG_VALUE: operator<<<std::char_traits<char> >:__out <- RAX+0
	.loc	29 535 0                # /usr/lib/gcc/x86_64-linux-gnu/4.8/../../../../include/c++/4.8/ostream:535:0
	movq	%rax, %rdi
.Ltmp498:
	.loc	29 535 0                # /usr/lib/gcc/x86_64-linux-gnu/4.8/../../../../include/c++/4.8/ostream:535:0
	movl	$.L.str, %esi
	movl	$1, %edx
.Ltmp499:
	.loc	29 535 0                # /usr/lib/gcc/x86_64-linux-gnu/4.8/../../../../include/c++/4.8/ostream:535:0
	callq	_ZSt16__ostream_insertIcSt11char_traitsIcEERSt13basic_ostreamIT_T0_ES6_PKS3_l
.Ltmp500:
	.loc	1 9 0                   # main.cc:9:0
	movq	%rbx, %rdi
	movl	$102, %esi
	callq	_ZNSolsEi
.Ltmp501:
	#DEBUG_VALUE: operator<<<std::char_traits<char> >:__out <- RAX+0
	.loc	29 535 0                # /usr/lib/gcc/x86_64-linux-gnu/4.8/../../../../include/c++/4.8/ostream:535:0
	movq	%rax, %rdi
.Ltmp502:
	.loc	29 535 0                # /usr/lib/gcc/x86_64-linux-gnu/4.8/../../../../include/c++/4.8/ostream:535:0
	movl	$.L.str, %esi
	movl	$1, %edx
.Ltmp503:
	.loc	29 535 0                # /usr/lib/gcc/x86_64-linux-gnu/4.8/../../../../include/c++/4.8/ostream:535:0
	callq	_ZSt16__ostream_insertIcSt11char_traitsIcEERSt13basic_ostreamIT_T0_ES6_PKS3_l
.Ltmp504:
	.loc	1 9 0                   # main.cc:9:0
	movq	%rbx, %rdi
	movl	$103, %esi
	callq	_ZNSolsEi
.Ltmp505:
	#DEBUG_VALUE: operator<<<std::char_traits<char> >:__out <- RAX+0
	.loc	29 535 0                # /usr/lib/gcc/x86_64-linux-gnu/4.8/../../../../include/c++/4.8/ostream:535:0
	movq	%rax, %rdi
.Ltmp506:
	.loc	29 535 0                # /usr/lib/gcc/x86_64-linux-gnu/4.8/../../../../include/c++/4.8/ostream:535:0
	movl	$.L.str, %esi
	movl	$1, %edx
.Ltmp507:
	.loc	29 535 0                # /usr/lib/gcc/x86_64-linux-gnu/4.8/../../../../include/c++/4.8/ostream:535:0
	callq	_ZSt16__ostream_insertIcSt11char_traitsIcEERSt13basic_ostreamIT_T0_ES6_PKS3_l
.Ltmp508:
	.loc	1 10 0                  # main.cc:10:0
	movq	%rbx, %rdi
	popq	%rbx
.Ltmp509:
	jmp	_ZN5Forr_IN6libmda8metaprog6detail18loop_iterator_implINS1_4int_ILi104EEENS4_ILi0EEENS4_ILi200EEEEENS3_IS7_S6_S7_EEE5applyERSo # TAILCALL
.Ltmp510:
.Ltmp511:
	.size	_ZN5Forr_IN6libmda8metaprog6detail18loop_iterator_implINS1_4int_ILi96EEENS4_ILi0EEENS4_ILi200EEEEENS3_IS7_S6_S7_EEE5applyERSo, .Ltmp511-_ZN5Forr_IN6libmda8metaprog6detail18loop_iterator_implINS1_4int_ILi96EEENS4_ILi0EEENS4_ILi200EEEEENS3_IS7_S6_S7_EEE5applyERSo
.Lfunc_end13:
	.cfi_endproc

	.section	.text._ZN5Forr_IN6libmda8metaprog6detail18loop_iterator_implINS1_4int_ILi104EEENS4_ILi0EEENS4_ILi200EEEEENS3_IS7_S6_S7_EEE5applyERSo,"axG",@progbits,_ZN5Forr_IN6libmda8metaprog6detail18loop_iterator_implINS1_4int_ILi104EEENS4_ILi0EEENS4_ILi200EEEEENS3_IS7_S6_S7_EEE5applyERSo,comdat
	.weak	_ZN5Forr_IN6libmda8metaprog6detail18loop_iterator_implINS1_4int_ILi104EEENS4_ILi0EEENS4_ILi200EEEEENS3_IS7_S6_S7_EEE5applyERSo
	.align	16, 0x90
	.type	_ZN5Forr_IN6libmda8metaprog6detail18loop_iterator_implINS1_4int_ILi104EEENS4_ILi0EEENS4_ILi200EEEEENS3_IS7_S6_S7_EEE5applyERSo,@function
_ZN5Forr_IN6libmda8metaprog6detail18loop_iterator_implINS1_4int_ILi104EEENS4_ILi0EEENS4_ILi200EEEEENS3_IS7_S6_S7_EEE5applyERSo: # @_ZN5Forr_IN6libmda8metaprog6detail18loop_iterator_implINS1_4int_ILi104EEENS4_ILi0EEENS4_ILi200EEEEENS3_IS7_S6_S7_EEE5applyERSo
	.cfi_startproc
.Lfunc_begin14:
	.loc	1 8 0                   # main.cc:8:0
# BB#0:                                 # %entry
	pushq	%rbx
.Ltmp514:
	.cfi_def_cfa_offset 16
.Ltmp515:
	.cfi_offset %rbx, -16
	#DEBUG_VALUE: apply:aout <- RDI+0
	movq	%rdi, %rbx
.Ltmp516:
	#DEBUG_VALUE: apply:aout <- RBX+0
	#DEBUG_VALUE: apply:aout <- RBX+0
	#DEBUG_VALUE: apply:aout <- RBX+0
	#DEBUG_VALUE: apply:aout <- RBX+0
	#DEBUG_VALUE: apply:aout <- RBX+0
	#DEBUG_VALUE: apply:aout <- RBX+0
	#DEBUG_VALUE: apply:aout <- RBX+0
	#DEBUG_VALUE: apply:aout <- RBX+0
	movl	$104, %esi
	.loc	1 9 0 prologue_end      # main.cc:9:0
.Ltmp517:
	callq	_ZNSolsEi
.Ltmp518:
	#DEBUG_VALUE: operator<<<std::char_traits<char> >:__out <- RAX+0
	#DEBUG_VALUE: length:__s <- undef
	#DEBUG_VALUE: operator<<<std::char_traits<char> >:__s <- undef
	#DEBUG_VALUE: length:__s <- undef
	#DEBUG_VALUE: operator<<<std::char_traits<char> >:__s <- undef
	#DEBUG_VALUE: length:__s <- undef
	#DEBUG_VALUE: operator<<<std::char_traits<char> >:__s <- undef
	#DEBUG_VALUE: length:__s <- undef
	#DEBUG_VALUE: operator<<<std::char_traits<char> >:__s <- undef
	#DEBUG_VALUE: length:__s <- undef
	#DEBUG_VALUE: operator<<<std::char_traits<char> >:__s <- undef
	#DEBUG_VALUE: length:__s <- undef
	#DEBUG_VALUE: operator<<<std::char_traits<char> >:__s <- undef
	#DEBUG_VALUE: length:__s <- undef
	#DEBUG_VALUE: operator<<<std::char_traits<char> >:__s <- undef
	#DEBUG_VALUE: length:__s <- undef
	.loc	29 535 0                # /usr/lib/gcc/x86_64-linux-gnu/4.8/../../../../include/c++/4.8/ostream:535:0
	movq	%rax, %rdi
	movl	$.L.str, %esi
	movl	$1, %edx
	callq	_ZSt16__ostream_insertIcSt11char_traitsIcEERSt13basic_ostreamIT_T0_ES6_PKS3_l
.Ltmp519:
	.loc	1 9 0                   # main.cc:9:0
	movq	%rbx, %rdi
	movl	$105, %esi
	callq	_ZNSolsEi
.Ltmp520:
	#DEBUG_VALUE: operator<<<std::char_traits<char> >:__out <- RAX+0
	.loc	29 535 0                # /usr/lib/gcc/x86_64-linux-gnu/4.8/../../../../include/c++/4.8/ostream:535:0
	movq	%rax, %rdi
.Ltmp521:
	.loc	29 535 0                # /usr/lib/gcc/x86_64-linux-gnu/4.8/../../../../include/c++/4.8/ostream:535:0
	movl	$.L.str, %esi
	movl	$1, %edx
.Ltmp522:
	.loc	29 535 0                # /usr/lib/gcc/x86_64-linux-gnu/4.8/../../../../include/c++/4.8/ostream:535:0
	callq	_ZSt16__ostream_insertIcSt11char_traitsIcEERSt13basic_ostreamIT_T0_ES6_PKS3_l
.Ltmp523:
	.loc	1 9 0                   # main.cc:9:0
	movq	%rbx, %rdi
	movl	$106, %esi
	callq	_ZNSolsEi
.Ltmp524:
	#DEBUG_VALUE: operator<<<std::char_traits<char> >:__out <- RAX+0
	.loc	29 535 0                # /usr/lib/gcc/x86_64-linux-gnu/4.8/../../../../include/c++/4.8/ostream:535:0
	movq	%rax, %rdi
.Ltmp525:
	.loc	29 535 0                # /usr/lib/gcc/x86_64-linux-gnu/4.8/../../../../include/c++/4.8/ostream:535:0
	movl	$.L.str, %esi
	movl	$1, %edx
.Ltmp526:
	.loc	29 535 0                # /usr/lib/gcc/x86_64-linux-gnu/4.8/../../../../include/c++/4.8/ostream:535:0
	callq	_ZSt16__ostream_insertIcSt11char_traitsIcEERSt13basic_ostreamIT_T0_ES6_PKS3_l
.Ltmp527:
	.loc	1 9 0                   # main.cc:9:0
	movq	%rbx, %rdi
	movl	$107, %esi
	callq	_ZNSolsEi
.Ltmp528:
	#DEBUG_VALUE: operator<<<std::char_traits<char> >:__out <- RAX+0
	.loc	29 535 0                # /usr/lib/gcc/x86_64-linux-gnu/4.8/../../../../include/c++/4.8/ostream:535:0
	movq	%rax, %rdi
.Ltmp529:
	.loc	29 535 0                # /usr/lib/gcc/x86_64-linux-gnu/4.8/../../../../include/c++/4.8/ostream:535:0
	movl	$.L.str, %esi
	movl	$1, %edx
.Ltmp530:
	.loc	29 535 0                # /usr/lib/gcc/x86_64-linux-gnu/4.8/../../../../include/c++/4.8/ostream:535:0
	callq	_ZSt16__ostream_insertIcSt11char_traitsIcEERSt13basic_ostreamIT_T0_ES6_PKS3_l
.Ltmp531:
	.loc	1 9 0                   # main.cc:9:0
	movq	%rbx, %rdi
	movl	$108, %esi
	callq	_ZNSolsEi
.Ltmp532:
	#DEBUG_VALUE: operator<<<std::char_traits<char> >:__out <- RAX+0
	.loc	29 535 0                # /usr/lib/gcc/x86_64-linux-gnu/4.8/../../../../include/c++/4.8/ostream:535:0
	movq	%rax, %rdi
.Ltmp533:
	.loc	29 535 0                # /usr/lib/gcc/x86_64-linux-gnu/4.8/../../../../include/c++/4.8/ostream:535:0
	movl	$.L.str, %esi
	movl	$1, %edx
.Ltmp534:
	.loc	29 535 0                # /usr/lib/gcc/x86_64-linux-gnu/4.8/../../../../include/c++/4.8/ostream:535:0
	callq	_ZSt16__ostream_insertIcSt11char_traitsIcEERSt13basic_ostreamIT_T0_ES6_PKS3_l
.Ltmp535:
	.loc	1 9 0                   # main.cc:9:0
	movq	%rbx, %rdi
	movl	$109, %esi
	callq	_ZNSolsEi
.Ltmp536:
	#DEBUG_VALUE: operator<<<std::char_traits<char> >:__out <- RAX+0
	.loc	29 535 0                # /usr/lib/gcc/x86_64-linux-gnu/4.8/../../../../include/c++/4.8/ostream:535:0
	movq	%rax, %rdi
.Ltmp537:
	.loc	29 535 0                # /usr/lib/gcc/x86_64-linux-gnu/4.8/../../../../include/c++/4.8/ostream:535:0
	movl	$.L.str, %esi
	movl	$1, %edx
.Ltmp538:
	.loc	29 535 0                # /usr/lib/gcc/x86_64-linux-gnu/4.8/../../../../include/c++/4.8/ostream:535:0
	callq	_ZSt16__ostream_insertIcSt11char_traitsIcEERSt13basic_ostreamIT_T0_ES6_PKS3_l
.Ltmp539:
	.loc	1 9 0                   # main.cc:9:0
	movq	%rbx, %rdi
	movl	$110, %esi
	callq	_ZNSolsEi
.Ltmp540:
	#DEBUG_VALUE: operator<<<std::char_traits<char> >:__out <- RAX+0
	.loc	29 535 0                # /usr/lib/gcc/x86_64-linux-gnu/4.8/../../../../include/c++/4.8/ostream:535:0
	movq	%rax, %rdi
.Ltmp541:
	.loc	29 535 0                # /usr/lib/gcc/x86_64-linux-gnu/4.8/../../../../include/c++/4.8/ostream:535:0
	movl	$.L.str, %esi
	movl	$1, %edx
.Ltmp542:
	.loc	29 535 0                # /usr/lib/gcc/x86_64-linux-gnu/4.8/../../../../include/c++/4.8/ostream:535:0
	callq	_ZSt16__ostream_insertIcSt11char_traitsIcEERSt13basic_ostreamIT_T0_ES6_PKS3_l
.Ltmp543:
	.loc	1 9 0                   # main.cc:9:0
	movq	%rbx, %rdi
	movl	$111, %esi
	callq	_ZNSolsEi
.Ltmp544:
	#DEBUG_VALUE: operator<<<std::char_traits<char> >:__out <- RAX+0
	.loc	29 535 0                # /usr/lib/gcc/x86_64-linux-gnu/4.8/../../../../include/c++/4.8/ostream:535:0
	movq	%rax, %rdi
.Ltmp545:
	.loc	29 535 0                # /usr/lib/gcc/x86_64-linux-gnu/4.8/../../../../include/c++/4.8/ostream:535:0
	movl	$.L.str, %esi
	movl	$1, %edx
.Ltmp546:
	.loc	29 535 0                # /usr/lib/gcc/x86_64-linux-gnu/4.8/../../../../include/c++/4.8/ostream:535:0
	callq	_ZSt16__ostream_insertIcSt11char_traitsIcEERSt13basic_ostreamIT_T0_ES6_PKS3_l
.Ltmp547:
	.loc	1 10 0                  # main.cc:10:0
	movq	%rbx, %rdi
	popq	%rbx
.Ltmp548:
	jmp	_ZN5Forr_IN6libmda8metaprog6detail18loop_iterator_implINS1_4int_ILi112EEENS4_ILi0EEENS4_ILi200EEEEENS3_IS7_S6_S7_EEE5applyERSo # TAILCALL
.Ltmp549:
.Ltmp550:
	.size	_ZN5Forr_IN6libmda8metaprog6detail18loop_iterator_implINS1_4int_ILi104EEENS4_ILi0EEENS4_ILi200EEEEENS3_IS7_S6_S7_EEE5applyERSo, .Ltmp550-_ZN5Forr_IN6libmda8metaprog6detail18loop_iterator_implINS1_4int_ILi104EEENS4_ILi0EEENS4_ILi200EEEEENS3_IS7_S6_S7_EEE5applyERSo
.Lfunc_end14:
	.cfi_endproc

	.section	.text._ZN5Forr_IN6libmda8metaprog6detail18loop_iterator_implINS1_4int_ILi112EEENS4_ILi0EEENS4_ILi200EEEEENS3_IS7_S6_S7_EEE5applyERSo,"axG",@progbits,_ZN5Forr_IN6libmda8metaprog6detail18loop_iterator_implINS1_4int_ILi112EEENS4_ILi0EEENS4_ILi200EEEEENS3_IS7_S6_S7_EEE5applyERSo,comdat
	.weak	_ZN5Forr_IN6libmda8metaprog6detail18loop_iterator_implINS1_4int_ILi112EEENS4_ILi0EEENS4_ILi200EEEEENS3_IS7_S6_S7_EEE5applyERSo
	.align	16, 0x90
	.type	_ZN5Forr_IN6libmda8metaprog6detail18loop_iterator_implINS1_4int_ILi112EEENS4_ILi0EEENS4_ILi200EEEEENS3_IS7_S6_S7_EEE5applyERSo,@function
_ZN5Forr_IN6libmda8metaprog6detail18loop_iterator_implINS1_4int_ILi112EEENS4_ILi0EEENS4_ILi200EEEEENS3_IS7_S6_S7_EEE5applyERSo: # @_ZN5Forr_IN6libmda8metaprog6detail18loop_iterator_implINS1_4int_ILi112EEENS4_ILi0EEENS4_ILi200EEEEENS3_IS7_S6_S7_EEE5applyERSo
	.cfi_startproc
.Lfunc_begin15:
	.loc	1 8 0                   # main.cc:8:0
# BB#0:                                 # %entry
	pushq	%rbx
.Ltmp553:
	.cfi_def_cfa_offset 16
.Ltmp554:
	.cfi_offset %rbx, -16
	#DEBUG_VALUE: apply:aout <- RDI+0
	movq	%rdi, %rbx
.Ltmp555:
	#DEBUG_VALUE: apply:aout <- RBX+0
	#DEBUG_VALUE: apply:aout <- RBX+0
	#DEBUG_VALUE: apply:aout <- RBX+0
	#DEBUG_VALUE: apply:aout <- RBX+0
	#DEBUG_VALUE: apply:aout <- RBX+0
	#DEBUG_VALUE: apply:aout <- RBX+0
	#DEBUG_VALUE: apply:aout <- RBX+0
	#DEBUG_VALUE: apply:aout <- RBX+0
	movl	$112, %esi
	.loc	1 9 0 prologue_end      # main.cc:9:0
.Ltmp556:
	callq	_ZNSolsEi
.Ltmp557:
	#DEBUG_VALUE: operator<<<std::char_traits<char> >:__out <- RAX+0
	#DEBUG_VALUE: length:__s <- undef
	#DEBUG_VALUE: operator<<<std::char_traits<char> >:__s <- undef
	#DEBUG_VALUE: length:__s <- undef
	#DEBUG_VALUE: operator<<<std::char_traits<char> >:__s <- undef
	#DEBUG_VALUE: length:__s <- undef
	#DEBUG_VALUE: operator<<<std::char_traits<char> >:__s <- undef
	#DEBUG_VALUE: length:__s <- undef
	#DEBUG_VALUE: operator<<<std::char_traits<char> >:__s <- undef
	#DEBUG_VALUE: length:__s <- undef
	#DEBUG_VALUE: operator<<<std::char_traits<char> >:__s <- undef
	#DEBUG_VALUE: length:__s <- undef
	#DEBUG_VALUE: operator<<<std::char_traits<char> >:__s <- undef
	#DEBUG_VALUE: length:__s <- undef
	#DEBUG_VALUE: operator<<<std::char_traits<char> >:__s <- undef
	#DEBUG_VALUE: length:__s <- undef
	.loc	29 535 0                # /usr/lib/gcc/x86_64-linux-gnu/4.8/../../../../include/c++/4.8/ostream:535:0
	movq	%rax, %rdi
	movl	$.L.str, %esi
	movl	$1, %edx
	callq	_ZSt16__ostream_insertIcSt11char_traitsIcEERSt13basic_ostreamIT_T0_ES6_PKS3_l
.Ltmp558:
	.loc	1 9 0                   # main.cc:9:0
	movq	%rbx, %rdi
	movl	$113, %esi
	callq	_ZNSolsEi
.Ltmp559:
	#DEBUG_VALUE: operator<<<std::char_traits<char> >:__out <- RAX+0
	.loc	29 535 0                # /usr/lib/gcc/x86_64-linux-gnu/4.8/../../../../include/c++/4.8/ostream:535:0
	movq	%rax, %rdi
.Ltmp560:
	.loc	29 535 0                # /usr/lib/gcc/x86_64-linux-gnu/4.8/../../../../include/c++/4.8/ostream:535:0
	movl	$.L.str, %esi
	movl	$1, %edx
.Ltmp561:
	.loc	29 535 0                # /usr/lib/gcc/x86_64-linux-gnu/4.8/../../../../include/c++/4.8/ostream:535:0
	callq	_ZSt16__ostream_insertIcSt11char_traitsIcEERSt13basic_ostreamIT_T0_ES6_PKS3_l
.Ltmp562:
	.loc	1 9 0                   # main.cc:9:0
	movq	%rbx, %rdi
	movl	$114, %esi
	callq	_ZNSolsEi
.Ltmp563:
	#DEBUG_VALUE: operator<<<std::char_traits<char> >:__out <- RAX+0
	.loc	29 535 0                # /usr/lib/gcc/x86_64-linux-gnu/4.8/../../../../include/c++/4.8/ostream:535:0
	movq	%rax, %rdi
.Ltmp564:
	.loc	29 535 0                # /usr/lib/gcc/x86_64-linux-gnu/4.8/../../../../include/c++/4.8/ostream:535:0
	movl	$.L.str, %esi
	movl	$1, %edx
.Ltmp565:
	.loc	29 535 0                # /usr/lib/gcc/x86_64-linux-gnu/4.8/../../../../include/c++/4.8/ostream:535:0
	callq	_ZSt16__ostream_insertIcSt11char_traitsIcEERSt13basic_ostreamIT_T0_ES6_PKS3_l
.Ltmp566:
	.loc	1 9 0                   # main.cc:9:0
	movq	%rbx, %rdi
	movl	$115, %esi
	callq	_ZNSolsEi
.Ltmp567:
	#DEBUG_VALUE: operator<<<std::char_traits<char> >:__out <- RAX+0
	.loc	29 535 0                # /usr/lib/gcc/x86_64-linux-gnu/4.8/../../../../include/c++/4.8/ostream:535:0
	movq	%rax, %rdi
.Ltmp568:
	.loc	29 535 0                # /usr/lib/gcc/x86_64-linux-gnu/4.8/../../../../include/c++/4.8/ostream:535:0
	movl	$.L.str, %esi
	movl	$1, %edx
.Ltmp569:
	.loc	29 535 0                # /usr/lib/gcc/x86_64-linux-gnu/4.8/../../../../include/c++/4.8/ostream:535:0
	callq	_ZSt16__ostream_insertIcSt11char_traitsIcEERSt13basic_ostreamIT_T0_ES6_PKS3_l
.Ltmp570:
	.loc	1 9 0                   # main.cc:9:0
	movq	%rbx, %rdi
	movl	$116, %esi
	callq	_ZNSolsEi
.Ltmp571:
	#DEBUG_VALUE: operator<<<std::char_traits<char> >:__out <- RAX+0
	.loc	29 535 0                # /usr/lib/gcc/x86_64-linux-gnu/4.8/../../../../include/c++/4.8/ostream:535:0
	movq	%rax, %rdi
.Ltmp572:
	.loc	29 535 0                # /usr/lib/gcc/x86_64-linux-gnu/4.8/../../../../include/c++/4.8/ostream:535:0
	movl	$.L.str, %esi
	movl	$1, %edx
.Ltmp573:
	.loc	29 535 0                # /usr/lib/gcc/x86_64-linux-gnu/4.8/../../../../include/c++/4.8/ostream:535:0
	callq	_ZSt16__ostream_insertIcSt11char_traitsIcEERSt13basic_ostreamIT_T0_ES6_PKS3_l
.Ltmp574:
	.loc	1 9 0                   # main.cc:9:0
	movq	%rbx, %rdi
	movl	$117, %esi
	callq	_ZNSolsEi
.Ltmp575:
	#DEBUG_VALUE: operator<<<std::char_traits<char> >:__out <- RAX+0
	.loc	29 535 0                # /usr/lib/gcc/x86_64-linux-gnu/4.8/../../../../include/c++/4.8/ostream:535:0
	movq	%rax, %rdi
.Ltmp576:
	.loc	29 535 0                # /usr/lib/gcc/x86_64-linux-gnu/4.8/../../../../include/c++/4.8/ostream:535:0
	movl	$.L.str, %esi
	movl	$1, %edx
.Ltmp577:
	.loc	29 535 0                # /usr/lib/gcc/x86_64-linux-gnu/4.8/../../../../include/c++/4.8/ostream:535:0
	callq	_ZSt16__ostream_insertIcSt11char_traitsIcEERSt13basic_ostreamIT_T0_ES6_PKS3_l
.Ltmp578:
	.loc	1 9 0                   # main.cc:9:0
	movq	%rbx, %rdi
	movl	$118, %esi
	callq	_ZNSolsEi
.Ltmp579:
	#DEBUG_VALUE: operator<<<std::char_traits<char> >:__out <- RAX+0
	.loc	29 535 0                # /usr/lib/gcc/x86_64-linux-gnu/4.8/../../../../include/c++/4.8/ostream:535:0
	movq	%rax, %rdi
.Ltmp580:
	.loc	29 535 0                # /usr/lib/gcc/x86_64-linux-gnu/4.8/../../../../include/c++/4.8/ostream:535:0
	movl	$.L.str, %esi
	movl	$1, %edx
.Ltmp581:
	.loc	29 535 0                # /usr/lib/gcc/x86_64-linux-gnu/4.8/../../../../include/c++/4.8/ostream:535:0
	callq	_ZSt16__ostream_insertIcSt11char_traitsIcEERSt13basic_ostreamIT_T0_ES6_PKS3_l
.Ltmp582:
	.loc	1 9 0                   # main.cc:9:0
	movq	%rbx, %rdi
	movl	$119, %esi
	callq	_ZNSolsEi
.Ltmp583:
	#DEBUG_VALUE: operator<<<std::char_traits<char> >:__out <- RAX+0
	.loc	29 535 0                # /usr/lib/gcc/x86_64-linux-gnu/4.8/../../../../include/c++/4.8/ostream:535:0
	movq	%rax, %rdi
.Ltmp584:
	.loc	29 535 0                # /usr/lib/gcc/x86_64-linux-gnu/4.8/../../../../include/c++/4.8/ostream:535:0
	movl	$.L.str, %esi
	movl	$1, %edx
.Ltmp585:
	.loc	29 535 0                # /usr/lib/gcc/x86_64-linux-gnu/4.8/../../../../include/c++/4.8/ostream:535:0
	callq	_ZSt16__ostream_insertIcSt11char_traitsIcEERSt13basic_ostreamIT_T0_ES6_PKS3_l
.Ltmp586:
	.loc	1 10 0                  # main.cc:10:0
	movq	%rbx, %rdi
	popq	%rbx
.Ltmp587:
	jmp	_ZN5Forr_IN6libmda8metaprog6detail18loop_iterator_implINS1_4int_ILi120EEENS4_ILi0EEENS4_ILi200EEEEENS3_IS7_S6_S7_EEE5applyERSo # TAILCALL
.Ltmp588:
.Ltmp589:
	.size	_ZN5Forr_IN6libmda8metaprog6detail18loop_iterator_implINS1_4int_ILi112EEENS4_ILi0EEENS4_ILi200EEEEENS3_IS7_S6_S7_EEE5applyERSo, .Ltmp589-_ZN5Forr_IN6libmda8metaprog6detail18loop_iterator_implINS1_4int_ILi112EEENS4_ILi0EEENS4_ILi200EEEEENS3_IS7_S6_S7_EEE5applyERSo
.Lfunc_end15:
	.cfi_endproc

	.section	.text._ZN5Forr_IN6libmda8metaprog6detail18loop_iterator_implINS1_4int_ILi120EEENS4_ILi0EEENS4_ILi200EEEEENS3_IS7_S6_S7_EEE5applyERSo,"axG",@progbits,_ZN5Forr_IN6libmda8metaprog6detail18loop_iterator_implINS1_4int_ILi120EEENS4_ILi0EEENS4_ILi200EEEEENS3_IS7_S6_S7_EEE5applyERSo,comdat
	.weak	_ZN5Forr_IN6libmda8metaprog6detail18loop_iterator_implINS1_4int_ILi120EEENS4_ILi0EEENS4_ILi200EEEEENS3_IS7_S6_S7_EEE5applyERSo
	.align	16, 0x90
	.type	_ZN5Forr_IN6libmda8metaprog6detail18loop_iterator_implINS1_4int_ILi120EEENS4_ILi0EEENS4_ILi200EEEEENS3_IS7_S6_S7_EEE5applyERSo,@function
_ZN5Forr_IN6libmda8metaprog6detail18loop_iterator_implINS1_4int_ILi120EEENS4_ILi0EEENS4_ILi200EEEEENS3_IS7_S6_S7_EEE5applyERSo: # @_ZN5Forr_IN6libmda8metaprog6detail18loop_iterator_implINS1_4int_ILi120EEENS4_ILi0EEENS4_ILi200EEEEENS3_IS7_S6_S7_EEE5applyERSo
	.cfi_startproc
.Lfunc_begin16:
	.loc	1 8 0                   # main.cc:8:0
# BB#0:                                 # %entry
	pushq	%rbx
.Ltmp592:
	.cfi_def_cfa_offset 16
.Ltmp593:
	.cfi_offset %rbx, -16
	#DEBUG_VALUE: apply:aout <- RDI+0
	movq	%rdi, %rbx
.Ltmp594:
	#DEBUG_VALUE: apply:aout <- RBX+0
	#DEBUG_VALUE: apply:aout <- RBX+0
	#DEBUG_VALUE: apply:aout <- RBX+0
	#DEBUG_VALUE: apply:aout <- RBX+0
	#DEBUG_VALUE: apply:aout <- RBX+0
	#DEBUG_VALUE: apply:aout <- RBX+0
	#DEBUG_VALUE: apply:aout <- RBX+0
	#DEBUG_VALUE: apply:aout <- RBX+0
	movl	$120, %esi
	.loc	1 9 0 prologue_end      # main.cc:9:0
.Ltmp595:
	callq	_ZNSolsEi
.Ltmp596:
	#DEBUG_VALUE: operator<<<std::char_traits<char> >:__out <- RAX+0
	#DEBUG_VALUE: length:__s <- undef
	#DEBUG_VALUE: operator<<<std::char_traits<char> >:__s <- undef
	#DEBUG_VALUE: length:__s <- undef
	#DEBUG_VALUE: operator<<<std::char_traits<char> >:__s <- undef
	#DEBUG_VALUE: length:__s <- undef
	#DEBUG_VALUE: operator<<<std::char_traits<char> >:__s <- undef
	#DEBUG_VALUE: length:__s <- undef
	#DEBUG_VALUE: operator<<<std::char_traits<char> >:__s <- undef
	#DEBUG_VALUE: length:__s <- undef
	#DEBUG_VALUE: operator<<<std::char_traits<char> >:__s <- undef
	#DEBUG_VALUE: length:__s <- undef
	#DEBUG_VALUE: operator<<<std::char_traits<char> >:__s <- undef
	#DEBUG_VALUE: length:__s <- undef
	#DEBUG_VALUE: operator<<<std::char_traits<char> >:__s <- undef
	#DEBUG_VALUE: length:__s <- undef
	.loc	29 535 0                # /usr/lib/gcc/x86_64-linux-gnu/4.8/../../../../include/c++/4.8/ostream:535:0
	movq	%rax, %rdi
	movl	$.L.str, %esi
	movl	$1, %edx
	callq	_ZSt16__ostream_insertIcSt11char_traitsIcEERSt13basic_ostreamIT_T0_ES6_PKS3_l
.Ltmp597:
	.loc	1 9 0                   # main.cc:9:0
	movq	%rbx, %rdi
	movl	$121, %esi
	callq	_ZNSolsEi
.Ltmp598:
	#DEBUG_VALUE: operator<<<std::char_traits<char> >:__out <- RAX+0
	.loc	29 535 0                # /usr/lib/gcc/x86_64-linux-gnu/4.8/../../../../include/c++/4.8/ostream:535:0
	movq	%rax, %rdi
.Ltmp599:
	.loc	29 535 0                # /usr/lib/gcc/x86_64-linux-gnu/4.8/../../../../include/c++/4.8/ostream:535:0
	movl	$.L.str, %esi
	movl	$1, %edx
.Ltmp600:
	.loc	29 535 0                # /usr/lib/gcc/x86_64-linux-gnu/4.8/../../../../include/c++/4.8/ostream:535:0
	callq	_ZSt16__ostream_insertIcSt11char_traitsIcEERSt13basic_ostreamIT_T0_ES6_PKS3_l
.Ltmp601:
	.loc	1 9 0                   # main.cc:9:0
	movq	%rbx, %rdi
	movl	$122, %esi
	callq	_ZNSolsEi
.Ltmp602:
	#DEBUG_VALUE: operator<<<std::char_traits<char> >:__out <- RAX+0
	.loc	29 535 0                # /usr/lib/gcc/x86_64-linux-gnu/4.8/../../../../include/c++/4.8/ostream:535:0
	movq	%rax, %rdi
.Ltmp603:
	.loc	29 535 0                # /usr/lib/gcc/x86_64-linux-gnu/4.8/../../../../include/c++/4.8/ostream:535:0
	movl	$.L.str, %esi
	movl	$1, %edx
.Ltmp604:
	.loc	29 535 0                # /usr/lib/gcc/x86_64-linux-gnu/4.8/../../../../include/c++/4.8/ostream:535:0
	callq	_ZSt16__ostream_insertIcSt11char_traitsIcEERSt13basic_ostreamIT_T0_ES6_PKS3_l
.Ltmp605:
	.loc	1 9 0                   # main.cc:9:0
	movq	%rbx, %rdi
	movl	$123, %esi
	callq	_ZNSolsEi
.Ltmp606:
	#DEBUG_VALUE: operator<<<std::char_traits<char> >:__out <- RAX+0
	.loc	29 535 0                # /usr/lib/gcc/x86_64-linux-gnu/4.8/../../../../include/c++/4.8/ostream:535:0
	movq	%rax, %rdi
.Ltmp607:
	.loc	29 535 0                # /usr/lib/gcc/x86_64-linux-gnu/4.8/../../../../include/c++/4.8/ostream:535:0
	movl	$.L.str, %esi
	movl	$1, %edx
.Ltmp608:
	.loc	29 535 0                # /usr/lib/gcc/x86_64-linux-gnu/4.8/../../../../include/c++/4.8/ostream:535:0
	callq	_ZSt16__ostream_insertIcSt11char_traitsIcEERSt13basic_ostreamIT_T0_ES6_PKS3_l
.Ltmp609:
	.loc	1 9 0                   # main.cc:9:0
	movq	%rbx, %rdi
	movl	$124, %esi
	callq	_ZNSolsEi
.Ltmp610:
	#DEBUG_VALUE: operator<<<std::char_traits<char> >:__out <- RAX+0
	.loc	29 535 0                # /usr/lib/gcc/x86_64-linux-gnu/4.8/../../../../include/c++/4.8/ostream:535:0
	movq	%rax, %rdi
.Ltmp611:
	.loc	29 535 0                # /usr/lib/gcc/x86_64-linux-gnu/4.8/../../../../include/c++/4.8/ostream:535:0
	movl	$.L.str, %esi
	movl	$1, %edx
.Ltmp612:
	.loc	29 535 0                # /usr/lib/gcc/x86_64-linux-gnu/4.8/../../../../include/c++/4.8/ostream:535:0
	callq	_ZSt16__ostream_insertIcSt11char_traitsIcEERSt13basic_ostreamIT_T0_ES6_PKS3_l
.Ltmp613:
	.loc	1 9 0                   # main.cc:9:0
	movq	%rbx, %rdi
	movl	$125, %esi
	callq	_ZNSolsEi
.Ltmp614:
	#DEBUG_VALUE: operator<<<std::char_traits<char> >:__out <- RAX+0
	.loc	29 535 0                # /usr/lib/gcc/x86_64-linux-gnu/4.8/../../../../include/c++/4.8/ostream:535:0
	movq	%rax, %rdi
.Ltmp615:
	.loc	29 535 0                # /usr/lib/gcc/x86_64-linux-gnu/4.8/../../../../include/c++/4.8/ostream:535:0
	movl	$.L.str, %esi
	movl	$1, %edx
.Ltmp616:
	.loc	29 535 0                # /usr/lib/gcc/x86_64-linux-gnu/4.8/../../../../include/c++/4.8/ostream:535:0
	callq	_ZSt16__ostream_insertIcSt11char_traitsIcEERSt13basic_ostreamIT_T0_ES6_PKS3_l
.Ltmp617:
	.loc	1 9 0                   # main.cc:9:0
	movq	%rbx, %rdi
	movl	$126, %esi
	callq	_ZNSolsEi
.Ltmp618:
	#DEBUG_VALUE: operator<<<std::char_traits<char> >:__out <- RAX+0
	.loc	29 535 0                # /usr/lib/gcc/x86_64-linux-gnu/4.8/../../../../include/c++/4.8/ostream:535:0
	movq	%rax, %rdi
.Ltmp619:
	.loc	29 535 0                # /usr/lib/gcc/x86_64-linux-gnu/4.8/../../../../include/c++/4.8/ostream:535:0
	movl	$.L.str, %esi
	movl	$1, %edx
.Ltmp620:
	.loc	29 535 0                # /usr/lib/gcc/x86_64-linux-gnu/4.8/../../../../include/c++/4.8/ostream:535:0
	callq	_ZSt16__ostream_insertIcSt11char_traitsIcEERSt13basic_ostreamIT_T0_ES6_PKS3_l
.Ltmp621:
	.loc	1 9 0                   # main.cc:9:0
	movq	%rbx, %rdi
	movl	$127, %esi
	callq	_ZNSolsEi
.Ltmp622:
	#DEBUG_VALUE: operator<<<std::char_traits<char> >:__out <- RAX+0
	.loc	29 535 0                # /usr/lib/gcc/x86_64-linux-gnu/4.8/../../../../include/c++/4.8/ostream:535:0
	movq	%rax, %rdi
.Ltmp623:
	.loc	29 535 0                # /usr/lib/gcc/x86_64-linux-gnu/4.8/../../../../include/c++/4.8/ostream:535:0
	movl	$.L.str, %esi
	movl	$1, %edx
.Ltmp624:
	.loc	29 535 0                # /usr/lib/gcc/x86_64-linux-gnu/4.8/../../../../include/c++/4.8/ostream:535:0
	callq	_ZSt16__ostream_insertIcSt11char_traitsIcEERSt13basic_ostreamIT_T0_ES6_PKS3_l
.Ltmp625:
	.loc	1 10 0                  # main.cc:10:0
	movq	%rbx, %rdi
	popq	%rbx
.Ltmp626:
	jmp	_ZN5Forr_IN6libmda8metaprog6detail18loop_iterator_implINS1_4int_ILi128EEENS4_ILi0EEENS4_ILi200EEEEENS3_IS7_S6_S7_EEE5applyERSo # TAILCALL
.Ltmp627:
.Ltmp628:
	.size	_ZN5Forr_IN6libmda8metaprog6detail18loop_iterator_implINS1_4int_ILi120EEENS4_ILi0EEENS4_ILi200EEEEENS3_IS7_S6_S7_EEE5applyERSo, .Ltmp628-_ZN5Forr_IN6libmda8metaprog6detail18loop_iterator_implINS1_4int_ILi120EEENS4_ILi0EEENS4_ILi200EEEEENS3_IS7_S6_S7_EEE5applyERSo
.Lfunc_end16:
	.cfi_endproc

	.section	.text._ZN5Forr_IN6libmda8metaprog6detail18loop_iterator_implINS1_4int_ILi128EEENS4_ILi0EEENS4_ILi200EEEEENS3_IS7_S6_S7_EEE5applyERSo,"axG",@progbits,_ZN5Forr_IN6libmda8metaprog6detail18loop_iterator_implINS1_4int_ILi128EEENS4_ILi0EEENS4_ILi200EEEEENS3_IS7_S6_S7_EEE5applyERSo,comdat
	.weak	_ZN5Forr_IN6libmda8metaprog6detail18loop_iterator_implINS1_4int_ILi128EEENS4_ILi0EEENS4_ILi200EEEEENS3_IS7_S6_S7_EEE5applyERSo
	.align	16, 0x90
	.type	_ZN5Forr_IN6libmda8metaprog6detail18loop_iterator_implINS1_4int_ILi128EEENS4_ILi0EEENS4_ILi200EEEEENS3_IS7_S6_S7_EEE5applyERSo,@function
_ZN5Forr_IN6libmda8metaprog6detail18loop_iterator_implINS1_4int_ILi128EEENS4_ILi0EEENS4_ILi200EEEEENS3_IS7_S6_S7_EEE5applyERSo: # @_ZN5Forr_IN6libmda8metaprog6detail18loop_iterator_implINS1_4int_ILi128EEENS4_ILi0EEENS4_ILi200EEEEENS3_IS7_S6_S7_EEE5applyERSo
	.cfi_startproc
.Lfunc_begin17:
	.loc	1 8 0                   # main.cc:8:0
# BB#0:                                 # %entry
	pushq	%rbx
.Ltmp631:
	.cfi_def_cfa_offset 16
.Ltmp632:
	.cfi_offset %rbx, -16
	#DEBUG_VALUE: apply:aout <- RDI+0
	movq	%rdi, %rbx
.Ltmp633:
	#DEBUG_VALUE: apply:aout <- RBX+0
	#DEBUG_VALUE: apply:aout <- RBX+0
	#DEBUG_VALUE: apply:aout <- RBX+0
	#DEBUG_VALUE: apply:aout <- RBX+0
	#DEBUG_VALUE: apply:aout <- RBX+0
	#DEBUG_VALUE: apply:aout <- RBX+0
	#DEBUG_VALUE: apply:aout <- RBX+0
	#DEBUG_VALUE: apply:aout <- RBX+0
	movl	$128, %esi
	.loc	1 9 0 prologue_end      # main.cc:9:0
.Ltmp634:
	callq	_ZNSolsEi
.Ltmp635:
	#DEBUG_VALUE: operator<<<std::char_traits<char> >:__out <- RAX+0
	#DEBUG_VALUE: length:__s <- undef
	#DEBUG_VALUE: operator<<<std::char_traits<char> >:__s <- undef
	#DEBUG_VALUE: length:__s <- undef
	#DEBUG_VALUE: operator<<<std::char_traits<char> >:__s <- undef
	#DEBUG_VALUE: length:__s <- undef
	#DEBUG_VALUE: operator<<<std::char_traits<char> >:__s <- undef
	#DEBUG_VALUE: length:__s <- undef
	#DEBUG_VALUE: operator<<<std::char_traits<char> >:__s <- undef
	#DEBUG_VALUE: length:__s <- undef
	#DEBUG_VALUE: operator<<<std::char_traits<char> >:__s <- undef
	#DEBUG_VALUE: length:__s <- undef
	#DEBUG_VALUE: operator<<<std::char_traits<char> >:__s <- undef
	#DEBUG_VALUE: length:__s <- undef
	#DEBUG_VALUE: operator<<<std::char_traits<char> >:__s <- undef
	#DEBUG_VALUE: length:__s <- undef
	.loc	29 535 0                # /usr/lib/gcc/x86_64-linux-gnu/4.8/../../../../include/c++/4.8/ostream:535:0
	movq	%rax, %rdi
	movl	$.L.str, %esi
	movl	$1, %edx
	callq	_ZSt16__ostream_insertIcSt11char_traitsIcEERSt13basic_ostreamIT_T0_ES6_PKS3_l
.Ltmp636:
	.loc	1 9 0                   # main.cc:9:0
	movq	%rbx, %rdi
	movl	$129, %esi
	callq	_ZNSolsEi
.Ltmp637:
	#DEBUG_VALUE: operator<<<std::char_traits<char> >:__out <- RAX+0
	.loc	29 535 0                # /usr/lib/gcc/x86_64-linux-gnu/4.8/../../../../include/c++/4.8/ostream:535:0
	movq	%rax, %rdi
.Ltmp638:
	.loc	29 535 0                # /usr/lib/gcc/x86_64-linux-gnu/4.8/../../../../include/c++/4.8/ostream:535:0
	movl	$.L.str, %esi
	movl	$1, %edx
.Ltmp639:
	.loc	29 535 0                # /usr/lib/gcc/x86_64-linux-gnu/4.8/../../../../include/c++/4.8/ostream:535:0
	callq	_ZSt16__ostream_insertIcSt11char_traitsIcEERSt13basic_ostreamIT_T0_ES6_PKS3_l
.Ltmp640:
	.loc	1 9 0                   # main.cc:9:0
	movq	%rbx, %rdi
	movl	$130, %esi
	callq	_ZNSolsEi
.Ltmp641:
	#DEBUG_VALUE: operator<<<std::char_traits<char> >:__out <- RAX+0
	.loc	29 535 0                # /usr/lib/gcc/x86_64-linux-gnu/4.8/../../../../include/c++/4.8/ostream:535:0
	movq	%rax, %rdi
.Ltmp642:
	.loc	29 535 0                # /usr/lib/gcc/x86_64-linux-gnu/4.8/../../../../include/c++/4.8/ostream:535:0
	movl	$.L.str, %esi
	movl	$1, %edx
.Ltmp643:
	.loc	29 535 0                # /usr/lib/gcc/x86_64-linux-gnu/4.8/../../../../include/c++/4.8/ostream:535:0
	callq	_ZSt16__ostream_insertIcSt11char_traitsIcEERSt13basic_ostreamIT_T0_ES6_PKS3_l
.Ltmp644:
	.loc	1 9 0                   # main.cc:9:0
	movq	%rbx, %rdi
	movl	$131, %esi
	callq	_ZNSolsEi
.Ltmp645:
	#DEBUG_VALUE: operator<<<std::char_traits<char> >:__out <- RAX+0
	.loc	29 535 0                # /usr/lib/gcc/x86_64-linux-gnu/4.8/../../../../include/c++/4.8/ostream:535:0
	movq	%rax, %rdi
.Ltmp646:
	.loc	29 535 0                # /usr/lib/gcc/x86_64-linux-gnu/4.8/../../../../include/c++/4.8/ostream:535:0
	movl	$.L.str, %esi
	movl	$1, %edx
.Ltmp647:
	.loc	29 535 0                # /usr/lib/gcc/x86_64-linux-gnu/4.8/../../../../include/c++/4.8/ostream:535:0
	callq	_ZSt16__ostream_insertIcSt11char_traitsIcEERSt13basic_ostreamIT_T0_ES6_PKS3_l
.Ltmp648:
	.loc	1 9 0                   # main.cc:9:0
	movq	%rbx, %rdi
	movl	$132, %esi
	callq	_ZNSolsEi
.Ltmp649:
	#DEBUG_VALUE: operator<<<std::char_traits<char> >:__out <- RAX+0
	.loc	29 535 0                # /usr/lib/gcc/x86_64-linux-gnu/4.8/../../../../include/c++/4.8/ostream:535:0
	movq	%rax, %rdi
.Ltmp650:
	.loc	29 535 0                # /usr/lib/gcc/x86_64-linux-gnu/4.8/../../../../include/c++/4.8/ostream:535:0
	movl	$.L.str, %esi
	movl	$1, %edx
.Ltmp651:
	.loc	29 535 0                # /usr/lib/gcc/x86_64-linux-gnu/4.8/../../../../include/c++/4.8/ostream:535:0
	callq	_ZSt16__ostream_insertIcSt11char_traitsIcEERSt13basic_ostreamIT_T0_ES6_PKS3_l
.Ltmp652:
	.loc	1 9 0                   # main.cc:9:0
	movq	%rbx, %rdi
	movl	$133, %esi
	callq	_ZNSolsEi
.Ltmp653:
	#DEBUG_VALUE: operator<<<std::char_traits<char> >:__out <- RAX+0
	.loc	29 535 0                # /usr/lib/gcc/x86_64-linux-gnu/4.8/../../../../include/c++/4.8/ostream:535:0
	movq	%rax, %rdi
.Ltmp654:
	.loc	29 535 0                # /usr/lib/gcc/x86_64-linux-gnu/4.8/../../../../include/c++/4.8/ostream:535:0
	movl	$.L.str, %esi
	movl	$1, %edx
.Ltmp655:
	.loc	29 535 0                # /usr/lib/gcc/x86_64-linux-gnu/4.8/../../../../include/c++/4.8/ostream:535:0
	callq	_ZSt16__ostream_insertIcSt11char_traitsIcEERSt13basic_ostreamIT_T0_ES6_PKS3_l
.Ltmp656:
	.loc	1 9 0                   # main.cc:9:0
	movq	%rbx, %rdi
	movl	$134, %esi
	callq	_ZNSolsEi
.Ltmp657:
	#DEBUG_VALUE: operator<<<std::char_traits<char> >:__out <- RAX+0
	.loc	29 535 0                # /usr/lib/gcc/x86_64-linux-gnu/4.8/../../../../include/c++/4.8/ostream:535:0
	movq	%rax, %rdi
.Ltmp658:
	.loc	29 535 0                # /usr/lib/gcc/x86_64-linux-gnu/4.8/../../../../include/c++/4.8/ostream:535:0
	movl	$.L.str, %esi
	movl	$1, %edx
.Ltmp659:
	.loc	29 535 0                # /usr/lib/gcc/x86_64-linux-gnu/4.8/../../../../include/c++/4.8/ostream:535:0
	callq	_ZSt16__ostream_insertIcSt11char_traitsIcEERSt13basic_ostreamIT_T0_ES6_PKS3_l
.Ltmp660:
	.loc	1 9 0                   # main.cc:9:0
	movq	%rbx, %rdi
	movl	$135, %esi
	callq	_ZNSolsEi
.Ltmp661:
	#DEBUG_VALUE: operator<<<std::char_traits<char> >:__out <- RAX+0
	.loc	29 535 0                # /usr/lib/gcc/x86_64-linux-gnu/4.8/../../../../include/c++/4.8/ostream:535:0
	movq	%rax, %rdi
.Ltmp662:
	.loc	29 535 0                # /usr/lib/gcc/x86_64-linux-gnu/4.8/../../../../include/c++/4.8/ostream:535:0
	movl	$.L.str, %esi
	movl	$1, %edx
.Ltmp663:
	.loc	29 535 0                # /usr/lib/gcc/x86_64-linux-gnu/4.8/../../../../include/c++/4.8/ostream:535:0
	callq	_ZSt16__ostream_insertIcSt11char_traitsIcEERSt13basic_ostreamIT_T0_ES6_PKS3_l
.Ltmp664:
	.loc	1 10 0                  # main.cc:10:0
	movq	%rbx, %rdi
	popq	%rbx
.Ltmp665:
	jmp	_ZN5Forr_IN6libmda8metaprog6detail18loop_iterator_implINS1_4int_ILi136EEENS4_ILi0EEENS4_ILi200EEEEENS3_IS7_S6_S7_EEE5applyERSo # TAILCALL
.Ltmp666:
.Ltmp667:
	.size	_ZN5Forr_IN6libmda8metaprog6detail18loop_iterator_implINS1_4int_ILi128EEENS4_ILi0EEENS4_ILi200EEEEENS3_IS7_S6_S7_EEE5applyERSo, .Ltmp667-_ZN5Forr_IN6libmda8metaprog6detail18loop_iterator_implINS1_4int_ILi128EEENS4_ILi0EEENS4_ILi200EEEEENS3_IS7_S6_S7_EEE5applyERSo
.Lfunc_end17:
	.cfi_endproc

	.section	.text._ZN5Forr_IN6libmda8metaprog6detail18loop_iterator_implINS1_4int_ILi136EEENS4_ILi0EEENS4_ILi200EEEEENS3_IS7_S6_S7_EEE5applyERSo,"axG",@progbits,_ZN5Forr_IN6libmda8metaprog6detail18loop_iterator_implINS1_4int_ILi136EEENS4_ILi0EEENS4_ILi200EEEEENS3_IS7_S6_S7_EEE5applyERSo,comdat
	.weak	_ZN5Forr_IN6libmda8metaprog6detail18loop_iterator_implINS1_4int_ILi136EEENS4_ILi0EEENS4_ILi200EEEEENS3_IS7_S6_S7_EEE5applyERSo
	.align	16, 0x90
	.type	_ZN5Forr_IN6libmda8metaprog6detail18loop_iterator_implINS1_4int_ILi136EEENS4_ILi0EEENS4_ILi200EEEEENS3_IS7_S6_S7_EEE5applyERSo,@function
_ZN5Forr_IN6libmda8metaprog6detail18loop_iterator_implINS1_4int_ILi136EEENS4_ILi0EEENS4_ILi200EEEEENS3_IS7_S6_S7_EEE5applyERSo: # @_ZN5Forr_IN6libmda8metaprog6detail18loop_iterator_implINS1_4int_ILi136EEENS4_ILi0EEENS4_ILi200EEEEENS3_IS7_S6_S7_EEE5applyERSo
	.cfi_startproc
.Lfunc_begin18:
	.loc	1 8 0                   # main.cc:8:0
# BB#0:                                 # %entry
	pushq	%rbx
.Ltmp670:
	.cfi_def_cfa_offset 16
.Ltmp671:
	.cfi_offset %rbx, -16
	#DEBUG_VALUE: apply:aout <- RDI+0
	movq	%rdi, %rbx
.Ltmp672:
	#DEBUG_VALUE: apply:aout <- RBX+0
	#DEBUG_VALUE: apply:aout <- RBX+0
	#DEBUG_VALUE: apply:aout <- RBX+0
	#DEBUG_VALUE: apply:aout <- RBX+0
	#DEBUG_VALUE: apply:aout <- RBX+0
	#DEBUG_VALUE: apply:aout <- RBX+0
	#DEBUG_VALUE: apply:aout <- RBX+0
	#DEBUG_VALUE: apply:aout <- RBX+0
	movl	$136, %esi
	.loc	1 9 0 prologue_end      # main.cc:9:0
.Ltmp673:
	callq	_ZNSolsEi
.Ltmp674:
	#DEBUG_VALUE: operator<<<std::char_traits<char> >:__out <- RAX+0
	#DEBUG_VALUE: length:__s <- undef
	#DEBUG_VALUE: operator<<<std::char_traits<char> >:__s <- undef
	#DEBUG_VALUE: length:__s <- undef
	#DEBUG_VALUE: operator<<<std::char_traits<char> >:__s <- undef
	#DEBUG_VALUE: length:__s <- undef
	#DEBUG_VALUE: operator<<<std::char_traits<char> >:__s <- undef
	#DEBUG_VALUE: length:__s <- undef
	#DEBUG_VALUE: operator<<<std::char_traits<char> >:__s <- undef
	#DEBUG_VALUE: length:__s <- undef
	#DEBUG_VALUE: operator<<<std::char_traits<char> >:__s <- undef
	#DEBUG_VALUE: length:__s <- undef
	#DEBUG_VALUE: operator<<<std::char_traits<char> >:__s <- undef
	#DEBUG_VALUE: length:__s <- undef
	#DEBUG_VALUE: operator<<<std::char_traits<char> >:__s <- undef
	#DEBUG_VALUE: length:__s <- undef
	.loc	29 535 0                # /usr/lib/gcc/x86_64-linux-gnu/4.8/../../../../include/c++/4.8/ostream:535:0
	movq	%rax, %rdi
	movl	$.L.str, %esi
	movl	$1, %edx
	callq	_ZSt16__ostream_insertIcSt11char_traitsIcEERSt13basic_ostreamIT_T0_ES6_PKS3_l
.Ltmp675:
	.loc	1 9 0                   # main.cc:9:0
	movq	%rbx, %rdi
	movl	$137, %esi
	callq	_ZNSolsEi
.Ltmp676:
	#DEBUG_VALUE: operator<<<std::char_traits<char> >:__out <- RAX+0
	.loc	29 535 0                # /usr/lib/gcc/x86_64-linux-gnu/4.8/../../../../include/c++/4.8/ostream:535:0
	movq	%rax, %rdi
.Ltmp677:
	.loc	29 535 0                # /usr/lib/gcc/x86_64-linux-gnu/4.8/../../../../include/c++/4.8/ostream:535:0
	movl	$.L.str, %esi
	movl	$1, %edx
.Ltmp678:
	.loc	29 535 0                # /usr/lib/gcc/x86_64-linux-gnu/4.8/../../../../include/c++/4.8/ostream:535:0
	callq	_ZSt16__ostream_insertIcSt11char_traitsIcEERSt13basic_ostreamIT_T0_ES6_PKS3_l
.Ltmp679:
	.loc	1 9 0                   # main.cc:9:0
	movq	%rbx, %rdi
	movl	$138, %esi
	callq	_ZNSolsEi
.Ltmp680:
	#DEBUG_VALUE: operator<<<std::char_traits<char> >:__out <- RAX+0
	.loc	29 535 0                # /usr/lib/gcc/x86_64-linux-gnu/4.8/../../../../include/c++/4.8/ostream:535:0
	movq	%rax, %rdi
.Ltmp681:
	.loc	29 535 0                # /usr/lib/gcc/x86_64-linux-gnu/4.8/../../../../include/c++/4.8/ostream:535:0
	movl	$.L.str, %esi
	movl	$1, %edx
.Ltmp682:
	.loc	29 535 0                # /usr/lib/gcc/x86_64-linux-gnu/4.8/../../../../include/c++/4.8/ostream:535:0
	callq	_ZSt16__ostream_insertIcSt11char_traitsIcEERSt13basic_ostreamIT_T0_ES6_PKS3_l
.Ltmp683:
	.loc	1 9 0                   # main.cc:9:0
	movq	%rbx, %rdi
	movl	$139, %esi
	callq	_ZNSolsEi
.Ltmp684:
	#DEBUG_VALUE: operator<<<std::char_traits<char> >:__out <- RAX+0
	.loc	29 535 0                # /usr/lib/gcc/x86_64-linux-gnu/4.8/../../../../include/c++/4.8/ostream:535:0
	movq	%rax, %rdi
.Ltmp685:
	.loc	29 535 0                # /usr/lib/gcc/x86_64-linux-gnu/4.8/../../../../include/c++/4.8/ostream:535:0
	movl	$.L.str, %esi
	movl	$1, %edx
.Ltmp686:
	.loc	29 535 0                # /usr/lib/gcc/x86_64-linux-gnu/4.8/../../../../include/c++/4.8/ostream:535:0
	callq	_ZSt16__ostream_insertIcSt11char_traitsIcEERSt13basic_ostreamIT_T0_ES6_PKS3_l
.Ltmp687:
	.loc	1 9 0                   # main.cc:9:0
	movq	%rbx, %rdi
	movl	$140, %esi
	callq	_ZNSolsEi
.Ltmp688:
	#DEBUG_VALUE: operator<<<std::char_traits<char> >:__out <- RAX+0
	.loc	29 535 0                # /usr/lib/gcc/x86_64-linux-gnu/4.8/../../../../include/c++/4.8/ostream:535:0
	movq	%rax, %rdi
.Ltmp689:
	.loc	29 535 0                # /usr/lib/gcc/x86_64-linux-gnu/4.8/../../../../include/c++/4.8/ostream:535:0
	movl	$.L.str, %esi
	movl	$1, %edx
.Ltmp690:
	.loc	29 535 0                # /usr/lib/gcc/x86_64-linux-gnu/4.8/../../../../include/c++/4.8/ostream:535:0
	callq	_ZSt16__ostream_insertIcSt11char_traitsIcEERSt13basic_ostreamIT_T0_ES6_PKS3_l
.Ltmp691:
	.loc	1 9 0                   # main.cc:9:0
	movq	%rbx, %rdi
	movl	$141, %esi
	callq	_ZNSolsEi
.Ltmp692:
	#DEBUG_VALUE: operator<<<std::char_traits<char> >:__out <- RAX+0
	.loc	29 535 0                # /usr/lib/gcc/x86_64-linux-gnu/4.8/../../../../include/c++/4.8/ostream:535:0
	movq	%rax, %rdi
.Ltmp693:
	.loc	29 535 0                # /usr/lib/gcc/x86_64-linux-gnu/4.8/../../../../include/c++/4.8/ostream:535:0
	movl	$.L.str, %esi
	movl	$1, %edx
.Ltmp694:
	.loc	29 535 0                # /usr/lib/gcc/x86_64-linux-gnu/4.8/../../../../include/c++/4.8/ostream:535:0
	callq	_ZSt16__ostream_insertIcSt11char_traitsIcEERSt13basic_ostreamIT_T0_ES6_PKS3_l
.Ltmp695:
	.loc	1 9 0                   # main.cc:9:0
	movq	%rbx, %rdi
	movl	$142, %esi
	callq	_ZNSolsEi
.Ltmp696:
	#DEBUG_VALUE: operator<<<std::char_traits<char> >:__out <- RAX+0
	.loc	29 535 0                # /usr/lib/gcc/x86_64-linux-gnu/4.8/../../../../include/c++/4.8/ostream:535:0
	movq	%rax, %rdi
.Ltmp697:
	.loc	29 535 0                # /usr/lib/gcc/x86_64-linux-gnu/4.8/../../../../include/c++/4.8/ostream:535:0
	movl	$.L.str, %esi
	movl	$1, %edx
.Ltmp698:
	.loc	29 535 0                # /usr/lib/gcc/x86_64-linux-gnu/4.8/../../../../include/c++/4.8/ostream:535:0
	callq	_ZSt16__ostream_insertIcSt11char_traitsIcEERSt13basic_ostreamIT_T0_ES6_PKS3_l
.Ltmp699:
	.loc	1 9 0                   # main.cc:9:0
	movq	%rbx, %rdi
	movl	$143, %esi
	callq	_ZNSolsEi
.Ltmp700:
	#DEBUG_VALUE: operator<<<std::char_traits<char> >:__out <- RAX+0
	.loc	29 535 0                # /usr/lib/gcc/x86_64-linux-gnu/4.8/../../../../include/c++/4.8/ostream:535:0
	movq	%rax, %rdi
.Ltmp701:
	.loc	29 535 0                # /usr/lib/gcc/x86_64-linux-gnu/4.8/../../../../include/c++/4.8/ostream:535:0
	movl	$.L.str, %esi
	movl	$1, %edx
.Ltmp702:
	.loc	29 535 0                # /usr/lib/gcc/x86_64-linux-gnu/4.8/../../../../include/c++/4.8/ostream:535:0
	callq	_ZSt16__ostream_insertIcSt11char_traitsIcEERSt13basic_ostreamIT_T0_ES6_PKS3_l
.Ltmp703:
	.loc	1 10 0                  # main.cc:10:0
	movq	%rbx, %rdi
	popq	%rbx
.Ltmp704:
	jmp	_ZN5Forr_IN6libmda8metaprog6detail18loop_iterator_implINS1_4int_ILi144EEENS4_ILi0EEENS4_ILi200EEEEENS3_IS7_S6_S7_EEE5applyERSo # TAILCALL
.Ltmp705:
.Ltmp706:
	.size	_ZN5Forr_IN6libmda8metaprog6detail18loop_iterator_implINS1_4int_ILi136EEENS4_ILi0EEENS4_ILi200EEEEENS3_IS7_S6_S7_EEE5applyERSo, .Ltmp706-_ZN5Forr_IN6libmda8metaprog6detail18loop_iterator_implINS1_4int_ILi136EEENS4_ILi0EEENS4_ILi200EEEEENS3_IS7_S6_S7_EEE5applyERSo
.Lfunc_end18:
	.cfi_endproc

	.section	.text._ZN5Forr_IN6libmda8metaprog6detail18loop_iterator_implINS1_4int_ILi144EEENS4_ILi0EEENS4_ILi200EEEEENS3_IS7_S6_S7_EEE5applyERSo,"axG",@progbits,_ZN5Forr_IN6libmda8metaprog6detail18loop_iterator_implINS1_4int_ILi144EEENS4_ILi0EEENS4_ILi200EEEEENS3_IS7_S6_S7_EEE5applyERSo,comdat
	.weak	_ZN5Forr_IN6libmda8metaprog6detail18loop_iterator_implINS1_4int_ILi144EEENS4_ILi0EEENS4_ILi200EEEEENS3_IS7_S6_S7_EEE5applyERSo
	.align	16, 0x90
	.type	_ZN5Forr_IN6libmda8metaprog6detail18loop_iterator_implINS1_4int_ILi144EEENS4_ILi0EEENS4_ILi200EEEEENS3_IS7_S6_S7_EEE5applyERSo,@function
_ZN5Forr_IN6libmda8metaprog6detail18loop_iterator_implINS1_4int_ILi144EEENS4_ILi0EEENS4_ILi200EEEEENS3_IS7_S6_S7_EEE5applyERSo: # @_ZN5Forr_IN6libmda8metaprog6detail18loop_iterator_implINS1_4int_ILi144EEENS4_ILi0EEENS4_ILi200EEEEENS3_IS7_S6_S7_EEE5applyERSo
	.cfi_startproc
.Lfunc_begin19:
	.loc	1 8 0                   # main.cc:8:0
# BB#0:                                 # %entry
	pushq	%rbx
.Ltmp709:
	.cfi_def_cfa_offset 16
.Ltmp710:
	.cfi_offset %rbx, -16
	#DEBUG_VALUE: apply:aout <- RDI+0
	movq	%rdi, %rbx
.Ltmp711:
	#DEBUG_VALUE: apply:aout <- RBX+0
	#DEBUG_VALUE: apply:aout <- RBX+0
	#DEBUG_VALUE: apply:aout <- RBX+0
	#DEBUG_VALUE: apply:aout <- RBX+0
	#DEBUG_VALUE: apply:aout <- RBX+0
	#DEBUG_VALUE: apply:aout <- RBX+0
	#DEBUG_VALUE: apply:aout <- RBX+0
	#DEBUG_VALUE: apply:aout <- RBX+0
	movl	$144, %esi
	.loc	1 9 0 prologue_end      # main.cc:9:0
.Ltmp712:
	callq	_ZNSolsEi
.Ltmp713:
	#DEBUG_VALUE: operator<<<std::char_traits<char> >:__out <- RAX+0
	#DEBUG_VALUE: length:__s <- undef
	#DEBUG_VALUE: operator<<<std::char_traits<char> >:__s <- undef
	#DEBUG_VALUE: length:__s <- undef
	#DEBUG_VALUE: operator<<<std::char_traits<char> >:__s <- undef
	#DEBUG_VALUE: length:__s <- undef
	#DEBUG_VALUE: operator<<<std::char_traits<char> >:__s <- undef
	#DEBUG_VALUE: length:__s <- undef
	#DEBUG_VALUE: operator<<<std::char_traits<char> >:__s <- undef
	#DEBUG_VALUE: length:__s <- undef
	#DEBUG_VALUE: operator<<<std::char_traits<char> >:__s <- undef
	#DEBUG_VALUE: length:__s <- undef
	#DEBUG_VALUE: operator<<<std::char_traits<char> >:__s <- undef
	#DEBUG_VALUE: length:__s <- undef
	#DEBUG_VALUE: operator<<<std::char_traits<char> >:__s <- undef
	#DEBUG_VALUE: length:__s <- undef
	.loc	29 535 0                # /usr/lib/gcc/x86_64-linux-gnu/4.8/../../../../include/c++/4.8/ostream:535:0
	movq	%rax, %rdi
	movl	$.L.str, %esi
	movl	$1, %edx
	callq	_ZSt16__ostream_insertIcSt11char_traitsIcEERSt13basic_ostreamIT_T0_ES6_PKS3_l
.Ltmp714:
	.loc	1 9 0                   # main.cc:9:0
	movq	%rbx, %rdi
	movl	$145, %esi
	callq	_ZNSolsEi
.Ltmp715:
	#DEBUG_VALUE: operator<<<std::char_traits<char> >:__out <- RAX+0
	.loc	29 535 0                # /usr/lib/gcc/x86_64-linux-gnu/4.8/../../../../include/c++/4.8/ostream:535:0
	movq	%rax, %rdi
.Ltmp716:
	.loc	29 535 0                # /usr/lib/gcc/x86_64-linux-gnu/4.8/../../../../include/c++/4.8/ostream:535:0
	movl	$.L.str, %esi
	movl	$1, %edx
.Ltmp717:
	.loc	29 535 0                # /usr/lib/gcc/x86_64-linux-gnu/4.8/../../../../include/c++/4.8/ostream:535:0
	callq	_ZSt16__ostream_insertIcSt11char_traitsIcEERSt13basic_ostreamIT_T0_ES6_PKS3_l
.Ltmp718:
	.loc	1 9 0                   # main.cc:9:0
	movq	%rbx, %rdi
	movl	$146, %esi
	callq	_ZNSolsEi
.Ltmp719:
	#DEBUG_VALUE: operator<<<std::char_traits<char> >:__out <- RAX+0
	.loc	29 535 0                # /usr/lib/gcc/x86_64-linux-gnu/4.8/../../../../include/c++/4.8/ostream:535:0
	movq	%rax, %rdi
.Ltmp720:
	.loc	29 535 0                # /usr/lib/gcc/x86_64-linux-gnu/4.8/../../../../include/c++/4.8/ostream:535:0
	movl	$.L.str, %esi
	movl	$1, %edx
.Ltmp721:
	.loc	29 535 0                # /usr/lib/gcc/x86_64-linux-gnu/4.8/../../../../include/c++/4.8/ostream:535:0
	callq	_ZSt16__ostream_insertIcSt11char_traitsIcEERSt13basic_ostreamIT_T0_ES6_PKS3_l
.Ltmp722:
	.loc	1 9 0                   # main.cc:9:0
	movq	%rbx, %rdi
	movl	$147, %esi
	callq	_ZNSolsEi
.Ltmp723:
	#DEBUG_VALUE: operator<<<std::char_traits<char> >:__out <- RAX+0
	.loc	29 535 0                # /usr/lib/gcc/x86_64-linux-gnu/4.8/../../../../include/c++/4.8/ostream:535:0
	movq	%rax, %rdi
.Ltmp724:
	.loc	29 535 0                # /usr/lib/gcc/x86_64-linux-gnu/4.8/../../../../include/c++/4.8/ostream:535:0
	movl	$.L.str, %esi
	movl	$1, %edx
.Ltmp725:
	.loc	29 535 0                # /usr/lib/gcc/x86_64-linux-gnu/4.8/../../../../include/c++/4.8/ostream:535:0
	callq	_ZSt16__ostream_insertIcSt11char_traitsIcEERSt13basic_ostreamIT_T0_ES6_PKS3_l
.Ltmp726:
	.loc	1 9 0                   # main.cc:9:0
	movq	%rbx, %rdi
	movl	$148, %esi
	callq	_ZNSolsEi
.Ltmp727:
	#DEBUG_VALUE: operator<<<std::char_traits<char> >:__out <- RAX+0
	.loc	29 535 0                # /usr/lib/gcc/x86_64-linux-gnu/4.8/../../../../include/c++/4.8/ostream:535:0
	movq	%rax, %rdi
.Ltmp728:
	.loc	29 535 0                # /usr/lib/gcc/x86_64-linux-gnu/4.8/../../../../include/c++/4.8/ostream:535:0
	movl	$.L.str, %esi
	movl	$1, %edx
.Ltmp729:
	.loc	29 535 0                # /usr/lib/gcc/x86_64-linux-gnu/4.8/../../../../include/c++/4.8/ostream:535:0
	callq	_ZSt16__ostream_insertIcSt11char_traitsIcEERSt13basic_ostreamIT_T0_ES6_PKS3_l
.Ltmp730:
	.loc	1 9 0                   # main.cc:9:0
	movq	%rbx, %rdi
	movl	$149, %esi
	callq	_ZNSolsEi
.Ltmp731:
	#DEBUG_VALUE: operator<<<std::char_traits<char> >:__out <- RAX+0
	.loc	29 535 0                # /usr/lib/gcc/x86_64-linux-gnu/4.8/../../../../include/c++/4.8/ostream:535:0
	movq	%rax, %rdi
.Ltmp732:
	.loc	29 535 0                # /usr/lib/gcc/x86_64-linux-gnu/4.8/../../../../include/c++/4.8/ostream:535:0
	movl	$.L.str, %esi
	movl	$1, %edx
.Ltmp733:
	.loc	29 535 0                # /usr/lib/gcc/x86_64-linux-gnu/4.8/../../../../include/c++/4.8/ostream:535:0
	callq	_ZSt16__ostream_insertIcSt11char_traitsIcEERSt13basic_ostreamIT_T0_ES6_PKS3_l
.Ltmp734:
	.loc	1 9 0                   # main.cc:9:0
	movq	%rbx, %rdi
	movl	$150, %esi
	callq	_ZNSolsEi
.Ltmp735:
	#DEBUG_VALUE: operator<<<std::char_traits<char> >:__out <- RAX+0
	.loc	29 535 0                # /usr/lib/gcc/x86_64-linux-gnu/4.8/../../../../include/c++/4.8/ostream:535:0
	movq	%rax, %rdi
.Ltmp736:
	.loc	29 535 0                # /usr/lib/gcc/x86_64-linux-gnu/4.8/../../../../include/c++/4.8/ostream:535:0
	movl	$.L.str, %esi
	movl	$1, %edx
.Ltmp737:
	.loc	29 535 0                # /usr/lib/gcc/x86_64-linux-gnu/4.8/../../../../include/c++/4.8/ostream:535:0
	callq	_ZSt16__ostream_insertIcSt11char_traitsIcEERSt13basic_ostreamIT_T0_ES6_PKS3_l
.Ltmp738:
	.loc	1 9 0                   # main.cc:9:0
	movq	%rbx, %rdi
	movl	$151, %esi
	callq	_ZNSolsEi
.Ltmp739:
	#DEBUG_VALUE: operator<<<std::char_traits<char> >:__out <- RAX+0
	.loc	29 535 0                # /usr/lib/gcc/x86_64-linux-gnu/4.8/../../../../include/c++/4.8/ostream:535:0
	movq	%rax, %rdi
.Ltmp740:
	.loc	29 535 0                # /usr/lib/gcc/x86_64-linux-gnu/4.8/../../../../include/c++/4.8/ostream:535:0
	movl	$.L.str, %esi
	movl	$1, %edx
.Ltmp741:
	.loc	29 535 0                # /usr/lib/gcc/x86_64-linux-gnu/4.8/../../../../include/c++/4.8/ostream:535:0
	callq	_ZSt16__ostream_insertIcSt11char_traitsIcEERSt13basic_ostreamIT_T0_ES6_PKS3_l
.Ltmp742:
	.loc	1 10 0                  # main.cc:10:0
	movq	%rbx, %rdi
	popq	%rbx
.Ltmp743:
	jmp	_ZN5Forr_IN6libmda8metaprog6detail18loop_iterator_implINS1_4int_ILi152EEENS4_ILi0EEENS4_ILi200EEEEENS3_IS7_S6_S7_EEE5applyERSo # TAILCALL
.Ltmp744:
.Ltmp745:
	.size	_ZN5Forr_IN6libmda8metaprog6detail18loop_iterator_implINS1_4int_ILi144EEENS4_ILi0EEENS4_ILi200EEEEENS3_IS7_S6_S7_EEE5applyERSo, .Ltmp745-_ZN5Forr_IN6libmda8metaprog6detail18loop_iterator_implINS1_4int_ILi144EEENS4_ILi0EEENS4_ILi200EEEEENS3_IS7_S6_S7_EEE5applyERSo
.Lfunc_end19:
	.cfi_endproc

	.section	.text._ZN5Forr_IN6libmda8metaprog6detail18loop_iterator_implINS1_4int_ILi152EEENS4_ILi0EEENS4_ILi200EEEEENS3_IS7_S6_S7_EEE5applyERSo,"axG",@progbits,_ZN5Forr_IN6libmda8metaprog6detail18loop_iterator_implINS1_4int_ILi152EEENS4_ILi0EEENS4_ILi200EEEEENS3_IS7_S6_S7_EEE5applyERSo,comdat
	.weak	_ZN5Forr_IN6libmda8metaprog6detail18loop_iterator_implINS1_4int_ILi152EEENS4_ILi0EEENS4_ILi200EEEEENS3_IS7_S6_S7_EEE5applyERSo
	.align	16, 0x90
	.type	_ZN5Forr_IN6libmda8metaprog6detail18loop_iterator_implINS1_4int_ILi152EEENS4_ILi0EEENS4_ILi200EEEEENS3_IS7_S6_S7_EEE5applyERSo,@function
_ZN5Forr_IN6libmda8metaprog6detail18loop_iterator_implINS1_4int_ILi152EEENS4_ILi0EEENS4_ILi200EEEEENS3_IS7_S6_S7_EEE5applyERSo: # @_ZN5Forr_IN6libmda8metaprog6detail18loop_iterator_implINS1_4int_ILi152EEENS4_ILi0EEENS4_ILi200EEEEENS3_IS7_S6_S7_EEE5applyERSo
	.cfi_startproc
.Lfunc_begin20:
	.loc	1 8 0                   # main.cc:8:0
# BB#0:                                 # %entry
	pushq	%rbx
.Ltmp748:
	.cfi_def_cfa_offset 16
.Ltmp749:
	.cfi_offset %rbx, -16
	#DEBUG_VALUE: apply:aout <- RDI+0
	movq	%rdi, %rbx
.Ltmp750:
	#DEBUG_VALUE: apply:aout <- RBX+0
	#DEBUG_VALUE: apply:aout <- RBX+0
	#DEBUG_VALUE: apply:aout <- RBX+0
	#DEBUG_VALUE: apply:aout <- RBX+0
	#DEBUG_VALUE: apply:aout <- RBX+0
	#DEBUG_VALUE: apply:aout <- RBX+0
	#DEBUG_VALUE: apply:aout <- RBX+0
	#DEBUG_VALUE: apply:aout <- RBX+0
	movl	$152, %esi
	.loc	1 9 0 prologue_end      # main.cc:9:0
.Ltmp751:
	callq	_ZNSolsEi
.Ltmp752:
	#DEBUG_VALUE: operator<<<std::char_traits<char> >:__out <- RAX+0
	#DEBUG_VALUE: length:__s <- undef
	#DEBUG_VALUE: operator<<<std::char_traits<char> >:__s <- undef
	#DEBUG_VALUE: length:__s <- undef
	#DEBUG_VALUE: operator<<<std::char_traits<char> >:__s <- undef
	#DEBUG_VALUE: length:__s <- undef
	#DEBUG_VALUE: operator<<<std::char_traits<char> >:__s <- undef
	#DEBUG_VALUE: length:__s <- undef
	#DEBUG_VALUE: operator<<<std::char_traits<char> >:__s <- undef
	#DEBUG_VALUE: length:__s <- undef
	#DEBUG_VALUE: operator<<<std::char_traits<char> >:__s <- undef
	#DEBUG_VALUE: length:__s <- undef
	#DEBUG_VALUE: operator<<<std::char_traits<char> >:__s <- undef
	#DEBUG_VALUE: length:__s <- undef
	#DEBUG_VALUE: operator<<<std::char_traits<char> >:__s <- undef
	#DEBUG_VALUE: length:__s <- undef
	.loc	29 535 0                # /usr/lib/gcc/x86_64-linux-gnu/4.8/../../../../include/c++/4.8/ostream:535:0
	movq	%rax, %rdi
	movl	$.L.str, %esi
	movl	$1, %edx
	callq	_ZSt16__ostream_insertIcSt11char_traitsIcEERSt13basic_ostreamIT_T0_ES6_PKS3_l
.Ltmp753:
	.loc	1 9 0                   # main.cc:9:0
	movq	%rbx, %rdi
	movl	$153, %esi
	callq	_ZNSolsEi
.Ltmp754:
	#DEBUG_VALUE: operator<<<std::char_traits<char> >:__out <- RAX+0
	.loc	29 535 0                # /usr/lib/gcc/x86_64-linux-gnu/4.8/../../../../include/c++/4.8/ostream:535:0
	movq	%rax, %rdi
.Ltmp755:
	.loc	29 535 0                # /usr/lib/gcc/x86_64-linux-gnu/4.8/../../../../include/c++/4.8/ostream:535:0
	movl	$.L.str, %esi
	movl	$1, %edx
.Ltmp756:
	.loc	29 535 0                # /usr/lib/gcc/x86_64-linux-gnu/4.8/../../../../include/c++/4.8/ostream:535:0
	callq	_ZSt16__ostream_insertIcSt11char_traitsIcEERSt13basic_ostreamIT_T0_ES6_PKS3_l
.Ltmp757:
	.loc	1 9 0                   # main.cc:9:0
	movq	%rbx, %rdi
	movl	$154, %esi
	callq	_ZNSolsEi
.Ltmp758:
	#DEBUG_VALUE: operator<<<std::char_traits<char> >:__out <- RAX+0
	.loc	29 535 0                # /usr/lib/gcc/x86_64-linux-gnu/4.8/../../../../include/c++/4.8/ostream:535:0
	movq	%rax, %rdi
.Ltmp759:
	.loc	29 535 0                # /usr/lib/gcc/x86_64-linux-gnu/4.8/../../../../include/c++/4.8/ostream:535:0
	movl	$.L.str, %esi
	movl	$1, %edx
.Ltmp760:
	.loc	29 535 0                # /usr/lib/gcc/x86_64-linux-gnu/4.8/../../../../include/c++/4.8/ostream:535:0
	callq	_ZSt16__ostream_insertIcSt11char_traitsIcEERSt13basic_ostreamIT_T0_ES6_PKS3_l
.Ltmp761:
	.loc	1 9 0                   # main.cc:9:0
	movq	%rbx, %rdi
	movl	$155, %esi
	callq	_ZNSolsEi
.Ltmp762:
	#DEBUG_VALUE: operator<<<std::char_traits<char> >:__out <- RAX+0
	.loc	29 535 0                # /usr/lib/gcc/x86_64-linux-gnu/4.8/../../../../include/c++/4.8/ostream:535:0
	movq	%rax, %rdi
.Ltmp763:
	.loc	29 535 0                # /usr/lib/gcc/x86_64-linux-gnu/4.8/../../../../include/c++/4.8/ostream:535:0
	movl	$.L.str, %esi
	movl	$1, %edx
.Ltmp764:
	.loc	29 535 0                # /usr/lib/gcc/x86_64-linux-gnu/4.8/../../../../include/c++/4.8/ostream:535:0
	callq	_ZSt16__ostream_insertIcSt11char_traitsIcEERSt13basic_ostreamIT_T0_ES6_PKS3_l
.Ltmp765:
	.loc	1 9 0                   # main.cc:9:0
	movq	%rbx, %rdi
	movl	$156, %esi
	callq	_ZNSolsEi
.Ltmp766:
	#DEBUG_VALUE: operator<<<std::char_traits<char> >:__out <- RAX+0
	.loc	29 535 0                # /usr/lib/gcc/x86_64-linux-gnu/4.8/../../../../include/c++/4.8/ostream:535:0
	movq	%rax, %rdi
.Ltmp767:
	.loc	29 535 0                # /usr/lib/gcc/x86_64-linux-gnu/4.8/../../../../include/c++/4.8/ostream:535:0
	movl	$.L.str, %esi
	movl	$1, %edx
.Ltmp768:
	.loc	29 535 0                # /usr/lib/gcc/x86_64-linux-gnu/4.8/../../../../include/c++/4.8/ostream:535:0
	callq	_ZSt16__ostream_insertIcSt11char_traitsIcEERSt13basic_ostreamIT_T0_ES6_PKS3_l
.Ltmp769:
	.loc	1 9 0                   # main.cc:9:0
	movq	%rbx, %rdi
	movl	$157, %esi
	callq	_ZNSolsEi
.Ltmp770:
	#DEBUG_VALUE: operator<<<std::char_traits<char> >:__out <- RAX+0
	.loc	29 535 0                # /usr/lib/gcc/x86_64-linux-gnu/4.8/../../../../include/c++/4.8/ostream:535:0
	movq	%rax, %rdi
.Ltmp771:
	.loc	29 535 0                # /usr/lib/gcc/x86_64-linux-gnu/4.8/../../../../include/c++/4.8/ostream:535:0
	movl	$.L.str, %esi
	movl	$1, %edx
.Ltmp772:
	.loc	29 535 0                # /usr/lib/gcc/x86_64-linux-gnu/4.8/../../../../include/c++/4.8/ostream:535:0
	callq	_ZSt16__ostream_insertIcSt11char_traitsIcEERSt13basic_ostreamIT_T0_ES6_PKS3_l
.Ltmp773:
	.loc	1 9 0                   # main.cc:9:0
	movq	%rbx, %rdi
	movl	$158, %esi
	callq	_ZNSolsEi
.Ltmp774:
	#DEBUG_VALUE: operator<<<std::char_traits<char> >:__out <- RAX+0
	.loc	29 535 0                # /usr/lib/gcc/x86_64-linux-gnu/4.8/../../../../include/c++/4.8/ostream:535:0
	movq	%rax, %rdi
.Ltmp775:
	.loc	29 535 0                # /usr/lib/gcc/x86_64-linux-gnu/4.8/../../../../include/c++/4.8/ostream:535:0
	movl	$.L.str, %esi
	movl	$1, %edx
.Ltmp776:
	.loc	29 535 0                # /usr/lib/gcc/x86_64-linux-gnu/4.8/../../../../include/c++/4.8/ostream:535:0
	callq	_ZSt16__ostream_insertIcSt11char_traitsIcEERSt13basic_ostreamIT_T0_ES6_PKS3_l
.Ltmp777:
	.loc	1 9 0                   # main.cc:9:0
	movq	%rbx, %rdi
	movl	$159, %esi
	callq	_ZNSolsEi
.Ltmp778:
	#DEBUG_VALUE: operator<<<std::char_traits<char> >:__out <- RAX+0
	.loc	29 535 0                # /usr/lib/gcc/x86_64-linux-gnu/4.8/../../../../include/c++/4.8/ostream:535:0
	movq	%rax, %rdi
.Ltmp779:
	.loc	29 535 0                # /usr/lib/gcc/x86_64-linux-gnu/4.8/../../../../include/c++/4.8/ostream:535:0
	movl	$.L.str, %esi
	movl	$1, %edx
.Ltmp780:
	.loc	29 535 0                # /usr/lib/gcc/x86_64-linux-gnu/4.8/../../../../include/c++/4.8/ostream:535:0
	callq	_ZSt16__ostream_insertIcSt11char_traitsIcEERSt13basic_ostreamIT_T0_ES6_PKS3_l
.Ltmp781:
	.loc	1 10 0                  # main.cc:10:0
	movq	%rbx, %rdi
	popq	%rbx
.Ltmp782:
	jmp	_ZN5Forr_IN6libmda8metaprog6detail18loop_iterator_implINS1_4int_ILi160EEENS4_ILi0EEENS4_ILi200EEEEENS3_IS7_S6_S7_EEE5applyERSo # TAILCALL
.Ltmp783:
.Ltmp784:
	.size	_ZN5Forr_IN6libmda8metaprog6detail18loop_iterator_implINS1_4int_ILi152EEENS4_ILi0EEENS4_ILi200EEEEENS3_IS7_S6_S7_EEE5applyERSo, .Ltmp784-_ZN5Forr_IN6libmda8metaprog6detail18loop_iterator_implINS1_4int_ILi152EEENS4_ILi0EEENS4_ILi200EEEEENS3_IS7_S6_S7_EEE5applyERSo
.Lfunc_end20:
	.cfi_endproc

	.section	.text._ZN5Forr_IN6libmda8metaprog6detail18loop_iterator_implINS1_4int_ILi160EEENS4_ILi0EEENS4_ILi200EEEEENS3_IS7_S6_S7_EEE5applyERSo,"axG",@progbits,_ZN5Forr_IN6libmda8metaprog6detail18loop_iterator_implINS1_4int_ILi160EEENS4_ILi0EEENS4_ILi200EEEEENS3_IS7_S6_S7_EEE5applyERSo,comdat
	.weak	_ZN5Forr_IN6libmda8metaprog6detail18loop_iterator_implINS1_4int_ILi160EEENS4_ILi0EEENS4_ILi200EEEEENS3_IS7_S6_S7_EEE5applyERSo
	.align	16, 0x90
	.type	_ZN5Forr_IN6libmda8metaprog6detail18loop_iterator_implINS1_4int_ILi160EEENS4_ILi0EEENS4_ILi200EEEEENS3_IS7_S6_S7_EEE5applyERSo,@function
_ZN5Forr_IN6libmda8metaprog6detail18loop_iterator_implINS1_4int_ILi160EEENS4_ILi0EEENS4_ILi200EEEEENS3_IS7_S6_S7_EEE5applyERSo: # @_ZN5Forr_IN6libmda8metaprog6detail18loop_iterator_implINS1_4int_ILi160EEENS4_ILi0EEENS4_ILi200EEEEENS3_IS7_S6_S7_EEE5applyERSo
	.cfi_startproc
.Lfunc_begin21:
	.loc	1 8 0                   # main.cc:8:0
# BB#0:                                 # %entry
	pushq	%rbx
.Ltmp787:
	.cfi_def_cfa_offset 16
.Ltmp788:
	.cfi_offset %rbx, -16
	#DEBUG_VALUE: apply:aout <- RDI+0
	movq	%rdi, %rbx
.Ltmp789:
	#DEBUG_VALUE: apply:aout <- RBX+0
	#DEBUG_VALUE: apply:aout <- RBX+0
	#DEBUG_VALUE: apply:aout <- RBX+0
	#DEBUG_VALUE: apply:aout <- RBX+0
	#DEBUG_VALUE: apply:aout <- RBX+0
	#DEBUG_VALUE: apply:aout <- RBX+0
	#DEBUG_VALUE: apply:aout <- RBX+0
	#DEBUG_VALUE: apply:aout <- RBX+0
	movl	$160, %esi
	.loc	1 9 0 prologue_end      # main.cc:9:0
.Ltmp790:
	callq	_ZNSolsEi
.Ltmp791:
	#DEBUG_VALUE: operator<<<std::char_traits<char> >:__out <- RAX+0
	#DEBUG_VALUE: length:__s <- undef
	#DEBUG_VALUE: operator<<<std::char_traits<char> >:__s <- undef
	#DEBUG_VALUE: length:__s <- undef
	#DEBUG_VALUE: operator<<<std::char_traits<char> >:__s <- undef
	#DEBUG_VALUE: length:__s <- undef
	#DEBUG_VALUE: operator<<<std::char_traits<char> >:__s <- undef
	#DEBUG_VALUE: length:__s <- undef
	#DEBUG_VALUE: operator<<<std::char_traits<char> >:__s <- undef
	#DEBUG_VALUE: length:__s <- undef
	#DEBUG_VALUE: operator<<<std::char_traits<char> >:__s <- undef
	#DEBUG_VALUE: length:__s <- undef
	#DEBUG_VALUE: operator<<<std::char_traits<char> >:__s <- undef
	#DEBUG_VALUE: length:__s <- undef
	#DEBUG_VALUE: operator<<<std::char_traits<char> >:__s <- undef
	#DEBUG_VALUE: length:__s <- undef
	.loc	29 535 0                # /usr/lib/gcc/x86_64-linux-gnu/4.8/../../../../include/c++/4.8/ostream:535:0
	movq	%rax, %rdi
	movl	$.L.str, %esi
	movl	$1, %edx
	callq	_ZSt16__ostream_insertIcSt11char_traitsIcEERSt13basic_ostreamIT_T0_ES6_PKS3_l
.Ltmp792:
	.loc	1 9 0                   # main.cc:9:0
	movq	%rbx, %rdi
	movl	$161, %esi
	callq	_ZNSolsEi
.Ltmp793:
	#DEBUG_VALUE: operator<<<std::char_traits<char> >:__out <- RAX+0
	.loc	29 535 0                # /usr/lib/gcc/x86_64-linux-gnu/4.8/../../../../include/c++/4.8/ostream:535:0
	movq	%rax, %rdi
.Ltmp794:
	.loc	29 535 0                # /usr/lib/gcc/x86_64-linux-gnu/4.8/../../../../include/c++/4.8/ostream:535:0
	movl	$.L.str, %esi
	movl	$1, %edx
.Ltmp795:
	.loc	29 535 0                # /usr/lib/gcc/x86_64-linux-gnu/4.8/../../../../include/c++/4.8/ostream:535:0
	callq	_ZSt16__ostream_insertIcSt11char_traitsIcEERSt13basic_ostreamIT_T0_ES6_PKS3_l
.Ltmp796:
	.loc	1 9 0                   # main.cc:9:0
	movq	%rbx, %rdi
	movl	$162, %esi
	callq	_ZNSolsEi
.Ltmp797:
	#DEBUG_VALUE: operator<<<std::char_traits<char> >:__out <- RAX+0
	.loc	29 535 0                # /usr/lib/gcc/x86_64-linux-gnu/4.8/../../../../include/c++/4.8/ostream:535:0
	movq	%rax, %rdi
.Ltmp798:
	.loc	29 535 0                # /usr/lib/gcc/x86_64-linux-gnu/4.8/../../../../include/c++/4.8/ostream:535:0
	movl	$.L.str, %esi
	movl	$1, %edx
.Ltmp799:
	.loc	29 535 0                # /usr/lib/gcc/x86_64-linux-gnu/4.8/../../../../include/c++/4.8/ostream:535:0
	callq	_ZSt16__ostream_insertIcSt11char_traitsIcEERSt13basic_ostreamIT_T0_ES6_PKS3_l
.Ltmp800:
	.loc	1 9 0                   # main.cc:9:0
	movq	%rbx, %rdi
	movl	$163, %esi
	callq	_ZNSolsEi
.Ltmp801:
	#DEBUG_VALUE: operator<<<std::char_traits<char> >:__out <- RAX+0
	.loc	29 535 0                # /usr/lib/gcc/x86_64-linux-gnu/4.8/../../../../include/c++/4.8/ostream:535:0
	movq	%rax, %rdi
.Ltmp802:
	.loc	29 535 0                # /usr/lib/gcc/x86_64-linux-gnu/4.8/../../../../include/c++/4.8/ostream:535:0
	movl	$.L.str, %esi
	movl	$1, %edx
.Ltmp803:
	.loc	29 535 0                # /usr/lib/gcc/x86_64-linux-gnu/4.8/../../../../include/c++/4.8/ostream:535:0
	callq	_ZSt16__ostream_insertIcSt11char_traitsIcEERSt13basic_ostreamIT_T0_ES6_PKS3_l
.Ltmp804:
	.loc	1 9 0                   # main.cc:9:0
	movq	%rbx, %rdi
	movl	$164, %esi
	callq	_ZNSolsEi
.Ltmp805:
	#DEBUG_VALUE: operator<<<std::char_traits<char> >:__out <- RAX+0
	.loc	29 535 0                # /usr/lib/gcc/x86_64-linux-gnu/4.8/../../../../include/c++/4.8/ostream:535:0
	movq	%rax, %rdi
.Ltmp806:
	.loc	29 535 0                # /usr/lib/gcc/x86_64-linux-gnu/4.8/../../../../include/c++/4.8/ostream:535:0
	movl	$.L.str, %esi
	movl	$1, %edx
.Ltmp807:
	.loc	29 535 0                # /usr/lib/gcc/x86_64-linux-gnu/4.8/../../../../include/c++/4.8/ostream:535:0
	callq	_ZSt16__ostream_insertIcSt11char_traitsIcEERSt13basic_ostreamIT_T0_ES6_PKS3_l
.Ltmp808:
	.loc	1 9 0                   # main.cc:9:0
	movq	%rbx, %rdi
	movl	$165, %esi
	callq	_ZNSolsEi
.Ltmp809:
	#DEBUG_VALUE: operator<<<std::char_traits<char> >:__out <- RAX+0
	.loc	29 535 0                # /usr/lib/gcc/x86_64-linux-gnu/4.8/../../../../include/c++/4.8/ostream:535:0
	movq	%rax, %rdi
.Ltmp810:
	.loc	29 535 0                # /usr/lib/gcc/x86_64-linux-gnu/4.8/../../../../include/c++/4.8/ostream:535:0
	movl	$.L.str, %esi
	movl	$1, %edx
.Ltmp811:
	.loc	29 535 0                # /usr/lib/gcc/x86_64-linux-gnu/4.8/../../../../include/c++/4.8/ostream:535:0
	callq	_ZSt16__ostream_insertIcSt11char_traitsIcEERSt13basic_ostreamIT_T0_ES6_PKS3_l
.Ltmp812:
	.loc	1 9 0                   # main.cc:9:0
	movq	%rbx, %rdi
	movl	$166, %esi
	callq	_ZNSolsEi
.Ltmp813:
	#DEBUG_VALUE: operator<<<std::char_traits<char> >:__out <- RAX+0
	.loc	29 535 0                # /usr/lib/gcc/x86_64-linux-gnu/4.8/../../../../include/c++/4.8/ostream:535:0
	movq	%rax, %rdi
.Ltmp814:
	.loc	29 535 0                # /usr/lib/gcc/x86_64-linux-gnu/4.8/../../../../include/c++/4.8/ostream:535:0
	movl	$.L.str, %esi
	movl	$1, %edx
.Ltmp815:
	.loc	29 535 0                # /usr/lib/gcc/x86_64-linux-gnu/4.8/../../../../include/c++/4.8/ostream:535:0
	callq	_ZSt16__ostream_insertIcSt11char_traitsIcEERSt13basic_ostreamIT_T0_ES6_PKS3_l
.Ltmp816:
	.loc	1 9 0                   # main.cc:9:0
	movq	%rbx, %rdi
	movl	$167, %esi
	callq	_ZNSolsEi
.Ltmp817:
	#DEBUG_VALUE: operator<<<std::char_traits<char> >:__out <- RAX+0
	.loc	29 535 0                # /usr/lib/gcc/x86_64-linux-gnu/4.8/../../../../include/c++/4.8/ostream:535:0
	movq	%rax, %rdi
.Ltmp818:
	.loc	29 535 0                # /usr/lib/gcc/x86_64-linux-gnu/4.8/../../../../include/c++/4.8/ostream:535:0
	movl	$.L.str, %esi
	movl	$1, %edx
.Ltmp819:
	.loc	29 535 0                # /usr/lib/gcc/x86_64-linux-gnu/4.8/../../../../include/c++/4.8/ostream:535:0
	callq	_ZSt16__ostream_insertIcSt11char_traitsIcEERSt13basic_ostreamIT_T0_ES6_PKS3_l
.Ltmp820:
	.loc	1 10 0                  # main.cc:10:0
	movq	%rbx, %rdi
	popq	%rbx
.Ltmp821:
	jmp	_ZN5Forr_IN6libmda8metaprog6detail18loop_iterator_implINS1_4int_ILi168EEENS4_ILi0EEENS4_ILi200EEEEENS3_IS7_S6_S7_EEE5applyERSo # TAILCALL
.Ltmp822:
.Ltmp823:
	.size	_ZN5Forr_IN6libmda8metaprog6detail18loop_iterator_implINS1_4int_ILi160EEENS4_ILi0EEENS4_ILi200EEEEENS3_IS7_S6_S7_EEE5applyERSo, .Ltmp823-_ZN5Forr_IN6libmda8metaprog6detail18loop_iterator_implINS1_4int_ILi160EEENS4_ILi0EEENS4_ILi200EEEEENS3_IS7_S6_S7_EEE5applyERSo
.Lfunc_end21:
	.cfi_endproc

	.section	.text._ZN5Forr_IN6libmda8metaprog6detail18loop_iterator_implINS1_4int_ILi168EEENS4_ILi0EEENS4_ILi200EEEEENS3_IS7_S6_S7_EEE5applyERSo,"axG",@progbits,_ZN5Forr_IN6libmda8metaprog6detail18loop_iterator_implINS1_4int_ILi168EEENS4_ILi0EEENS4_ILi200EEEEENS3_IS7_S6_S7_EEE5applyERSo,comdat
	.weak	_ZN5Forr_IN6libmda8metaprog6detail18loop_iterator_implINS1_4int_ILi168EEENS4_ILi0EEENS4_ILi200EEEEENS3_IS7_S6_S7_EEE5applyERSo
	.align	16, 0x90
	.type	_ZN5Forr_IN6libmda8metaprog6detail18loop_iterator_implINS1_4int_ILi168EEENS4_ILi0EEENS4_ILi200EEEEENS3_IS7_S6_S7_EEE5applyERSo,@function
_ZN5Forr_IN6libmda8metaprog6detail18loop_iterator_implINS1_4int_ILi168EEENS4_ILi0EEENS4_ILi200EEEEENS3_IS7_S6_S7_EEE5applyERSo: # @_ZN5Forr_IN6libmda8metaprog6detail18loop_iterator_implINS1_4int_ILi168EEENS4_ILi0EEENS4_ILi200EEEEENS3_IS7_S6_S7_EEE5applyERSo
	.cfi_startproc
.Lfunc_begin22:
	.loc	1 8 0                   # main.cc:8:0
# BB#0:                                 # %entry
	pushq	%rbx
.Ltmp826:
	.cfi_def_cfa_offset 16
.Ltmp827:
	.cfi_offset %rbx, -16
	#DEBUG_VALUE: apply:aout <- RDI+0
	movq	%rdi, %rbx
.Ltmp828:
	#DEBUG_VALUE: apply:aout <- RBX+0
	#DEBUG_VALUE: apply:aout <- RBX+0
	#DEBUG_VALUE: apply:aout <- RBX+0
	#DEBUG_VALUE: apply:aout <- RBX+0
	#DEBUG_VALUE: apply:aout <- RBX+0
	#DEBUG_VALUE: apply:aout <- RBX+0
	#DEBUG_VALUE: apply:aout <- RBX+0
	#DEBUG_VALUE: apply:aout <- RBX+0
	movl	$168, %esi
	.loc	1 9 0 prologue_end      # main.cc:9:0
.Ltmp829:
	callq	_ZNSolsEi
.Ltmp830:
	#DEBUG_VALUE: operator<<<std::char_traits<char> >:__out <- RAX+0
	#DEBUG_VALUE: length:__s <- undef
	#DEBUG_VALUE: operator<<<std::char_traits<char> >:__s <- undef
	#DEBUG_VALUE: length:__s <- undef
	#DEBUG_VALUE: operator<<<std::char_traits<char> >:__s <- undef
	#DEBUG_VALUE: length:__s <- undef
	#DEBUG_VALUE: operator<<<std::char_traits<char> >:__s <- undef
	#DEBUG_VALUE: length:__s <- undef
	#DEBUG_VALUE: operator<<<std::char_traits<char> >:__s <- undef
	#DEBUG_VALUE: length:__s <- undef
	#DEBUG_VALUE: operator<<<std::char_traits<char> >:__s <- undef
	#DEBUG_VALUE: length:__s <- undef
	#DEBUG_VALUE: operator<<<std::char_traits<char> >:__s <- undef
	#DEBUG_VALUE: length:__s <- undef
	#DEBUG_VALUE: operator<<<std::char_traits<char> >:__s <- undef
	#DEBUG_VALUE: length:__s <- undef
	.loc	29 535 0                # /usr/lib/gcc/x86_64-linux-gnu/4.8/../../../../include/c++/4.8/ostream:535:0
	movq	%rax, %rdi
	movl	$.L.str, %esi
	movl	$1, %edx
	callq	_ZSt16__ostream_insertIcSt11char_traitsIcEERSt13basic_ostreamIT_T0_ES6_PKS3_l
.Ltmp831:
	.loc	1 9 0                   # main.cc:9:0
	movq	%rbx, %rdi
	movl	$169, %esi
	callq	_ZNSolsEi
.Ltmp832:
	#DEBUG_VALUE: operator<<<std::char_traits<char> >:__out <- RAX+0
	.loc	29 535 0                # /usr/lib/gcc/x86_64-linux-gnu/4.8/../../../../include/c++/4.8/ostream:535:0
	movq	%rax, %rdi
.Ltmp833:
	.loc	29 535 0                # /usr/lib/gcc/x86_64-linux-gnu/4.8/../../../../include/c++/4.8/ostream:535:0
	movl	$.L.str, %esi
	movl	$1, %edx
.Ltmp834:
	.loc	29 535 0                # /usr/lib/gcc/x86_64-linux-gnu/4.8/../../../../include/c++/4.8/ostream:535:0
	callq	_ZSt16__ostream_insertIcSt11char_traitsIcEERSt13basic_ostreamIT_T0_ES6_PKS3_l
.Ltmp835:
	.loc	1 9 0                   # main.cc:9:0
	movq	%rbx, %rdi
	movl	$170, %esi
	callq	_ZNSolsEi
.Ltmp836:
	#DEBUG_VALUE: operator<<<std::char_traits<char> >:__out <- RAX+0
	.loc	29 535 0                # /usr/lib/gcc/x86_64-linux-gnu/4.8/../../../../include/c++/4.8/ostream:535:0
	movq	%rax, %rdi
.Ltmp837:
	.loc	29 535 0                # /usr/lib/gcc/x86_64-linux-gnu/4.8/../../../../include/c++/4.8/ostream:535:0
	movl	$.L.str, %esi
	movl	$1, %edx
.Ltmp838:
	.loc	29 535 0                # /usr/lib/gcc/x86_64-linux-gnu/4.8/../../../../include/c++/4.8/ostream:535:0
	callq	_ZSt16__ostream_insertIcSt11char_traitsIcEERSt13basic_ostreamIT_T0_ES6_PKS3_l
.Ltmp839:
	.loc	1 9 0                   # main.cc:9:0
	movq	%rbx, %rdi
	movl	$171, %esi
	callq	_ZNSolsEi
.Ltmp840:
	#DEBUG_VALUE: operator<<<std::char_traits<char> >:__out <- RAX+0
	.loc	29 535 0                # /usr/lib/gcc/x86_64-linux-gnu/4.8/../../../../include/c++/4.8/ostream:535:0
	movq	%rax, %rdi
.Ltmp841:
	.loc	29 535 0                # /usr/lib/gcc/x86_64-linux-gnu/4.8/../../../../include/c++/4.8/ostream:535:0
	movl	$.L.str, %esi
	movl	$1, %edx
.Ltmp842:
	.loc	29 535 0                # /usr/lib/gcc/x86_64-linux-gnu/4.8/../../../../include/c++/4.8/ostream:535:0
	callq	_ZSt16__ostream_insertIcSt11char_traitsIcEERSt13basic_ostreamIT_T0_ES6_PKS3_l
.Ltmp843:
	.loc	1 9 0                   # main.cc:9:0
	movq	%rbx, %rdi
	movl	$172, %esi
	callq	_ZNSolsEi
.Ltmp844:
	#DEBUG_VALUE: operator<<<std::char_traits<char> >:__out <- RAX+0
	.loc	29 535 0                # /usr/lib/gcc/x86_64-linux-gnu/4.8/../../../../include/c++/4.8/ostream:535:0
	movq	%rax, %rdi
.Ltmp845:
	.loc	29 535 0                # /usr/lib/gcc/x86_64-linux-gnu/4.8/../../../../include/c++/4.8/ostream:535:0
	movl	$.L.str, %esi
	movl	$1, %edx
.Ltmp846:
	.loc	29 535 0                # /usr/lib/gcc/x86_64-linux-gnu/4.8/../../../../include/c++/4.8/ostream:535:0
	callq	_ZSt16__ostream_insertIcSt11char_traitsIcEERSt13basic_ostreamIT_T0_ES6_PKS3_l
.Ltmp847:
	.loc	1 9 0                   # main.cc:9:0
	movq	%rbx, %rdi
	movl	$173, %esi
	callq	_ZNSolsEi
.Ltmp848:
	#DEBUG_VALUE: operator<<<std::char_traits<char> >:__out <- RAX+0
	.loc	29 535 0                # /usr/lib/gcc/x86_64-linux-gnu/4.8/../../../../include/c++/4.8/ostream:535:0
	movq	%rax, %rdi
.Ltmp849:
	.loc	29 535 0                # /usr/lib/gcc/x86_64-linux-gnu/4.8/../../../../include/c++/4.8/ostream:535:0
	movl	$.L.str, %esi
	movl	$1, %edx
.Ltmp850:
	.loc	29 535 0                # /usr/lib/gcc/x86_64-linux-gnu/4.8/../../../../include/c++/4.8/ostream:535:0
	callq	_ZSt16__ostream_insertIcSt11char_traitsIcEERSt13basic_ostreamIT_T0_ES6_PKS3_l
.Ltmp851:
	.loc	1 9 0                   # main.cc:9:0
	movq	%rbx, %rdi
	movl	$174, %esi
	callq	_ZNSolsEi
.Ltmp852:
	#DEBUG_VALUE: operator<<<std::char_traits<char> >:__out <- RAX+0
	.loc	29 535 0                # /usr/lib/gcc/x86_64-linux-gnu/4.8/../../../../include/c++/4.8/ostream:535:0
	movq	%rax, %rdi
.Ltmp853:
	.loc	29 535 0                # /usr/lib/gcc/x86_64-linux-gnu/4.8/../../../../include/c++/4.8/ostream:535:0
	movl	$.L.str, %esi
	movl	$1, %edx
.Ltmp854:
	.loc	29 535 0                # /usr/lib/gcc/x86_64-linux-gnu/4.8/../../../../include/c++/4.8/ostream:535:0
	callq	_ZSt16__ostream_insertIcSt11char_traitsIcEERSt13basic_ostreamIT_T0_ES6_PKS3_l
.Ltmp855:
	.loc	1 9 0                   # main.cc:9:0
	movq	%rbx, %rdi
	movl	$175, %esi
	callq	_ZNSolsEi
.Ltmp856:
	#DEBUG_VALUE: operator<<<std::char_traits<char> >:__out <- RAX+0
	.loc	29 535 0                # /usr/lib/gcc/x86_64-linux-gnu/4.8/../../../../include/c++/4.8/ostream:535:0
	movq	%rax, %rdi
.Ltmp857:
	.loc	29 535 0                # /usr/lib/gcc/x86_64-linux-gnu/4.8/../../../../include/c++/4.8/ostream:535:0
	movl	$.L.str, %esi
	movl	$1, %edx
.Ltmp858:
	.loc	29 535 0                # /usr/lib/gcc/x86_64-linux-gnu/4.8/../../../../include/c++/4.8/ostream:535:0
	callq	_ZSt16__ostream_insertIcSt11char_traitsIcEERSt13basic_ostreamIT_T0_ES6_PKS3_l
.Ltmp859:
	.loc	1 10 0                  # main.cc:10:0
	movq	%rbx, %rdi
	popq	%rbx
.Ltmp860:
	jmp	_ZN5Forr_IN6libmda8metaprog6detail18loop_iterator_implINS1_4int_ILi176EEENS4_ILi0EEENS4_ILi200EEEEENS3_IS7_S6_S7_EEE5applyERSo # TAILCALL
.Ltmp861:
.Ltmp862:
	.size	_ZN5Forr_IN6libmda8metaprog6detail18loop_iterator_implINS1_4int_ILi168EEENS4_ILi0EEENS4_ILi200EEEEENS3_IS7_S6_S7_EEE5applyERSo, .Ltmp862-_ZN5Forr_IN6libmda8metaprog6detail18loop_iterator_implINS1_4int_ILi168EEENS4_ILi0EEENS4_ILi200EEEEENS3_IS7_S6_S7_EEE5applyERSo
.Lfunc_end22:
	.cfi_endproc

	.section	.text._ZN5Forr_IN6libmda8metaprog6detail18loop_iterator_implINS1_4int_ILi176EEENS4_ILi0EEENS4_ILi200EEEEENS3_IS7_S6_S7_EEE5applyERSo,"axG",@progbits,_ZN5Forr_IN6libmda8metaprog6detail18loop_iterator_implINS1_4int_ILi176EEENS4_ILi0EEENS4_ILi200EEEEENS3_IS7_S6_S7_EEE5applyERSo,comdat
	.weak	_ZN5Forr_IN6libmda8metaprog6detail18loop_iterator_implINS1_4int_ILi176EEENS4_ILi0EEENS4_ILi200EEEEENS3_IS7_S6_S7_EEE5applyERSo
	.align	16, 0x90
	.type	_ZN5Forr_IN6libmda8metaprog6detail18loop_iterator_implINS1_4int_ILi176EEENS4_ILi0EEENS4_ILi200EEEEENS3_IS7_S6_S7_EEE5applyERSo,@function
_ZN5Forr_IN6libmda8metaprog6detail18loop_iterator_implINS1_4int_ILi176EEENS4_ILi0EEENS4_ILi200EEEEENS3_IS7_S6_S7_EEE5applyERSo: # @_ZN5Forr_IN6libmda8metaprog6detail18loop_iterator_implINS1_4int_ILi176EEENS4_ILi0EEENS4_ILi200EEEEENS3_IS7_S6_S7_EEE5applyERSo
	.cfi_startproc
.Lfunc_begin23:
	.loc	1 8 0                   # main.cc:8:0
# BB#0:                                 # %entry
	pushq	%rbx
.Ltmp865:
	.cfi_def_cfa_offset 16
.Ltmp866:
	.cfi_offset %rbx, -16
	#DEBUG_VALUE: apply:aout <- RDI+0
	movq	%rdi, %rbx
.Ltmp867:
	#DEBUG_VALUE: apply:aout <- RBX+0
	#DEBUG_VALUE: apply:aout <- RBX+0
	#DEBUG_VALUE: apply:aout <- RBX+0
	#DEBUG_VALUE: apply:aout <- RBX+0
	#DEBUG_VALUE: apply:aout <- RBX+0
	#DEBUG_VALUE: apply:aout <- RBX+0
	#DEBUG_VALUE: apply:aout <- RBX+0
	#DEBUG_VALUE: apply:aout <- RBX+0
	movl	$176, %esi
	.loc	1 9 0 prologue_end      # main.cc:9:0
.Ltmp868:
	callq	_ZNSolsEi
.Ltmp869:
	#DEBUG_VALUE: operator<<<std::char_traits<char> >:__out <- RAX+0
	#DEBUG_VALUE: length:__s <- undef
	#DEBUG_VALUE: operator<<<std::char_traits<char> >:__s <- undef
	#DEBUG_VALUE: length:__s <- undef
	#DEBUG_VALUE: operator<<<std::char_traits<char> >:__s <- undef
	#DEBUG_VALUE: length:__s <- undef
	#DEBUG_VALUE: operator<<<std::char_traits<char> >:__s <- undef
	#DEBUG_VALUE: length:__s <- undef
	#DEBUG_VALUE: operator<<<std::char_traits<char> >:__s <- undef
	#DEBUG_VALUE: length:__s <- undef
	#DEBUG_VALUE: operator<<<std::char_traits<char> >:__s <- undef
	#DEBUG_VALUE: length:__s <- undef
	#DEBUG_VALUE: operator<<<std::char_traits<char> >:__s <- undef
	#DEBUG_VALUE: length:__s <- undef
	#DEBUG_VALUE: operator<<<std::char_traits<char> >:__s <- undef
	#DEBUG_VALUE: length:__s <- undef
	.loc	29 535 0                # /usr/lib/gcc/x86_64-linux-gnu/4.8/../../../../include/c++/4.8/ostream:535:0
	movq	%rax, %rdi
	movl	$.L.str, %esi
	movl	$1, %edx
	callq	_ZSt16__ostream_insertIcSt11char_traitsIcEERSt13basic_ostreamIT_T0_ES6_PKS3_l
.Ltmp870:
	.loc	1 9 0                   # main.cc:9:0
	movq	%rbx, %rdi
	movl	$177, %esi
	callq	_ZNSolsEi
.Ltmp871:
	#DEBUG_VALUE: operator<<<std::char_traits<char> >:__out <- RAX+0
	.loc	29 535 0                # /usr/lib/gcc/x86_64-linux-gnu/4.8/../../../../include/c++/4.8/ostream:535:0
	movq	%rax, %rdi
.Ltmp872:
	.loc	29 535 0                # /usr/lib/gcc/x86_64-linux-gnu/4.8/../../../../include/c++/4.8/ostream:535:0
	movl	$.L.str, %esi
	movl	$1, %edx
.Ltmp873:
	.loc	29 535 0                # /usr/lib/gcc/x86_64-linux-gnu/4.8/../../../../include/c++/4.8/ostream:535:0
	callq	_ZSt16__ostream_insertIcSt11char_traitsIcEERSt13basic_ostreamIT_T0_ES6_PKS3_l
.Ltmp874:
	.loc	1 9 0                   # main.cc:9:0
	movq	%rbx, %rdi
	movl	$178, %esi
	callq	_ZNSolsEi
.Ltmp875:
	#DEBUG_VALUE: operator<<<std::char_traits<char> >:__out <- RAX+0
	.loc	29 535 0                # /usr/lib/gcc/x86_64-linux-gnu/4.8/../../../../include/c++/4.8/ostream:535:0
	movq	%rax, %rdi
.Ltmp876:
	.loc	29 535 0                # /usr/lib/gcc/x86_64-linux-gnu/4.8/../../../../include/c++/4.8/ostream:535:0
	movl	$.L.str, %esi
	movl	$1, %edx
.Ltmp877:
	.loc	29 535 0                # /usr/lib/gcc/x86_64-linux-gnu/4.8/../../../../include/c++/4.8/ostream:535:0
	callq	_ZSt16__ostream_insertIcSt11char_traitsIcEERSt13basic_ostreamIT_T0_ES6_PKS3_l
.Ltmp878:
	.loc	1 9 0                   # main.cc:9:0
	movq	%rbx, %rdi
	movl	$179, %esi
	callq	_ZNSolsEi
.Ltmp879:
	#DEBUG_VALUE: operator<<<std::char_traits<char> >:__out <- RAX+0
	.loc	29 535 0                # /usr/lib/gcc/x86_64-linux-gnu/4.8/../../../../include/c++/4.8/ostream:535:0
	movq	%rax, %rdi
.Ltmp880:
	.loc	29 535 0                # /usr/lib/gcc/x86_64-linux-gnu/4.8/../../../../include/c++/4.8/ostream:535:0
	movl	$.L.str, %esi
	movl	$1, %edx
.Ltmp881:
	.loc	29 535 0                # /usr/lib/gcc/x86_64-linux-gnu/4.8/../../../../include/c++/4.8/ostream:535:0
	callq	_ZSt16__ostream_insertIcSt11char_traitsIcEERSt13basic_ostreamIT_T0_ES6_PKS3_l
.Ltmp882:
	.loc	1 9 0                   # main.cc:9:0
	movq	%rbx, %rdi
	movl	$180, %esi
	callq	_ZNSolsEi
.Ltmp883:
	#DEBUG_VALUE: operator<<<std::char_traits<char> >:__out <- RAX+0
	.loc	29 535 0                # /usr/lib/gcc/x86_64-linux-gnu/4.8/../../../../include/c++/4.8/ostream:535:0
	movq	%rax, %rdi
.Ltmp884:
	.loc	29 535 0                # /usr/lib/gcc/x86_64-linux-gnu/4.8/../../../../include/c++/4.8/ostream:535:0
	movl	$.L.str, %esi
	movl	$1, %edx
.Ltmp885:
	.loc	29 535 0                # /usr/lib/gcc/x86_64-linux-gnu/4.8/../../../../include/c++/4.8/ostream:535:0
	callq	_ZSt16__ostream_insertIcSt11char_traitsIcEERSt13basic_ostreamIT_T0_ES6_PKS3_l
.Ltmp886:
	.loc	1 9 0                   # main.cc:9:0
	movq	%rbx, %rdi
	movl	$181, %esi
	callq	_ZNSolsEi
.Ltmp887:
	#DEBUG_VALUE: operator<<<std::char_traits<char> >:__out <- RAX+0
	.loc	29 535 0                # /usr/lib/gcc/x86_64-linux-gnu/4.8/../../../../include/c++/4.8/ostream:535:0
	movq	%rax, %rdi
.Ltmp888:
	.loc	29 535 0                # /usr/lib/gcc/x86_64-linux-gnu/4.8/../../../../include/c++/4.8/ostream:535:0
	movl	$.L.str, %esi
	movl	$1, %edx
.Ltmp889:
	.loc	29 535 0                # /usr/lib/gcc/x86_64-linux-gnu/4.8/../../../../include/c++/4.8/ostream:535:0
	callq	_ZSt16__ostream_insertIcSt11char_traitsIcEERSt13basic_ostreamIT_T0_ES6_PKS3_l
.Ltmp890:
	.loc	1 9 0                   # main.cc:9:0
	movq	%rbx, %rdi
	movl	$182, %esi
	callq	_ZNSolsEi
.Ltmp891:
	#DEBUG_VALUE: operator<<<std::char_traits<char> >:__out <- RAX+0
	.loc	29 535 0                # /usr/lib/gcc/x86_64-linux-gnu/4.8/../../../../include/c++/4.8/ostream:535:0
	movq	%rax, %rdi
.Ltmp892:
	.loc	29 535 0                # /usr/lib/gcc/x86_64-linux-gnu/4.8/../../../../include/c++/4.8/ostream:535:0
	movl	$.L.str, %esi
	movl	$1, %edx
.Ltmp893:
	.loc	29 535 0                # /usr/lib/gcc/x86_64-linux-gnu/4.8/../../../../include/c++/4.8/ostream:535:0
	callq	_ZSt16__ostream_insertIcSt11char_traitsIcEERSt13basic_ostreamIT_T0_ES6_PKS3_l
.Ltmp894:
	.loc	1 9 0                   # main.cc:9:0
	movq	%rbx, %rdi
	movl	$183, %esi
	callq	_ZNSolsEi
.Ltmp895:
	#DEBUG_VALUE: operator<<<std::char_traits<char> >:__out <- RAX+0
	.loc	29 535 0                # /usr/lib/gcc/x86_64-linux-gnu/4.8/../../../../include/c++/4.8/ostream:535:0
	movq	%rax, %rdi
.Ltmp896:
	.loc	29 535 0                # /usr/lib/gcc/x86_64-linux-gnu/4.8/../../../../include/c++/4.8/ostream:535:0
	movl	$.L.str, %esi
	movl	$1, %edx
.Ltmp897:
	.loc	29 535 0                # /usr/lib/gcc/x86_64-linux-gnu/4.8/../../../../include/c++/4.8/ostream:535:0
	callq	_ZSt16__ostream_insertIcSt11char_traitsIcEERSt13basic_ostreamIT_T0_ES6_PKS3_l
.Ltmp898:
	.loc	1 10 0                  # main.cc:10:0
	movq	%rbx, %rdi
	popq	%rbx
.Ltmp899:
	jmp	_ZN5Forr_IN6libmda8metaprog6detail18loop_iterator_implINS1_4int_ILi184EEENS4_ILi0EEENS4_ILi200EEEEENS3_IS7_S6_S7_EEE5applyERSo # TAILCALL
.Ltmp900:
.Ltmp901:
	.size	_ZN5Forr_IN6libmda8metaprog6detail18loop_iterator_implINS1_4int_ILi176EEENS4_ILi0EEENS4_ILi200EEEEENS3_IS7_S6_S7_EEE5applyERSo, .Ltmp901-_ZN5Forr_IN6libmda8metaprog6detail18loop_iterator_implINS1_4int_ILi176EEENS4_ILi0EEENS4_ILi200EEEEENS3_IS7_S6_S7_EEE5applyERSo
.Lfunc_end23:
	.cfi_endproc

	.section	.text._ZN5Forr_IN6libmda8metaprog6detail18loop_iterator_implINS1_4int_ILi184EEENS4_ILi0EEENS4_ILi200EEEEENS3_IS7_S6_S7_EEE5applyERSo,"axG",@progbits,_ZN5Forr_IN6libmda8metaprog6detail18loop_iterator_implINS1_4int_ILi184EEENS4_ILi0EEENS4_ILi200EEEEENS3_IS7_S6_S7_EEE5applyERSo,comdat
	.weak	_ZN5Forr_IN6libmda8metaprog6detail18loop_iterator_implINS1_4int_ILi184EEENS4_ILi0EEENS4_ILi200EEEEENS3_IS7_S6_S7_EEE5applyERSo
	.align	16, 0x90
	.type	_ZN5Forr_IN6libmda8metaprog6detail18loop_iterator_implINS1_4int_ILi184EEENS4_ILi0EEENS4_ILi200EEEEENS3_IS7_S6_S7_EEE5applyERSo,@function
_ZN5Forr_IN6libmda8metaprog6detail18loop_iterator_implINS1_4int_ILi184EEENS4_ILi0EEENS4_ILi200EEEEENS3_IS7_S6_S7_EEE5applyERSo: # @_ZN5Forr_IN6libmda8metaprog6detail18loop_iterator_implINS1_4int_ILi184EEENS4_ILi0EEENS4_ILi200EEEEENS3_IS7_S6_S7_EEE5applyERSo
	.cfi_startproc
.Lfunc_begin24:
	.loc	1 8 0                   # main.cc:8:0
# BB#0:                                 # %entry
	pushq	%rbx
.Ltmp904:
	.cfi_def_cfa_offset 16
.Ltmp905:
	.cfi_offset %rbx, -16
	#DEBUG_VALUE: apply:aout <- RDI+0
	movq	%rdi, %rbx
.Ltmp906:
	#DEBUG_VALUE: apply:aout <- RBX+0
	#DEBUG_VALUE: apply:aout <- RBX+0
	#DEBUG_VALUE: apply:aout <- RBX+0
	#DEBUG_VALUE: apply:aout <- RBX+0
	#DEBUG_VALUE: apply:aout <- RBX+0
	#DEBUG_VALUE: apply:aout <- RBX+0
	#DEBUG_VALUE: apply:aout <- RBX+0
	#DEBUG_VALUE: apply:aout <- RBX+0
	movl	$184, %esi
	.loc	1 9 0 prologue_end      # main.cc:9:0
.Ltmp907:
	callq	_ZNSolsEi
.Ltmp908:
	#DEBUG_VALUE: operator<<<std::char_traits<char> >:__out <- RAX+0
	#DEBUG_VALUE: length:__s <- undef
	#DEBUG_VALUE: operator<<<std::char_traits<char> >:__s <- undef
	#DEBUG_VALUE: length:__s <- undef
	#DEBUG_VALUE: operator<<<std::char_traits<char> >:__s <- undef
	#DEBUG_VALUE: length:__s <- undef
	#DEBUG_VALUE: operator<<<std::char_traits<char> >:__s <- undef
	#DEBUG_VALUE: length:__s <- undef
	#DEBUG_VALUE: operator<<<std::char_traits<char> >:__s <- undef
	#DEBUG_VALUE: length:__s <- undef
	#DEBUG_VALUE: operator<<<std::char_traits<char> >:__s <- undef
	#DEBUG_VALUE: length:__s <- undef
	#DEBUG_VALUE: operator<<<std::char_traits<char> >:__s <- undef
	#DEBUG_VALUE: length:__s <- undef
	#DEBUG_VALUE: operator<<<std::char_traits<char> >:__s <- undef
	#DEBUG_VALUE: length:__s <- undef
	.loc	29 535 0                # /usr/lib/gcc/x86_64-linux-gnu/4.8/../../../../include/c++/4.8/ostream:535:0
	movq	%rax, %rdi
	movl	$.L.str, %esi
	movl	$1, %edx
	callq	_ZSt16__ostream_insertIcSt11char_traitsIcEERSt13basic_ostreamIT_T0_ES6_PKS3_l
.Ltmp909:
	.loc	1 9 0                   # main.cc:9:0
	movq	%rbx, %rdi
	movl	$185, %esi
	callq	_ZNSolsEi
.Ltmp910:
	#DEBUG_VALUE: operator<<<std::char_traits<char> >:__out <- RAX+0
	.loc	29 535 0                # /usr/lib/gcc/x86_64-linux-gnu/4.8/../../../../include/c++/4.8/ostream:535:0
	movq	%rax, %rdi
.Ltmp911:
	.loc	29 535 0                # /usr/lib/gcc/x86_64-linux-gnu/4.8/../../../../include/c++/4.8/ostream:535:0
	movl	$.L.str, %esi
	movl	$1, %edx
.Ltmp912:
	.loc	29 535 0                # /usr/lib/gcc/x86_64-linux-gnu/4.8/../../../../include/c++/4.8/ostream:535:0
	callq	_ZSt16__ostream_insertIcSt11char_traitsIcEERSt13basic_ostreamIT_T0_ES6_PKS3_l
.Ltmp913:
	.loc	1 9 0                   # main.cc:9:0
	movq	%rbx, %rdi
	movl	$186, %esi
	callq	_ZNSolsEi
.Ltmp914:
	#DEBUG_VALUE: operator<<<std::char_traits<char> >:__out <- RAX+0
	.loc	29 535 0                # /usr/lib/gcc/x86_64-linux-gnu/4.8/../../../../include/c++/4.8/ostream:535:0
	movq	%rax, %rdi
.Ltmp915:
	.loc	29 535 0                # /usr/lib/gcc/x86_64-linux-gnu/4.8/../../../../include/c++/4.8/ostream:535:0
	movl	$.L.str, %esi
	movl	$1, %edx
.Ltmp916:
	.loc	29 535 0                # /usr/lib/gcc/x86_64-linux-gnu/4.8/../../../../include/c++/4.8/ostream:535:0
	callq	_ZSt16__ostream_insertIcSt11char_traitsIcEERSt13basic_ostreamIT_T0_ES6_PKS3_l
.Ltmp917:
	.loc	1 9 0                   # main.cc:9:0
	movq	%rbx, %rdi
	movl	$187, %esi
	callq	_ZNSolsEi
.Ltmp918:
	#DEBUG_VALUE: operator<<<std::char_traits<char> >:__out <- RAX+0
	.loc	29 535 0                # /usr/lib/gcc/x86_64-linux-gnu/4.8/../../../../include/c++/4.8/ostream:535:0
	movq	%rax, %rdi
.Ltmp919:
	.loc	29 535 0                # /usr/lib/gcc/x86_64-linux-gnu/4.8/../../../../include/c++/4.8/ostream:535:0
	movl	$.L.str, %esi
	movl	$1, %edx
.Ltmp920:
	.loc	29 535 0                # /usr/lib/gcc/x86_64-linux-gnu/4.8/../../../../include/c++/4.8/ostream:535:0
	callq	_ZSt16__ostream_insertIcSt11char_traitsIcEERSt13basic_ostreamIT_T0_ES6_PKS3_l
.Ltmp921:
	.loc	1 9 0                   # main.cc:9:0
	movq	%rbx, %rdi
	movl	$188, %esi
	callq	_ZNSolsEi
.Ltmp922:
	#DEBUG_VALUE: operator<<<std::char_traits<char> >:__out <- RAX+0
	.loc	29 535 0                # /usr/lib/gcc/x86_64-linux-gnu/4.8/../../../../include/c++/4.8/ostream:535:0
	movq	%rax, %rdi
.Ltmp923:
	.loc	29 535 0                # /usr/lib/gcc/x86_64-linux-gnu/4.8/../../../../include/c++/4.8/ostream:535:0
	movl	$.L.str, %esi
	movl	$1, %edx
.Ltmp924:
	.loc	29 535 0                # /usr/lib/gcc/x86_64-linux-gnu/4.8/../../../../include/c++/4.8/ostream:535:0
	callq	_ZSt16__ostream_insertIcSt11char_traitsIcEERSt13basic_ostreamIT_T0_ES6_PKS3_l
.Ltmp925:
	.loc	1 9 0                   # main.cc:9:0
	movq	%rbx, %rdi
	movl	$189, %esi
	callq	_ZNSolsEi
.Ltmp926:
	#DEBUG_VALUE: operator<<<std::char_traits<char> >:__out <- RAX+0
	.loc	29 535 0                # /usr/lib/gcc/x86_64-linux-gnu/4.8/../../../../include/c++/4.8/ostream:535:0
	movq	%rax, %rdi
.Ltmp927:
	.loc	29 535 0                # /usr/lib/gcc/x86_64-linux-gnu/4.8/../../../../include/c++/4.8/ostream:535:0
	movl	$.L.str, %esi
	movl	$1, %edx
.Ltmp928:
	.loc	29 535 0                # /usr/lib/gcc/x86_64-linux-gnu/4.8/../../../../include/c++/4.8/ostream:535:0
	callq	_ZSt16__ostream_insertIcSt11char_traitsIcEERSt13basic_ostreamIT_T0_ES6_PKS3_l
.Ltmp929:
	.loc	1 9 0                   # main.cc:9:0
	movq	%rbx, %rdi
	movl	$190, %esi
	callq	_ZNSolsEi
.Ltmp930:
	#DEBUG_VALUE: operator<<<std::char_traits<char> >:__out <- RAX+0
	.loc	29 535 0                # /usr/lib/gcc/x86_64-linux-gnu/4.8/../../../../include/c++/4.8/ostream:535:0
	movq	%rax, %rdi
.Ltmp931:
	.loc	29 535 0                # /usr/lib/gcc/x86_64-linux-gnu/4.8/../../../../include/c++/4.8/ostream:535:0
	movl	$.L.str, %esi
	movl	$1, %edx
.Ltmp932:
	.loc	29 535 0                # /usr/lib/gcc/x86_64-linux-gnu/4.8/../../../../include/c++/4.8/ostream:535:0
	callq	_ZSt16__ostream_insertIcSt11char_traitsIcEERSt13basic_ostreamIT_T0_ES6_PKS3_l
.Ltmp933:
	.loc	1 9 0                   # main.cc:9:0
	movq	%rbx, %rdi
	movl	$191, %esi
	callq	_ZNSolsEi
.Ltmp934:
	#DEBUG_VALUE: operator<<<std::char_traits<char> >:__out <- RAX+0
	.loc	29 535 0                # /usr/lib/gcc/x86_64-linux-gnu/4.8/../../../../include/c++/4.8/ostream:535:0
	movq	%rax, %rdi
.Ltmp935:
	.loc	29 535 0                # /usr/lib/gcc/x86_64-linux-gnu/4.8/../../../../include/c++/4.8/ostream:535:0
	movl	$.L.str, %esi
	movl	$1, %edx
.Ltmp936:
	.loc	29 535 0                # /usr/lib/gcc/x86_64-linux-gnu/4.8/../../../../include/c++/4.8/ostream:535:0
	callq	_ZSt16__ostream_insertIcSt11char_traitsIcEERSt13basic_ostreamIT_T0_ES6_PKS3_l
.Ltmp937:
	.loc	1 10 0                  # main.cc:10:0
	movq	%rbx, %rdi
	popq	%rbx
.Ltmp938:
	jmp	_ZN5Forr_IN6libmda8metaprog6detail18loop_iterator_implINS1_4int_ILi192EEENS4_ILi0EEENS4_ILi200EEEEENS3_IS7_S6_S7_EEE5applyERSo # TAILCALL
.Ltmp939:
.Ltmp940:
	.size	_ZN5Forr_IN6libmda8metaprog6detail18loop_iterator_implINS1_4int_ILi184EEENS4_ILi0EEENS4_ILi200EEEEENS3_IS7_S6_S7_EEE5applyERSo, .Ltmp940-_ZN5Forr_IN6libmda8metaprog6detail18loop_iterator_implINS1_4int_ILi184EEENS4_ILi0EEENS4_ILi200EEEEENS3_IS7_S6_S7_EEE5applyERSo
.Lfunc_end24:
	.cfi_endproc

	.section	.text._ZN5Forr_IN6libmda8metaprog6detail18loop_iterator_implINS1_4int_ILi192EEENS4_ILi0EEENS4_ILi200EEEEENS3_IS7_S6_S7_EEE5applyERSo,"axG",@progbits,_ZN5Forr_IN6libmda8metaprog6detail18loop_iterator_implINS1_4int_ILi192EEENS4_ILi0EEENS4_ILi200EEEEENS3_IS7_S6_S7_EEE5applyERSo,comdat
	.weak	_ZN5Forr_IN6libmda8metaprog6detail18loop_iterator_implINS1_4int_ILi192EEENS4_ILi0EEENS4_ILi200EEEEENS3_IS7_S6_S7_EEE5applyERSo
	.align	16, 0x90
	.type	_ZN5Forr_IN6libmda8metaprog6detail18loop_iterator_implINS1_4int_ILi192EEENS4_ILi0EEENS4_ILi200EEEEENS3_IS7_S6_S7_EEE5applyERSo,@function
_ZN5Forr_IN6libmda8metaprog6detail18loop_iterator_implINS1_4int_ILi192EEENS4_ILi0EEENS4_ILi200EEEEENS3_IS7_S6_S7_EEE5applyERSo: # @_ZN5Forr_IN6libmda8metaprog6detail18loop_iterator_implINS1_4int_ILi192EEENS4_ILi0EEENS4_ILi200EEEEENS3_IS7_S6_S7_EEE5applyERSo
	.cfi_startproc
.Lfunc_begin25:
	.loc	1 8 0                   # main.cc:8:0
# BB#0:                                 # %entry
	pushq	%rbx
.Ltmp943:
	.cfi_def_cfa_offset 16
.Ltmp944:
	.cfi_offset %rbx, -16
	#DEBUG_VALUE: apply:aout <- RDI+0
	movq	%rdi, %rbx
.Ltmp945:
	#DEBUG_VALUE: apply:aout <- RBX+0
	#DEBUG_VALUE: apply:aout <- RBX+0
	#DEBUG_VALUE: apply:aout <- RBX+0
	#DEBUG_VALUE: apply:aout <- RBX+0
	#DEBUG_VALUE: apply:aout <- RBX+0
	#DEBUG_VALUE: apply:aout <- RBX+0
	#DEBUG_VALUE: apply:aout <- RBX+0
	#DEBUG_VALUE: apply:aout <- RBX+0
	movl	$192, %esi
	.loc	1 9 0 prologue_end      # main.cc:9:0
.Ltmp946:
	callq	_ZNSolsEi
.Ltmp947:
	#DEBUG_VALUE: operator<<<std::char_traits<char> >:__out <- RAX+0
	#DEBUG_VALUE: length:__s <- undef
	#DEBUG_VALUE: operator<<<std::char_traits<char> >:__s <- undef
	#DEBUG_VALUE: length:__s <- undef
	#DEBUG_VALUE: operator<<<std::char_traits<char> >:__s <- undef
	#DEBUG_VALUE: length:__s <- undef
	#DEBUG_VALUE: operator<<<std::char_traits<char> >:__s <- undef
	#DEBUG_VALUE: length:__s <- undef
	#DEBUG_VALUE: operator<<<std::char_traits<char> >:__s <- undef
	#DEBUG_VALUE: length:__s <- undef
	#DEBUG_VALUE: operator<<<std::char_traits<char> >:__s <- undef
	#DEBUG_VALUE: length:__s <- undef
	#DEBUG_VALUE: operator<<<std::char_traits<char> >:__s <- undef
	#DEBUG_VALUE: length:__s <- undef
	#DEBUG_VALUE: operator<<<std::char_traits<char> >:__s <- undef
	#DEBUG_VALUE: length:__s <- undef
	.loc	29 535 0                # /usr/lib/gcc/x86_64-linux-gnu/4.8/../../../../include/c++/4.8/ostream:535:0
	movq	%rax, %rdi
	movl	$.L.str, %esi
	movl	$1, %edx
	callq	_ZSt16__ostream_insertIcSt11char_traitsIcEERSt13basic_ostreamIT_T0_ES6_PKS3_l
.Ltmp948:
	.loc	1 9 0                   # main.cc:9:0
	movq	%rbx, %rdi
	movl	$193, %esi
	callq	_ZNSolsEi
.Ltmp949:
	#DEBUG_VALUE: operator<<<std::char_traits<char> >:__out <- RAX+0
	.loc	29 535 0                # /usr/lib/gcc/x86_64-linux-gnu/4.8/../../../../include/c++/4.8/ostream:535:0
	movq	%rax, %rdi
.Ltmp950:
	.loc	29 535 0                # /usr/lib/gcc/x86_64-linux-gnu/4.8/../../../../include/c++/4.8/ostream:535:0
	movl	$.L.str, %esi
	movl	$1, %edx
.Ltmp951:
	.loc	29 535 0                # /usr/lib/gcc/x86_64-linux-gnu/4.8/../../../../include/c++/4.8/ostream:535:0
	callq	_ZSt16__ostream_insertIcSt11char_traitsIcEERSt13basic_ostreamIT_T0_ES6_PKS3_l
.Ltmp952:
	.loc	1 9 0                   # main.cc:9:0
	movq	%rbx, %rdi
	movl	$194, %esi
	callq	_ZNSolsEi
.Ltmp953:
	#DEBUG_VALUE: operator<<<std::char_traits<char> >:__out <- RAX+0
	.loc	29 535 0                # /usr/lib/gcc/x86_64-linux-gnu/4.8/../../../../include/c++/4.8/ostream:535:0
	movq	%rax, %rdi
.Ltmp954:
	.loc	29 535 0                # /usr/lib/gcc/x86_64-linux-gnu/4.8/../../../../include/c++/4.8/ostream:535:0
	movl	$.L.str, %esi
	movl	$1, %edx
.Ltmp955:
	.loc	29 535 0                # /usr/lib/gcc/x86_64-linux-gnu/4.8/../../../../include/c++/4.8/ostream:535:0
	callq	_ZSt16__ostream_insertIcSt11char_traitsIcEERSt13basic_ostreamIT_T0_ES6_PKS3_l
.Ltmp956:
	.loc	1 9 0                   # main.cc:9:0
	movq	%rbx, %rdi
	movl	$195, %esi
	callq	_ZNSolsEi
.Ltmp957:
	#DEBUG_VALUE: operator<<<std::char_traits<char> >:__out <- RAX+0
	.loc	29 535 0                # /usr/lib/gcc/x86_64-linux-gnu/4.8/../../../../include/c++/4.8/ostream:535:0
	movq	%rax, %rdi
.Ltmp958:
	.loc	29 535 0                # /usr/lib/gcc/x86_64-linux-gnu/4.8/../../../../include/c++/4.8/ostream:535:0
	movl	$.L.str, %esi
	movl	$1, %edx
.Ltmp959:
	.loc	29 535 0                # /usr/lib/gcc/x86_64-linux-gnu/4.8/../../../../include/c++/4.8/ostream:535:0
	callq	_ZSt16__ostream_insertIcSt11char_traitsIcEERSt13basic_ostreamIT_T0_ES6_PKS3_l
.Ltmp960:
	.loc	1 9 0                   # main.cc:9:0
	movq	%rbx, %rdi
	movl	$196, %esi
	callq	_ZNSolsEi
.Ltmp961:
	#DEBUG_VALUE: operator<<<std::char_traits<char> >:__out <- RAX+0
	.loc	29 535 0                # /usr/lib/gcc/x86_64-linux-gnu/4.8/../../../../include/c++/4.8/ostream:535:0
	movq	%rax, %rdi
.Ltmp962:
	.loc	29 535 0                # /usr/lib/gcc/x86_64-linux-gnu/4.8/../../../../include/c++/4.8/ostream:535:0
	movl	$.L.str, %esi
	movl	$1, %edx
.Ltmp963:
	.loc	29 535 0                # /usr/lib/gcc/x86_64-linux-gnu/4.8/../../../../include/c++/4.8/ostream:535:0
	callq	_ZSt16__ostream_insertIcSt11char_traitsIcEERSt13basic_ostreamIT_T0_ES6_PKS3_l
.Ltmp964:
	.loc	1 9 0                   # main.cc:9:0
	movq	%rbx, %rdi
	movl	$197, %esi
	callq	_ZNSolsEi
.Ltmp965:
	#DEBUG_VALUE: operator<<<std::char_traits<char> >:__out <- RAX+0
	.loc	29 535 0                # /usr/lib/gcc/x86_64-linux-gnu/4.8/../../../../include/c++/4.8/ostream:535:0
	movq	%rax, %rdi
.Ltmp966:
	.loc	29 535 0                # /usr/lib/gcc/x86_64-linux-gnu/4.8/../../../../include/c++/4.8/ostream:535:0
	movl	$.L.str, %esi
	movl	$1, %edx
.Ltmp967:
	.loc	29 535 0                # /usr/lib/gcc/x86_64-linux-gnu/4.8/../../../../include/c++/4.8/ostream:535:0
	callq	_ZSt16__ostream_insertIcSt11char_traitsIcEERSt13basic_ostreamIT_T0_ES6_PKS3_l
.Ltmp968:
	.loc	1 9 0                   # main.cc:9:0
	movq	%rbx, %rdi
	movl	$198, %esi
	callq	_ZNSolsEi
.Ltmp969:
	#DEBUG_VALUE: operator<<<std::char_traits<char> >:__out <- RAX+0
	.loc	29 535 0                # /usr/lib/gcc/x86_64-linux-gnu/4.8/../../../../include/c++/4.8/ostream:535:0
	movq	%rax, %rdi
.Ltmp970:
	.loc	29 535 0                # /usr/lib/gcc/x86_64-linux-gnu/4.8/../../../../include/c++/4.8/ostream:535:0
	movl	$.L.str, %esi
	movl	$1, %edx
.Ltmp971:
	.loc	29 535 0                # /usr/lib/gcc/x86_64-linux-gnu/4.8/../../../../include/c++/4.8/ostream:535:0
	callq	_ZSt16__ostream_insertIcSt11char_traitsIcEERSt13basic_ostreamIT_T0_ES6_PKS3_l
.Ltmp972:
	.loc	1 9 0                   # main.cc:9:0
	movq	%rbx, %rdi
	movl	$199, %esi
	callq	_ZNSolsEi
.Ltmp973:
	#DEBUG_VALUE: operator<<<std::char_traits<char> >:__out <- RAX+0
	.loc	29 535 0                # /usr/lib/gcc/x86_64-linux-gnu/4.8/../../../../include/c++/4.8/ostream:535:0
	movq	%rax, %rdi
.Ltmp974:
	.loc	29 535 0                # /usr/lib/gcc/x86_64-linux-gnu/4.8/../../../../include/c++/4.8/ostream:535:0
	movl	$.L.str, %esi
	movl	$1, %edx
.Ltmp975:
	.loc	29 535 0                # /usr/lib/gcc/x86_64-linux-gnu/4.8/../../../../include/c++/4.8/ostream:535:0
	popq	%rbx
.Ltmp976:
	jmp	_ZSt16__ostream_insertIcSt11char_traitsIcEERSt13basic_ostreamIT_T0_ES6_PKS3_l # TAILCALL
.Ltmp977:
.Ltmp978:
	.size	_ZN5Forr_IN6libmda8metaprog6detail18loop_iterator_implINS1_4int_ILi192EEENS4_ILi0EEENS4_ILi200EEEEENS3_IS7_S6_S7_EEE5applyERSo, .Ltmp978-_ZN5Forr_IN6libmda8metaprog6detail18loop_iterator_implINS1_4int_ILi192EEENS4_ILi0EEENS4_ILi200EEEEENS3_IS7_S6_S7_EEE5applyERSo
.Lfunc_end25:
	.cfi_endproc

	.section	.text.startup,"ax",@progbits
	.align	16, 0x90
	.type	_GLOBAL__I_a,@function
_GLOBAL__I_a:                           # @_GLOBAL__I_a
	.cfi_startproc
.Lfunc_begin26:
	.loc	1 157 0                 # main.cc:157:0
# BB#0:                                 # %entry
	.loc	17 73 0 prologue_end    # /usr/lib/gcc/x86_64-linux-gnu/4.8/../../../../include/c++/4.8/iostream:73:0
	pushq	%rax
.Ltmp980:
	.cfi_def_cfa_offset 16
	movl	$_ZStL8__ioinit, %edi
	callq	_ZNSt8ios_base4InitC1Ev
	movl	$_ZNSt8ios_base4InitD1Ev, %edi
	movl	$_ZStL8__ioinit, %esi
	movl	$__dso_handle, %edx
	popq	%rax
	jmp	__cxa_atexit            # TAILCALL
.Ltmp981:
.Ltmp982:
	.size	_GLOBAL__I_a, .Ltmp982-_GLOBAL__I_a
.Lfunc_end26:
	.cfi_endproc

	.type	_ZStL8__ioinit,@object  # @_ZStL8__ioinit
	.local	_ZStL8__ioinit
	.comm	_ZStL8__ioinit,1,1
	.type	.L.str,@object          # @.str
	.section	.rodata.str1.1,"aMS",@progbits,1
.L.str:
	.asciz	 " "
	.size	.L.str, 2

	.section	.init_array,"aw",@init_array
	.align	8
	.quad	_GLOBAL__I_a
	.text
.Ltext_end:
	.data
.Ldata_end:
	.text
.Lsection_end1: