	.file	"main.cc"
	.section	.text.startup,"ax",@progbits
	.p2align 4,,15
	.globl	main
	.type	main, @function
main:
.LFB1587:
	.cfi_startproc
	pushq	%rbp
	.cfi_def_cfa_offset 16
	.cfi_offset 6, -16
	xorl	%esi, %esi
	movl	$_ZSt4cout, %edi
	pushq	%rbx
	.cfi_def_cfa_offset 24
	.cfi_offset 3, -24
	subq	$8, %rsp
	.cfi_def_cfa_offset 32
	call	_ZNSolsEi
	movq	%rax, %rbp
	movq	(%rax), %rax
	movq	-24(%rax), %rax
	movq	240(%rbp,%rax), %rbx
	testq	%rbx, %rbx
	je	.L5
	cmpb	$0, 56(%rbx)
	je	.L3
	movzbl	67(%rbx), %eax
.L4:
	movsbl	%al, %esi
	movq	%rbp, %rdi
	call	_ZNSo3putEc
	movq	%rax, %rdi
	call	_ZNSo5flushEv
	movl	$1, %esi
	movl	$_ZSt4cout, %edi
	call	_ZNSolsEi
	movq	%rax, %rbp
	movq	(%rax), %rax
	movq	-24(%rax), %rax
	movq	240(%rbp,%rax), %rbx
	testq	%rbx, %rbx
	je	.L5
	cmpb	$0, 56(%rbx)
	je	.L6
	movzbl	67(%rbx), %eax
.L7:
	movsbl	%al, %esi
	movq	%rbp, %rdi
	call	_ZNSo3putEc
	movq	%rax, %rdi
	call	_ZNSo5flushEv
	movl	$2, %esi
	movl	$_ZSt4cout, %edi
	call	_ZNSolsEi
	movq	%rax, %rbp
	movq	(%rax), %rax
	movq	-24(%rax), %rax
	movq	240(%rbp,%rax), %rbx
	testq	%rbx, %rbx
	je	.L5
	cmpb	$0, 56(%rbx)
	je	.L8
	movzbl	67(%rbx), %eax
.L9:
	movsbl	%al, %esi
	movq	%rbp, %rdi
	call	_ZNSo3putEc
	movq	%rax, %rdi
	call	_ZNSo5flushEv
	movl	$3, %esi
	movl	$_ZSt4cout, %edi
	call	_ZNSolsEi
	movq	%rax, %rbp
	movq	(%rax), %rax
	movq	-24(%rax), %rax
	movq	240(%rbp,%rax), %rbx
	testq	%rbx, %rbx
	je	.L5
	cmpb	$0, 56(%rbx)
	je	.L10
	movzbl	67(%rbx), %eax
.L11:
	movsbl	%al, %esi
	movq	%rbp, %rdi
	call	_ZNSo3putEc
	movq	%rax, %rdi
	call	_ZNSo5flushEv
	movl	$4, %esi
	movl	$_ZSt4cout, %edi
	call	_ZNSolsEi
	movq	%rax, %rbp
	movq	(%rax), %rax
	movq	-24(%rax), %rax
	movq	240(%rbp,%rax), %rbx
	testq	%rbx, %rbx
	je	.L5
	cmpb	$0, 56(%rbx)
	je	.L12
	movzbl	67(%rbx), %eax
.L13:
	movsbl	%al, %esi
	movq	%rbp, %rdi
	call	_ZNSo3putEc
	movq	%rax, %rdi
	call	_ZNSo5flushEv
	movl	$5, %esi
	movl	$_ZSt4cout, %edi
	call	_ZNSolsEi
	movq	%rax, %rbp
	movq	(%rax), %rax
	movq	-24(%rax), %rax
	movq	240(%rbp,%rax), %rbx
	testq	%rbx, %rbx
	je	.L5
	cmpb	$0, 56(%rbx)
	je	.L14
	movzbl	67(%rbx), %eax
.L15:
	movsbl	%al, %esi
	movq	%rbp, %rdi
	call	_ZNSo3putEc
	movq	%rax, %rdi
	call	_ZNSo5flushEv
	movl	$6, %esi
	movl	$_ZSt4cout, %edi
	call	_ZNSolsEi
	movq	%rax, %rbp
	movq	(%rax), %rax
	movq	-24(%rax), %rax
	movq	240(%rbp,%rax), %rbx
	testq	%rbx, %rbx
	je	.L5
	cmpb	$0, 56(%rbx)
	je	.L16
	movzbl	67(%rbx), %eax
.L17:
	movsbl	%al, %esi
	movq	%rbp, %rdi
	call	_ZNSo3putEc
	movq	%rax, %rdi
	call	_ZNSo5flushEv
	movl	$7, %esi
	movl	$_ZSt4cout, %edi
	call	_ZNSolsEi
	movq	%rax, %rbp
	movq	(%rax), %rax
	movq	-24(%rax), %rax
	movq	240(%rbp,%rax), %rbx
	testq	%rbx, %rbx
	je	.L5
	cmpb	$0, 56(%rbx)
	je	.L18
	movzbl	67(%rbx), %eax
.L19:
	movsbl	%al, %esi
	movq	%rbp, %rdi
	call	_ZNSo3putEc
	movq	%rax, %rdi
	call	_ZNSo5flushEv
	movl	$8, %esi
	movl	$_ZSt4cout, %edi
	call	_ZNSolsEi
	movq	%rax, %rbp
	movq	(%rax), %rax
	movq	-24(%rax), %rax
	movq	240(%rbp,%rax), %rbx
	testq	%rbx, %rbx
	je	.L5
	cmpb	$0, 56(%rbx)
	je	.L20
	movzbl	67(%rbx), %eax
.L21:
	movsbl	%al, %esi
	movq	%rbp, %rdi
	call	_ZNSo3putEc
	movq	%rax, %rdi
	call	_ZNSo5flushEv
	movl	$9, %esi
	movl	$_ZSt4cout, %edi
	call	_ZNSolsEi
	movq	%rax, %rbp
	movq	(%rax), %rax
	movq	-24(%rax), %rax
	movq	240(%rbp,%rax), %rbx
	testq	%rbx, %rbx
	je	.L5
	cmpb	$0, 56(%rbx)
	je	.L22
	movzbl	67(%rbx), %eax
.L23:
	movq	%rbp, %rdi
	movsbl	%al, %esi
	call	_ZNSo3putEc
	movq	%rax, %rdi
	call	_ZNSo5flushEv
	addq	$8, %rsp
	.cfi_remember_state
	.cfi_def_cfa_offset 24
	xorl	%eax, %eax
	popq	%rbx
	.cfi_def_cfa_offset 16
	popq	%rbp
	.cfi_def_cfa_offset 8
	ret
.L3:
	.cfi_restore_state
	movq	%rbx, %rdi
	call	_ZNKSt5ctypeIcE13_M_widen_initEv
	movq	(%rbx), %rax
	movl	$10, %esi
	movq	%rbx, %rdi
	call	*48(%rax)
	jmp	.L4
.L6:
	movq	%rbx, %rdi
	call	_ZNKSt5ctypeIcE13_M_widen_initEv
	movq	(%rbx), %rax
	movl	$10, %esi
	movq	%rbx, %rdi
	call	*48(%rax)
	jmp	.L7
.L8:
	movq	%rbx, %rdi
	call	_ZNKSt5ctypeIcE13_M_widen_initEv
	movq	(%rbx), %rax
	movl	$10, %esi
	movq	%rbx, %rdi
	call	*48(%rax)
	jmp	.L9
.L10:
	movq	%rbx, %rdi
	call	_ZNKSt5ctypeIcE13_M_widen_initEv
	movq	(%rbx), %rax
	movl	$10, %esi
	movq	%rbx, %rdi
	call	*48(%rax)
	jmp	.L11
.L12:
	movq	%rbx, %rdi
	call	_ZNKSt5ctypeIcE13_M_widen_initEv
	movq	(%rbx), %rax
	movl	$10, %esi
	movq	%rbx, %rdi
	call	*48(%rax)
	jmp	.L13
.L14:
	movq	%rbx, %rdi
	call	_ZNKSt5ctypeIcE13_M_widen_initEv
	movq	(%rbx), %rax
	movl	$10, %esi
	movq	%rbx, %rdi
	call	*48(%rax)
	jmp	.L15
.L16:
	movq	%rbx, %rdi
	call	_ZNKSt5ctypeIcE13_M_widen_initEv
	movq	(%rbx), %rax
	movl	$10, %esi
	movq	%rbx, %rdi
	call	*48(%rax)
	jmp	.L17
.L18:
	movq	%rbx, %rdi
	call	_ZNKSt5ctypeIcE13_M_widen_initEv
	movq	(%rbx), %rax
	movl	$10, %esi
	movq	%rbx, %rdi
	call	*48(%rax)
	jmp	.L19
.L20:
	movq	%rbx, %rdi
	call	_ZNKSt5ctypeIcE13_M_widen_initEv
	movq	(%rbx), %rax
	movl	$10, %esi
	movq	%rbx, %rdi
	call	*48(%rax)
	jmp	.L21
.L22:
	movq	%rbx, %rdi
	call	_ZNKSt5ctypeIcE13_M_widen_initEv
	movq	(%rbx), %rax
	movl	$10, %esi
	movq	%rbx, %rdi
	call	*48(%rax)
	jmp	.L23
.L5:
	call	_ZSt16__throw_bad_castv
	.cfi_endproc
.LFE1587:
	.size	main, .-main
	.p2align 4,,15
	.type	_GLOBAL__sub_I_main, @function
_GLOBAL__sub_I_main:
.LFB1752:
	.cfi_startproc
	subq	$8, %rsp
	.cfi_def_cfa_offset 16
	movl	$_ZStL8__ioinit, %edi
	call	_ZNSt8ios_base4InitC1Ev
	movl	$__dso_handle, %edx
	movl	$_ZStL8__ioinit, %esi
	movl	$_ZNSt8ios_base4InitD1Ev, %edi
	addq	$8, %rsp
	.cfi_def_cfa_offset 8
	jmp	__cxa_atexit
	.cfi_endproc
.LFE1752:
	.size	_GLOBAL__sub_I_main, .-_GLOBAL__sub_I_main
	.section	.init_array,"aw"
	.align 8
	.quad	_GLOBAL__sub_I_main
	.local	_ZStL8__ioinit
	.comm	_ZStL8__ioinit,1,1
	.hidden	__dso_handle
	.ident	"GCC: (Ubuntu 4.8.1-2ubuntu1~13.04) 4.8.1"
	.section	.note.GNU-stack,"",@progbits
