	.file	"main.cc"
	.text
.Ltext_begin:
	.data
	.file	1 "main.cc"
	.file	2 "/usr/lib/gcc/x86_64-linux-gnu/4.8/../../../../include/c++/4.8/bits/ios_base.h"
	.file	3 "/usr/lib/gcc/x86_64-linux-gnu/4.8/../../../../include/x86_64-linux-gnu/c++/4.8/bits/c++config.h"
	.file	4 "/usr/lib/gcc/x86_64-linux-gnu/4.8/../../../../include/c++/4.8/bits/postypes.h"
	.file	5 "/usr/lib/gcc/x86_64-linux-gnu/4.8/../../../../include/c++/4.8/bits/locale_classes.h"
	.file	6 "/usr/include/xlocale.h"
	.file	7 "/usr/lib/gcc/x86_64-linux-gnu/4.8/../../../../include/x86_64-linux-gnu/c++/4.8/bits/c++locale.h"
	.file	8 "/usr/lib/gcc/x86_64-linux-gnu/4.8/../../../../include/c++/4.8/bits/basic_string.h"
	.file	9 "/usr/lib/gcc/x86_64-linux-gnu/4.8/../../../../include/c++/4.8/ext/new_allocator.h"
	.file	10 "/usr/lib/gcc/x86_64-linux-gnu/4.8/../../../../include/c++/4.8/bits/allocator.h"
	.file	11 "/usr/lib/gcc/x86_64-linux-gnu/4.8/../../../../include/c++/4.8/bits/memoryfwd.h"
	.file	12 "/usr/lib/gcc/x86_64-linux-gnu/4.8/../../../../include/c++/4.8/bits/stl_iterator.h"
	.file	13 "/usr/lib/gcc/x86_64-linux-gnu/4.8/../../../../include/c++/4.8/bits/basic_string.tcc"
	.file	14 "/usr/lib/gcc/x86_64-linux-gnu/4.8/../../../../include/c++/4.8/initializer_list"
	.file	15 "/usr/lib/gcc/x86_64-linux-gnu/4.8/../../../../include/c++/4.8/bits/stringfwd.h"
	.file	16 "/usr/lib/gcc/x86_64-linux-gnu/4.8/../../../../include/c++/4.8/bits/char_traits.h"
	.file	17 "/usr/lib/gcc/x86_64-linux-gnu/4.8/../../../../include/c++/4.8/iostream"
	.file	18 "./../../../metaprog/loop.h"
	.file	19 "./../../../metaprog/int_.h"
	.file	20 "/usr/lib/gcc/x86_64-linux-gnu/4.8/../../../../include/c++/4.8/bits/basic_ios.h"
	.file	21 "/usr/lib/gcc/x86_64-linux-gnu/4.8/../../../../include/c++/4.8/bits/basic_ios.tcc"
	.file	22 "/usr/lib/gcc/x86_64-linux-gnu/4.8/../../../../include/c++/4.8/bits/streambuf.tcc"
	.file	23 "/usr/lib/gcc/x86_64-linux-gnu/4.8/../../../../include/c++/4.8/streambuf"
	.file	24 "/usr/lib/gcc/x86_64-linux-gnu/4.8/../../../../include/c++/4.8/bits/stl_algobase.h"
	.file	25 "/usr/lib/gcc/x86_64-linux-gnu/4.8/../../../../include/c++/4.8/istream"
	.file	26 "/usr/lib/gcc/x86_64-linux-gnu/4.8/../../../../include/c++/4.8/bits/istream.tcc"
	.file	27 "/usr/lib/gcc/x86_64-linux-gnu/4.8/../../../../include/c++/4.8/iosfwd"
	.file	28 "/usr/lib/gcc/x86_64-linux-gnu/4.8/../../../../include/x86_64-linux-gnu/c++/4.8/bits/ctype_base.h"
	.file	29 "/usr/lib/gcc/x86_64-linux-gnu/4.8/../../../../include/c++/4.8/bits/locale_facets.h"
	.file	30 "/usr/lib/gcc/x86_64-linux-gnu/4.8/../../../../include/c++/4.8/bits/locale_facets.tcc"
	.file	31 "/usr/lib/gcc/x86_64-linux-gnu/4.8/../../../../include/c++/4.8/ostream"
	.file	32 "/usr/lib/gcc/x86_64-linux-gnu/4.8/../../../../include/c++/4.8/bits/ostream.tcc"
	.text
	.globl	main
	.align	16, 0x90
	.type	main,@function
main:                                   # @main
	.cfi_startproc
.Lfunc_begin0:
	.loc	1 25 0                  # main.cc:25:0
# BB#0:                                 # %entry
	pushq	%rax
.Ltmp1:
	.cfi_def_cfa_offset 16
	leaq	(%rsp), %rdi
.Ltmp2:
	#DEBUG_VALUE: Forr<Forr_, libmda::metaprog::detail::loop_iterator_impl<libmda::metaprog::int_<0>, libmda::metaprog::int_<0>, libmda::metaprog::int_<200> >, libmda::metaprog::detail::loop_iterator_impl<libmda::metaprog::int_<200>, libmda::metaprog::int_<0>, libmda::metaprog::int_<200> > >:f <- RDI+0
	.loc	1 21 0 prologue_end     # main.cc:21:0
	movl	$_ZSt4cout, %esi
	callq	_ZN5Forr_clIN6libmda8metaprog6detail18loop_iterator_implINS2_4int_ILi0EEES6_NS5_ILi200EEEEENS4_IS7_S6_S7_EEEEvRSoT_T0_
	xorl	%eax, %eax
.Ltmp3:
	.loc	1 29 0                  # main.cc:29:0
	popq	%rdx
	ret
.Ltmp4:
.Ltmp5:
	.size	main, .Ltmp5-main
.Lfunc_end0:
	.cfi_endproc

	.section	.text._ZN5Forr_clIN6libmda8metaprog6detail18loop_iterator_implINS2_4int_ILi0EEES6_NS5_ILi200EEEEENS4_IS7_S6_S7_EEEEvRSoT_T0_,"axG",@progbits,_ZN5Forr_clIN6libmda8metaprog6detail18loop_iterator_implINS2_4int_ILi0EEES6_NS5_ILi200EEEEENS4_IS7_S6_S7_EEEEvRSoT_T0_,comdat
	.weak	_ZN5Forr_clIN6libmda8metaprog6detail18loop_iterator_implINS2_4int_ILi0EEES6_NS5_ILi200EEEEENS4_IS7_S6_S7_EEEEvRSoT_T0_
	.align	16, 0x90
	.type	_ZN5Forr_clIN6libmda8metaprog6detail18loop_iterator_implINS2_4int_ILi0EEES6_NS5_ILi200EEEEENS4_IS7_S6_S7_EEEEvRSoT_T0_,@function
_ZN5Forr_clIN6libmda8metaprog6detail18loop_iterator_implINS2_4int_ILi0EEES6_NS5_ILi200EEEEENS4_IS7_S6_S7_EEEEvRSoT_T0_: # @_ZN5Forr_clIN6libmda8metaprog6detail18loop_iterator_implINS2_4int_ILi0EEES6_NS5_ILi200EEEEENS4_IS7_S6_S7_EEEEvRSoT_T0_
	.cfi_startproc
.Lfunc_begin1:
	.loc	1 8 0                   # main.cc:8:0
# BB#0:                                 # %entry
	pushq	%r14
.Ltmp9:
	.cfi_def_cfa_offset 16
	pushq	%rbx
.Ltmp10:
	.cfi_def_cfa_offset 24
	pushq	%rax
.Ltmp11:
	.cfi_def_cfa_offset 32
.Ltmp12:
	.cfi_offset %rbx, -24
.Ltmp13:
	.cfi_offset %r14, -16
	#DEBUG_VALUE: operator()<libmda::metaprog::detail::loop_iterator_impl<libmda::metaprog::int_<0>, libmda::metaprog::int_<0>, libmda::metaprog::int_<200> >, libmda::metaprog::detail::loop_iterator_impl<libmda::metaprog::int_<200>, libmda::metaprog::int_<0>, libmda::metaprog::int_<200> > >:this <- RDI+0
	#DEBUG_VALUE: operator()<libmda::metaprog::detail::loop_iterator_impl<libmda::metaprog::int_<0>, libmda::metaprog::int_<0>, libmda::metaprog::int_<200> >, libmda::metaprog::detail::loop_iterator_impl<libmda::metaprog::int_<200>, libmda::metaprog::int_<0>, libmda::metaprog::int_<200> > >:aout <- RSI+0
	movq	%rsi, %rbx
.Ltmp14:
	#DEBUG_VALUE: operator()<libmda::metaprog::detail::loop_iterator_impl<libmda::metaprog::int_<0>, libmda::metaprog::int_<0>, libmda::metaprog::int_<200> >, libmda::metaprog::detail::loop_iterator_impl<libmda::metaprog::int_<200>, libmda::metaprog::int_<0>, libmda::metaprog::int_<200> > >:aout <- RBX+0
	movq	%rdi, %r14
.Ltmp15:
	#DEBUG_VALUE: operator()<libmda::metaprog::detail::loop_iterator_impl<libmda::metaprog::int_<0>, libmda::metaprog::int_<0>, libmda::metaprog::int_<200> >, libmda::metaprog::detail::loop_iterator_impl<libmda::metaprog::int_<200>, libmda::metaprog::int_<0>, libmda::metaprog::int_<200> > >:this <- R14+0
	#DEBUG_VALUE: operator()<libmda::metaprog::detail::loop_iterator_impl<libmda::metaprog::int_<7>, libmda::metaprog::int_<0>, libmda::metaprog::int_<200> >, libmda::metaprog::detail::loop_iterator_impl<libmda::metaprog::int_<200>, libmda::metaprog::int_<0>, libmda::metaprog::int_<200> > >:this <- R14+0
	#DEBUG_VALUE: operator()<libmda::metaprog::detail::loop_iterator_impl<libmda::metaprog::int_<7>, libmda::metaprog::int_<0>, libmda::metaprog::int_<200> >, libmda::metaprog::detail::loop_iterator_impl<libmda::metaprog::int_<200>, libmda::metaprog::int_<0>, libmda::metaprog::int_<200> > >:aout <- RBX+0
	#DEBUG_VALUE: operator()<libmda::metaprog::detail::loop_iterator_impl<libmda::metaprog::int_<6>, libmda::metaprog::int_<0>, libmda::metaprog::int_<200> >, libmda::metaprog::detail::loop_iterator_impl<libmda::metaprog::int_<200>, libmda::metaprog::int_<0>, libmda::metaprog::int_<200> > >:this <- R14+0
	#DEBUG_VALUE: operator()<libmda::metaprog::detail::loop_iterator_impl<libmda::metaprog::int_<6>, libmda::metaprog::int_<0>, libmda::metaprog::int_<200> >, libmda::metaprog::detail::loop_iterator_impl<libmda::metaprog::int_<200>, libmda::metaprog::int_<0>, libmda::metaprog::int_<200> > >:aout <- RBX+0
	#DEBUG_VALUE: operator()<libmda::metaprog::detail::loop_iterator_impl<libmda::metaprog::int_<5>, libmda::metaprog::int_<0>, libmda::metaprog::int_<200> >, libmda::metaprog::detail::loop_iterator_impl<libmda::metaprog::int_<200>, libmda::metaprog::int_<0>, libmda::metaprog::int_<200> > >:this <- R14+0
	#DEBUG_VALUE: operator()<libmda::metaprog::detail::loop_iterator_impl<libmda::metaprog::int_<5>, libmda::metaprog::int_<0>, libmda::metaprog::int_<200> >, libmda::metaprog::detail::loop_iterator_impl<libmda::metaprog::int_<200>, libmda::metaprog::int_<0>, libmda::metaprog::int_<200> > >:aout <- RBX+0
	#DEBUG_VALUE: operator()<libmda::metaprog::detail::loop_iterator_impl<libmda::metaprog::int_<4>, libmda::metaprog::int_<0>, libmda::metaprog::int_<200> >, libmda::metaprog::detail::loop_iterator_impl<libmda::metaprog::int_<200>, libmda::metaprog::int_<0>, libmda::metaprog::int_<200> > >:this <- R14+0
	#DEBUG_VALUE: operator()<libmda::metaprog::detail::loop_iterator_impl<libmda::metaprog::int_<4>, libmda::metaprog::int_<0>, libmda::metaprog::int_<200> >, libmda::metaprog::detail::loop_iterator_impl<libmda::metaprog::int_<200>, libmda::metaprog::int_<0>, libmda::metaprog::int_<200> > >:aout <- RBX+0
	#DEBUG_VALUE: operator()<libmda::metaprog::detail::loop_iterator_impl<libmda::metaprog::int_<3>, libmda::metaprog::int_<0>, libmda::metaprog::int_<200> >, libmda::metaprog::detail::loop_iterator_impl<libmda::metaprog::int_<200>, libmda::metaprog::int_<0>, libmda::metaprog::int_<200> > >:this <- R14+0
	#DEBUG_VALUE: operator()<libmda::metaprog::detail::loop_iterator_impl<libmda::metaprog::int_<3>, libmda::metaprog::int_<0>, libmda::metaprog::int_<200> >, libmda::metaprog::detail::loop_iterator_impl<libmda::metaprog::int_<200>, libmda::metaprog::int_<0>, libmda::metaprog::int_<200> > >:aout <- RBX+0
	#DEBUG_VALUE: operator()<libmda::metaprog::detail::loop_iterator_impl<libmda::metaprog::int_<2>, libmda::metaprog::int_<0>, libmda::metaprog::int_<200> >, libmda::metaprog::detail::loop_iterator_impl<libmda::metaprog::int_<200>, libmda::metaprog::int_<0>, libmda::metaprog::int_<200> > >:this <- R14+0
	#DEBUG_VALUE: operator()<libmda::metaprog::detail::loop_iterator_impl<libmda::metaprog::int_<2>, libmda::metaprog::int_<0>, libmda::metaprog::int_<200> >, libmda::metaprog::detail::loop_iterator_impl<libmda::metaprog::int_<200>, libmda::metaprog::int_<0>, libmda::metaprog::int_<200> > >:aout <- RBX+0
	#DEBUG_VALUE: operator()<libmda::metaprog::detail::loop_iterator_impl<libmda::metaprog::int_<1>, libmda::metaprog::int_<0>, libmda::metaprog::int_<200> >, libmda::metaprog::detail::loop_iterator_impl<libmda::metaprog::int_<200>, libmda::metaprog::int_<0>, libmda::metaprog::int_<200> > >:this <- R14+0
	#DEBUG_VALUE: operator()<libmda::metaprog::detail::loop_iterator_impl<libmda::metaprog::int_<1>, libmda::metaprog::int_<0>, libmda::metaprog::int_<200> >, libmda::metaprog::detail::loop_iterator_impl<libmda::metaprog::int_<200>, libmda::metaprog::int_<0>, libmda::metaprog::int_<200> > >:aout <- RBX+0
	.loc	1 9 0 prologue_end      # main.cc:9:0
	movq	%rbx, %rdi
	xorl	%esi, %esi
	callq	_ZNSolsEi
.Ltmp16:
	#DEBUG_VALUE: operator<<<std::char_traits<char> >:__out <- RAX+0
	#DEBUG_VALUE: length:__s <- undef
	#DEBUG_VALUE: operator<<<std::char_traits<char> >:__s <- undef
	#DEBUG_VALUE: length:__s <- undef
	#DEBUG_VALUE: operator<<<std::char_traits<char> >:__s <- undef
	#DEBUG_VALUE: length:__s <- undef
	#DEBUG_VALUE: operator<<<std::char_traits<char> >:__s <- undef
	#DEBUG_VALUE: length:__s <- undef
	#DEBUG_VALUE: operator<<<std::char_traits<char> >:__s <- undef
	#DEBUG_VALUE: length:__s <- undef
	#DEBUG_VALUE: operator<<<std::char_traits<char> >:__s <- undef
	#DEBUG_VALUE: length:__s <- undef
	#DEBUG_VALUE: operator<<<std::char_traits<char> >:__s <- undef
	#DEBUG_VALUE: length:__s <- undef
	#DEBUG_VALUE: operator<<<std::char_traits<char> >:__s <- undef
	#DEBUG_VALUE: length:__s <- undef
	.loc	31 535 0                # /usr/lib/gcc/x86_64-linux-gnu/4.8/../../../../include/c++/4.8/ostream:535:0
	movq	%rax, %rdi
	movl	$.L.str, %esi
	movl	$1, %edx
	callq	_ZSt16__ostream_insertIcSt11char_traitsIcEERSt13basic_ostreamIT_T0_ES6_PKS3_l
.Ltmp17:
	.loc	1 9 0                   # main.cc:9:0
	movq	%rbx, %rdi
	movl	$1, %esi
	callq	_ZNSolsEi
.Ltmp18:
	#DEBUG_VALUE: operator<<<std::char_traits<char> >:__out <- RAX+0
	.loc	31 535 0                # /usr/lib/gcc/x86_64-linux-gnu/4.8/../../../../include/c++/4.8/ostream:535:0
	movq	%rax, %rdi
.Ltmp19:
	.loc	31 535 0                # /usr/lib/gcc/x86_64-linux-gnu/4.8/../../../../include/c++/4.8/ostream:535:0
	movl	$.L.str, %esi
	movl	$1, %edx
.Ltmp20:
	.loc	31 535 0                # /usr/lib/gcc/x86_64-linux-gnu/4.8/../../../../include/c++/4.8/ostream:535:0
	callq	_ZSt16__ostream_insertIcSt11char_traitsIcEERSt13basic_ostreamIT_T0_ES6_PKS3_l
.Ltmp21:
	.loc	1 9 0                   # main.cc:9:0
	movq	%rbx, %rdi
	movl	$2, %esi
	callq	_ZNSolsEi
.Ltmp22:
	#DEBUG_VALUE: operator<<<std::char_traits<char> >:__out <- RAX+0
	.loc	31 535 0                # /usr/lib/gcc/x86_64-linux-gnu/4.8/../../../../include/c++/4.8/ostream:535:0
	movq	%rax, %rdi
.Ltmp23:
	.loc	31 535 0                # /usr/lib/gcc/x86_64-linux-gnu/4.8/../../../../include/c++/4.8/ostream:535:0
	movl	$.L.str, %esi
	movl	$1, %edx
.Ltmp24:
	.loc	31 535 0                # /usr/lib/gcc/x86_64-linux-gnu/4.8/../../../../include/c++/4.8/ostream:535:0
	callq	_ZSt16__ostream_insertIcSt11char_traitsIcEERSt13basic_ostreamIT_T0_ES6_PKS3_l
.Ltmp25:
	.loc	1 9 0                   # main.cc:9:0
	movq	%rbx, %rdi
	movl	$3, %esi
	callq	_ZNSolsEi
.Ltmp26:
	#DEBUG_VALUE: operator<<<std::char_traits<char> >:__out <- RAX+0
	.loc	31 535 0                # /usr/lib/gcc/x86_64-linux-gnu/4.8/../../../../include/c++/4.8/ostream:535:0
	movq	%rax, %rdi
.Ltmp27:
	.loc	31 535 0                # /usr/lib/gcc/x86_64-linux-gnu/4.8/../../../../include/c++/4.8/ostream:535:0
	movl	$.L.str, %esi
	movl	$1, %edx
.Ltmp28:
	.loc	31 535 0                # /usr/lib/gcc/x86_64-linux-gnu/4.8/../../../../include/c++/4.8/ostream:535:0
	callq	_ZSt16__ostream_insertIcSt11char_traitsIcEERSt13basic_ostreamIT_T0_ES6_PKS3_l
.Ltmp29:
	.loc	1 9 0                   # main.cc:9:0
	movq	%rbx, %rdi
	movl	$4, %esi
	callq	_ZNSolsEi
.Ltmp30:
	#DEBUG_VALUE: operator<<<std::char_traits<char> >:__out <- RAX+0
	.loc	31 535 0                # /usr/lib/gcc/x86_64-linux-gnu/4.8/../../../../include/c++/4.8/ostream:535:0
	movq	%rax, %rdi
.Ltmp31:
	.loc	31 535 0                # /usr/lib/gcc/x86_64-linux-gnu/4.8/../../../../include/c++/4.8/ostream:535:0
	movl	$.L.str, %esi
	movl	$1, %edx
.Ltmp32:
	.loc	31 535 0                # /usr/lib/gcc/x86_64-linux-gnu/4.8/../../../../include/c++/4.8/ostream:535:0
	callq	_ZSt16__ostream_insertIcSt11char_traitsIcEERSt13basic_ostreamIT_T0_ES6_PKS3_l
.Ltmp33:
	.loc	1 9 0                   # main.cc:9:0
	movq	%rbx, %rdi
	movl	$5, %esi
	callq	_ZNSolsEi
.Ltmp34:
	#DEBUG_VALUE: operator<<<std::char_traits<char> >:__out <- RAX+0
	.loc	31 535 0                # /usr/lib/gcc/x86_64-linux-gnu/4.8/../../../../include/c++/4.8/ostream:535:0
	movq	%rax, %rdi
.Ltmp35:
	.loc	31 535 0                # /usr/lib/gcc/x86_64-linux-gnu/4.8/../../../../include/c++/4.8/ostream:535:0
	movl	$.L.str, %esi
	movl	$1, %edx
.Ltmp36:
	.loc	31 535 0                # /usr/lib/gcc/x86_64-linux-gnu/4.8/../../../../include/c++/4.8/ostream:535:0
	callq	_ZSt16__ostream_insertIcSt11char_traitsIcEERSt13basic_ostreamIT_T0_ES6_PKS3_l
.Ltmp37:
	.loc	1 9 0                   # main.cc:9:0
	movq	%rbx, %rdi
	movl	$6, %esi
	callq	_ZNSolsEi
.Ltmp38:
	#DEBUG_VALUE: operator<<<std::char_traits<char> >:__out <- RAX+0
	.loc	31 535 0                # /usr/lib/gcc/x86_64-linux-gnu/4.8/../../../../include/c++/4.8/ostream:535:0
	movq	%rax, %rdi
.Ltmp39:
	.loc	31 535 0                # /usr/lib/gcc/x86_64-linux-gnu/4.8/../../../../include/c++/4.8/ostream:535:0
	movl	$.L.str, %esi
	movl	$1, %edx
.Ltmp40:
	.loc	31 535 0                # /usr/lib/gcc/x86_64-linux-gnu/4.8/../../../../include/c++/4.8/ostream:535:0
	callq	_ZSt16__ostream_insertIcSt11char_traitsIcEERSt13basic_ostreamIT_T0_ES6_PKS3_l
.Ltmp41:
	.loc	1 9 0                   # main.cc:9:0
	movq	%rbx, %rdi
	movl	$7, %esi
	callq	_ZNSolsEi
.Ltmp42:
	#DEBUG_VALUE: operator<<<std::char_traits<char> >:__out <- RAX+0
	.loc	31 535 0                # /usr/lib/gcc/x86_64-linux-gnu/4.8/../../../../include/c++/4.8/ostream:535:0
	movq	%rax, %rdi
.Ltmp43:
	.loc	31 535 0                # /usr/lib/gcc/x86_64-linux-gnu/4.8/../../../../include/c++/4.8/ostream:535:0
	movl	$.L.str, %esi
	movl	$1, %edx
.Ltmp44:
	.loc	31 535 0                # /usr/lib/gcc/x86_64-linux-gnu/4.8/../../../../include/c++/4.8/ostream:535:0
	callq	_ZSt16__ostream_insertIcSt11char_traitsIcEERSt13basic_ostreamIT_T0_ES6_PKS3_l
.Ltmp45:
	.loc	1 10 0                  # main.cc:10:0
	movq	%r14, %rdi
.Ltmp46:
	#DEBUG_VALUE: operator()<libmda::metaprog::detail::loop_iterator_impl<libmda::metaprog::int_<0>, libmda::metaprog::int_<0>, libmda::metaprog::int_<200> >, libmda::metaprog::detail::loop_iterator_impl<libmda::metaprog::int_<200>, libmda::metaprog::int_<0>, libmda::metaprog::int_<200> > >:this <- RDI+0
	movq	%rbx, %rsi
	addq	$8, %rsp
	popq	%rbx
.Ltmp47:
	popq	%r14
.Ltmp48:
	jmp	_ZN5Forr_clIN6libmda8metaprog6detail18loop_iterator_implINS2_4int_ILi8EEENS5_ILi0EEENS5_ILi200EEEEENS4_IS8_S7_S8_EEEEvRSoT_T0_ # TAILCALL
.Ltmp49:
.Ltmp50:
	.size	_ZN5Forr_clIN6libmda8metaprog6detail18loop_iterator_implINS2_4int_ILi0EEES6_NS5_ILi200EEEEENS4_IS7_S6_S7_EEEEvRSoT_T0_, .Ltmp50-_ZN5Forr_clIN6libmda8metaprog6detail18loop_iterator_implINS2_4int_ILi0EEES6_NS5_ILi200EEEEENS4_IS7_S6_S7_EEEEvRSoT_T0_
.Lfunc_end1:
	.cfi_endproc

	.section	.text._ZN5Forr_clIN6libmda8metaprog6detail18loop_iterator_implINS2_4int_ILi8EEENS5_ILi0EEENS5_ILi200EEEEENS4_IS8_S7_S8_EEEEvRSoT_T0_,"axG",@progbits,_ZN5Forr_clIN6libmda8metaprog6detail18loop_iterator_implINS2_4int_ILi8EEENS5_ILi0EEENS5_ILi200EEEEENS4_IS8_S7_S8_EEEEvRSoT_T0_,comdat
	.weak	_ZN5Forr_clIN6libmda8metaprog6detail18loop_iterator_implINS2_4int_ILi8EEENS5_ILi0EEENS5_ILi200EEEEENS4_IS8_S7_S8_EEEEvRSoT_T0_
	.align	16, 0x90
	.type	_ZN5Forr_clIN6libmda8metaprog6detail18loop_iterator_implINS2_4int_ILi8EEENS5_ILi0EEENS5_ILi200EEEEENS4_IS8_S7_S8_EEEEvRSoT_T0_,@function
_ZN5Forr_clIN6libmda8metaprog6detail18loop_iterator_implINS2_4int_ILi8EEENS5_ILi0EEENS5_ILi200EEEEENS4_IS8_S7_S8_EEEEvRSoT_T0_: # @_ZN5Forr_clIN6libmda8metaprog6detail18loop_iterator_implINS2_4int_ILi8EEENS5_ILi0EEENS5_ILi200EEEEENS4_IS8_S7_S8_EEEEvRSoT_T0_
	.cfi_startproc
.Lfunc_begin2:
	.loc	1 8 0                   # main.cc:8:0
# BB#0:                                 # %entry
	pushq	%r14
.Ltmp54:
	.cfi_def_cfa_offset 16
	pushq	%rbx
.Ltmp55:
	.cfi_def_cfa_offset 24
	pushq	%rax
.Ltmp56:
	.cfi_def_cfa_offset 32
.Ltmp57:
	.cfi_offset %rbx, -24
.Ltmp58:
	.cfi_offset %r14, -16
	#DEBUG_VALUE: operator()<libmda::metaprog::detail::loop_iterator_impl<libmda::metaprog::int_<8>, libmda::metaprog::int_<0>, libmda::metaprog::int_<200> >, libmda::metaprog::detail::loop_iterator_impl<libmda::metaprog::int_<200>, libmda::metaprog::int_<0>, libmda::metaprog::int_<200> > >:this <- RDI+0
	#DEBUG_VALUE: operator()<libmda::metaprog::detail::loop_iterator_impl<libmda::metaprog::int_<8>, libmda::metaprog::int_<0>, libmda::metaprog::int_<200> >, libmda::metaprog::detail::loop_iterator_impl<libmda::metaprog::int_<200>, libmda::metaprog::int_<0>, libmda::metaprog::int_<200> > >:aout <- RSI+0
	movq	%rsi, %rbx
.Ltmp59:
	#DEBUG_VALUE: operator()<libmda::metaprog::detail::loop_iterator_impl<libmda::metaprog::int_<8>, libmda::metaprog::int_<0>, libmda::metaprog::int_<200> >, libmda::metaprog::detail::loop_iterator_impl<libmda::metaprog::int_<200>, libmda::metaprog::int_<0>, libmda::metaprog::int_<200> > >:aout <- RBX+0
	movq	%rdi, %r14
.Ltmp60:
	#DEBUG_VALUE: operator()<libmda::metaprog::detail::loop_iterator_impl<libmda::metaprog::int_<8>, libmda::metaprog::int_<0>, libmda::metaprog::int_<200> >, libmda::metaprog::detail::loop_iterator_impl<libmda::metaprog::int_<200>, libmda::metaprog::int_<0>, libmda::metaprog::int_<200> > >:this <- R14+0
	#DEBUG_VALUE: operator()<libmda::metaprog::detail::loop_iterator_impl<libmda::metaprog::int_<15>, libmda::metaprog::int_<0>, libmda::metaprog::int_<200> >, libmda::metaprog::detail::loop_iterator_impl<libmda::metaprog::int_<200>, libmda::metaprog::int_<0>, libmda::metaprog::int_<200> > >:this <- R14+0
	#DEBUG_VALUE: operator()<libmda::metaprog::detail::loop_iterator_impl<libmda::metaprog::int_<15>, libmda::metaprog::int_<0>, libmda::metaprog::int_<200> >, libmda::metaprog::detail::loop_iterator_impl<libmda::metaprog::int_<200>, libmda::metaprog::int_<0>, libmda::metaprog::int_<200> > >:aout <- RBX+0
	#DEBUG_VALUE: operator()<libmda::metaprog::detail::loop_iterator_impl<libmda::metaprog::int_<14>, libmda::metaprog::int_<0>, libmda::metaprog::int_<200> >, libmda::metaprog::detail::loop_iterator_impl<libmda::metaprog::int_<200>, libmda::metaprog::int_<0>, libmda::metaprog::int_<200> > >:this <- R14+0
	#DEBUG_VALUE: operator()<libmda::metaprog::detail::loop_iterator_impl<libmda::metaprog::int_<14>, libmda::metaprog::int_<0>, libmda::metaprog::int_<200> >, libmda::metaprog::detail::loop_iterator_impl<libmda::metaprog::int_<200>, libmda::metaprog::int_<0>, libmda::metaprog::int_<200> > >:aout <- RBX+0
	#DEBUG_VALUE: operator()<libmda::metaprog::detail::loop_iterator_impl<libmda::metaprog::int_<13>, libmda::metaprog::int_<0>, libmda::metaprog::int_<200> >, libmda::metaprog::detail::loop_iterator_impl<libmda::metaprog::int_<200>, libmda::metaprog::int_<0>, libmda::metaprog::int_<200> > >:this <- R14+0
	#DEBUG_VALUE: operator()<libmda::metaprog::detail::loop_iterator_impl<libmda::metaprog::int_<13>, libmda::metaprog::int_<0>, libmda::metaprog::int_<200> >, libmda::metaprog::detail::loop_iterator_impl<libmda::metaprog::int_<200>, libmda::metaprog::int_<0>, libmda::metaprog::int_<200> > >:aout <- RBX+0
	#DEBUG_VALUE: operator()<libmda::metaprog::detail::loop_iterator_impl<libmda::metaprog::int_<12>, libmda::metaprog::int_<0>, libmda::metaprog::int_<200> >, libmda::metaprog::detail::loop_iterator_impl<libmda::metaprog::int_<200>, libmda::metaprog::int_<0>, libmda::metaprog::int_<200> > >:this <- R14+0
	#DEBUG_VALUE: operator()<libmda::metaprog::detail::loop_iterator_impl<libmda::metaprog::int_<12>, libmda::metaprog::int_<0>, libmda::metaprog::int_<200> >, libmda::metaprog::detail::loop_iterator_impl<libmda::metaprog::int_<200>, libmda::metaprog::int_<0>, libmda::metaprog::int_<200> > >:aout <- RBX+0
	#DEBUG_VALUE: operator()<libmda::metaprog::detail::loop_iterator_impl<libmda::metaprog::int_<11>, libmda::metaprog::int_<0>, libmda::metaprog::int_<200> >, libmda::metaprog::detail::loop_iterator_impl<libmda::metaprog::int_<200>, libmda::metaprog::int_<0>, libmda::metaprog::int_<200> > >:this <- R14+0
	#DEBUG_VALUE: operator()<libmda::metaprog::detail::loop_iterator_impl<libmda::metaprog::int_<11>, libmda::metaprog::int_<0>, libmda::metaprog::int_<200> >, libmda::metaprog::detail::loop_iterator_impl<libmda::metaprog::int_<200>, libmda::metaprog::int_<0>, libmda::metaprog::int_<200> > >:aout <- RBX+0
	#DEBUG_VALUE: operator()<libmda::metaprog::detail::loop_iterator_impl<libmda::metaprog::int_<10>, libmda::metaprog::int_<0>, libmda::metaprog::int_<200> >, libmda::metaprog::detail::loop_iterator_impl<libmda::metaprog::int_<200>, libmda::metaprog::int_<0>, libmda::metaprog::int_<200> > >:this <- R14+0
	#DEBUG_VALUE: operator()<libmda::metaprog::detail::loop_iterator_impl<libmda::metaprog::int_<10>, libmda::metaprog::int_<0>, libmda::metaprog::int_<200> >, libmda::metaprog::detail::loop_iterator_impl<libmda::metaprog::int_<200>, libmda::metaprog::int_<0>, libmda::metaprog::int_<200> > >:aout <- RBX+0
	#DEBUG_VALUE: operator()<libmda::metaprog::detail::loop_iterator_impl<libmda::metaprog::int_<9>, libmda::metaprog::int_<0>, libmda::metaprog::int_<200> >, libmda::metaprog::detail::loop_iterator_impl<libmda::metaprog::int_<200>, libmda::metaprog::int_<0>, libmda::metaprog::int_<200> > >:this <- R14+0
	#DEBUG_VALUE: operator()<libmda::metaprog::detail::loop_iterator_impl<libmda::metaprog::int_<9>, libmda::metaprog::int_<0>, libmda::metaprog::int_<200> >, libmda::metaprog::detail::loop_iterator_impl<libmda::metaprog::int_<200>, libmda::metaprog::int_<0>, libmda::metaprog::int_<200> > >:aout <- RBX+0
	.loc	1 9 0 prologue_end      # main.cc:9:0
	movq	%rbx, %rdi
	movl	$8, %esi
	callq	_ZNSolsEi
.Ltmp61:
	#DEBUG_VALUE: operator<<<std::char_traits<char> >:__out <- RAX+0
	#DEBUG_VALUE: length:__s <- undef
	#DEBUG_VALUE: operator<<<std::char_traits<char> >:__s <- undef
	#DEBUG_VALUE: length:__s <- undef
	#DEBUG_VALUE: operator<<<std::char_traits<char> >:__s <- undef
	#DEBUG_VALUE: length:__s <- undef
	#DEBUG_VALUE: operator<<<std::char_traits<char> >:__s <- undef
	#DEBUG_VALUE: length:__s <- undef
	#DEBUG_VALUE: operator<<<std::char_traits<char> >:__s <- undef
	#DEBUG_VALUE: length:__s <- undef
	#DEBUG_VALUE: operator<<<std::char_traits<char> >:__s <- undef
	#DEBUG_VALUE: length:__s <- undef
	#DEBUG_VALUE: operator<<<std::char_traits<char> >:__s <- undef
	#DEBUG_VALUE: length:__s <- undef
	#DEBUG_VALUE: operator<<<std::char_traits<char> >:__s <- undef
	#DEBUG_VALUE: length:__s <- undef
	.loc	31 535 0                # /usr/lib/gcc/x86_64-linux-gnu/4.8/../../../../include/c++/4.8/ostream:535:0
	movq	%rax, %rdi
	movl	$.L.str, %esi
	movl	$1, %edx
	callq	_ZSt16__ostream_insertIcSt11char_traitsIcEERSt13basic_ostreamIT_T0_ES6_PKS3_l
.Ltmp62:
	.loc	1 9 0                   # main.cc:9:0
	movq	%rbx, %rdi
	movl	$9, %esi
	callq	_ZNSolsEi
.Ltmp63:
	#DEBUG_VALUE: operator<<<std::char_traits<char> >:__out <- RAX+0
	.loc	31 535 0                # /usr/lib/gcc/x86_64-linux-gnu/4.8/../../../../include/c++/4.8/ostream:535:0
	movq	%rax, %rdi
.Ltmp64:
	.loc	31 535 0                # /usr/lib/gcc/x86_64-linux-gnu/4.8/../../../../include/c++/4.8/ostream:535:0
	movl	$.L.str, %esi
	movl	$1, %edx
.Ltmp65:
	.loc	31 535 0                # /usr/lib/gcc/x86_64-linux-gnu/4.8/../../../../include/c++/4.8/ostream:535:0
	callq	_ZSt16__ostream_insertIcSt11char_traitsIcEERSt13basic_ostreamIT_T0_ES6_PKS3_l
.Ltmp66:
	.loc	1 9 0                   # main.cc:9:0
	movq	%rbx, %rdi
	movl	$10, %esi
	callq	_ZNSolsEi
.Ltmp67:
	#DEBUG_VALUE: operator<<<std::char_traits<char> >:__out <- RAX+0
	.loc	31 535 0                # /usr/lib/gcc/x86_64-linux-gnu/4.8/../../../../include/c++/4.8/ostream:535:0
	movq	%rax, %rdi
.Ltmp68:
	.loc	31 535 0                # /usr/lib/gcc/x86_64-linux-gnu/4.8/../../../../include/c++/4.8/ostream:535:0
	movl	$.L.str, %esi
	movl	$1, %edx
.Ltmp69:
	.loc	31 535 0                # /usr/lib/gcc/x86_64-linux-gnu/4.8/../../../../include/c++/4.8/ostream:535:0
	callq	_ZSt16__ostream_insertIcSt11char_traitsIcEERSt13basic_ostreamIT_T0_ES6_PKS3_l
.Ltmp70:
	.loc	1 9 0                   # main.cc:9:0
	movq	%rbx, %rdi
	movl	$11, %esi
	callq	_ZNSolsEi
.Ltmp71:
	#DEBUG_VALUE: operator<<<std::char_traits<char> >:__out <- RAX+0
	.loc	31 535 0                # /usr/lib/gcc/x86_64-linux-gnu/4.8/../../../../include/c++/4.8/ostream:535:0
	movq	%rax, %rdi
.Ltmp72:
	.loc	31 535 0                # /usr/lib/gcc/x86_64-linux-gnu/4.8/../../../../include/c++/4.8/ostream:535:0
	movl	$.L.str, %esi
	movl	$1, %edx
.Ltmp73:
	.loc	31 535 0                # /usr/lib/gcc/x86_64-linux-gnu/4.8/../../../../include/c++/4.8/ostream:535:0
	callq	_ZSt16__ostream_insertIcSt11char_traitsIcEERSt13basic_ostreamIT_T0_ES6_PKS3_l
.Ltmp74:
	.loc	1 9 0                   # main.cc:9:0
	movq	%rbx, %rdi
	movl	$12, %esi
	callq	_ZNSolsEi
.Ltmp75:
	#DEBUG_VALUE: operator<<<std::char_traits<char> >:__out <- RAX+0
	.loc	31 535 0                # /usr/lib/gcc/x86_64-linux-gnu/4.8/../../../../include/c++/4.8/ostream:535:0
	movq	%rax, %rdi
.Ltmp76:
	.loc	31 535 0                # /usr/lib/gcc/x86_64-linux-gnu/4.8/../../../../include/c++/4.8/ostream:535:0
	movl	$.L.str, %esi
	movl	$1, %edx
.Ltmp77:
	.loc	31 535 0                # /usr/lib/gcc/x86_64-linux-gnu/4.8/../../../../include/c++/4.8/ostream:535:0
	callq	_ZSt16__ostream_insertIcSt11char_traitsIcEERSt13basic_ostreamIT_T0_ES6_PKS3_l
.Ltmp78:
	.loc	1 9 0                   # main.cc:9:0
	movq	%rbx, %rdi
	movl	$13, %esi
	callq	_ZNSolsEi
.Ltmp79:
	#DEBUG_VALUE: operator<<<std::char_traits<char> >:__out <- RAX+0
	.loc	31 535 0                # /usr/lib/gcc/x86_64-linux-gnu/4.8/../../../../include/c++/4.8/ostream:535:0
	movq	%rax, %rdi
.Ltmp80:
	.loc	31 535 0                # /usr/lib/gcc/x86_64-linux-gnu/4.8/../../../../include/c++/4.8/ostream:535:0
	movl	$.L.str, %esi
	movl	$1, %edx
.Ltmp81:
	.loc	31 535 0                # /usr/lib/gcc/x86_64-linux-gnu/4.8/../../../../include/c++/4.8/ostream:535:0
	callq	_ZSt16__ostream_insertIcSt11char_traitsIcEERSt13basic_ostreamIT_T0_ES6_PKS3_l
.Ltmp82:
	.loc	1 9 0                   # main.cc:9:0
	movq	%rbx, %rdi
	movl	$14, %esi
	callq	_ZNSolsEi
.Ltmp83:
	#DEBUG_VALUE: operator<<<std::char_traits<char> >:__out <- RAX+0
	.loc	31 535 0                # /usr/lib/gcc/x86_64-linux-gnu/4.8/../../../../include/c++/4.8/ostream:535:0
	movq	%rax, %rdi
.Ltmp84:
	.loc	31 535 0                # /usr/lib/gcc/x86_64-linux-gnu/4.8/../../../../include/c++/4.8/ostream:535:0
	movl	$.L.str, %esi
	movl	$1, %edx
.Ltmp85:
	.loc	31 535 0                # /usr/lib/gcc/x86_64-linux-gnu/4.8/../../../../include/c++/4.8/ostream:535:0
	callq	_ZSt16__ostream_insertIcSt11char_traitsIcEERSt13basic_ostreamIT_T0_ES6_PKS3_l
.Ltmp86:
	.loc	1 9 0                   # main.cc:9:0
	movq	%rbx, %rdi
	movl	$15, %esi
	callq	_ZNSolsEi
.Ltmp87:
	#DEBUG_VALUE: operator<<<std::char_traits<char> >:__out <- RAX+0
	.loc	31 535 0                # /usr/lib/gcc/x86_64-linux-gnu/4.8/../../../../include/c++/4.8/ostream:535:0
	movq	%rax, %rdi
.Ltmp88:
	.loc	31 535 0                # /usr/lib/gcc/x86_64-linux-gnu/4.8/../../../../include/c++/4.8/ostream:535:0
	movl	$.L.str, %esi
	movl	$1, %edx
.Ltmp89:
	.loc	31 535 0                # /usr/lib/gcc/x86_64-linux-gnu/4.8/../../../../include/c++/4.8/ostream:535:0
	callq	_ZSt16__ostream_insertIcSt11char_traitsIcEERSt13basic_ostreamIT_T0_ES6_PKS3_l
.Ltmp90:
	.loc	1 10 0                  # main.cc:10:0
	movq	%r14, %rdi
.Ltmp91:
	#DEBUG_VALUE: operator()<libmda::metaprog::detail::loop_iterator_impl<libmda::metaprog::int_<8>, libmda::metaprog::int_<0>, libmda::metaprog::int_<200> >, libmda::metaprog::detail::loop_iterator_impl<libmda::metaprog::int_<200>, libmda::metaprog::int_<0>, libmda::metaprog::int_<200> > >:this <- RDI+0
	movq	%rbx, %rsi
	addq	$8, %rsp
	popq	%rbx
.Ltmp92:
	popq	%r14
.Ltmp93:
	jmp	_ZN5Forr_clIN6libmda8metaprog6detail18loop_iterator_implINS2_4int_ILi16EEENS5_ILi0EEENS5_ILi200EEEEENS4_IS8_S7_S8_EEEEvRSoT_T0_ # TAILCALL
.Ltmp94:
.Ltmp95:
	.size	_ZN5Forr_clIN6libmda8metaprog6detail18loop_iterator_implINS2_4int_ILi8EEENS5_ILi0EEENS5_ILi200EEEEENS4_IS8_S7_S8_EEEEvRSoT_T0_, .Ltmp95-_ZN5Forr_clIN6libmda8metaprog6detail18loop_iterator_implINS2_4int_ILi8EEENS5_ILi0EEENS5_ILi200EEEEENS4_IS8_S7_S8_EEEEvRSoT_T0_
.Lfunc_end2:
	.cfi_endproc

	.section	.text._ZN5Forr_clIN6libmda8metaprog6detail18loop_iterator_implINS2_4int_ILi16EEENS5_ILi0EEENS5_ILi200EEEEENS4_IS8_S7_S8_EEEEvRSoT_T0_,"axG",@progbits,_ZN5Forr_clIN6libmda8metaprog6detail18loop_iterator_implINS2_4int_ILi16EEENS5_ILi0EEENS5_ILi200EEEEENS4_IS8_S7_S8_EEEEvRSoT_T0_,comdat
	.weak	_ZN5Forr_clIN6libmda8metaprog6detail18loop_iterator_implINS2_4int_ILi16EEENS5_ILi0EEENS5_ILi200EEEEENS4_IS8_S7_S8_EEEEvRSoT_T0_
	.align	16, 0x90
	.type	_ZN5Forr_clIN6libmda8metaprog6detail18loop_iterator_implINS2_4int_ILi16EEENS5_ILi0EEENS5_ILi200EEEEENS4_IS8_S7_S8_EEEEvRSoT_T0_,@function
_ZN5Forr_clIN6libmda8metaprog6detail18loop_iterator_implINS2_4int_ILi16EEENS5_ILi0EEENS5_ILi200EEEEENS4_IS8_S7_S8_EEEEvRSoT_T0_: # @_ZN5Forr_clIN6libmda8metaprog6detail18loop_iterator_implINS2_4int_ILi16EEENS5_ILi0EEENS5_ILi200EEEEENS4_IS8_S7_S8_EEEEvRSoT_T0_
	.cfi_startproc
.Lfunc_begin3:
	.loc	1 8 0                   # main.cc:8:0
# BB#0:                                 # %entry
	pushq	%r14
.Ltmp99:
	.cfi_def_cfa_offset 16
	pushq	%rbx
.Ltmp100:
	.cfi_def_cfa_offset 24
	pushq	%rax
.Ltmp101:
	.cfi_def_cfa_offset 32
.Ltmp102:
	.cfi_offset %rbx, -24
.Ltmp103:
	.cfi_offset %r14, -16
	#DEBUG_VALUE: operator()<libmda::metaprog::detail::loop_iterator_impl<libmda::metaprog::int_<16>, libmda::metaprog::int_<0>, libmda::metaprog::int_<200> >, libmda::metaprog::detail::loop_iterator_impl<libmda::metaprog::int_<200>, libmda::metaprog::int_<0>, libmda::metaprog::int_<200> > >:this <- RDI+0
	#DEBUG_VALUE: operator()<libmda::metaprog::detail::loop_iterator_impl<libmda::metaprog::int_<16>, libmda::metaprog::int_<0>, libmda::metaprog::int_<200> >, libmda::metaprog::detail::loop_iterator_impl<libmda::metaprog::int_<200>, libmda::metaprog::int_<0>, libmda::metaprog::int_<200> > >:aout <- RSI+0
	movq	%rsi, %rbx
.Ltmp104:
	#DEBUG_VALUE: operator()<libmda::metaprog::detail::loop_iterator_impl<libmda::metaprog::int_<16>, libmda::metaprog::int_<0>, libmda::metaprog::int_<200> >, libmda::metaprog::detail::loop_iterator_impl<libmda::metaprog::int_<200>, libmda::metaprog::int_<0>, libmda::metaprog::int_<200> > >:aout <- RBX+0
	movq	%rdi, %r14
.Ltmp105:
	#DEBUG_VALUE: operator()<libmda::metaprog::detail::loop_iterator_impl<libmda::metaprog::int_<16>, libmda::metaprog::int_<0>, libmda::metaprog::int_<200> >, libmda::metaprog::detail::loop_iterator_impl<libmda::metaprog::int_<200>, libmda::metaprog::int_<0>, libmda::metaprog::int_<200> > >:this <- R14+0
	#DEBUG_VALUE: operator()<libmda::metaprog::detail::loop_iterator_impl<libmda::metaprog::int_<23>, libmda::metaprog::int_<0>, libmda::metaprog::int_<200> >, libmda::metaprog::detail::loop_iterator_impl<libmda::metaprog::int_<200>, libmda::metaprog::int_<0>, libmda::metaprog::int_<200> > >:this <- R14+0
	#DEBUG_VALUE: operator()<libmda::metaprog::detail::loop_iterator_impl<libmda::metaprog::int_<23>, libmda::metaprog::int_<0>, libmda::metaprog::int_<200> >, libmda::metaprog::detail::loop_iterator_impl<libmda::metaprog::int_<200>, libmda::metaprog::int_<0>, libmda::metaprog::int_<200> > >:aout <- RBX+0
	#DEBUG_VALUE: operator()<libmda::metaprog::detail::loop_iterator_impl<libmda::metaprog::int_<22>, libmda::metaprog::int_<0>, libmda::metaprog::int_<200> >, libmda::metaprog::detail::loop_iterator_impl<libmda::metaprog::int_<200>, libmda::metaprog::int_<0>, libmda::metaprog::int_<200> > >:this <- R14+0
	#DEBUG_VALUE: operator()<libmda::metaprog::detail::loop_iterator_impl<libmda::metaprog::int_<22>, libmda::metaprog::int_<0>, libmda::metaprog::int_<200> >, libmda::metaprog::detail::loop_iterator_impl<libmda::metaprog::int_<200>, libmda::metaprog::int_<0>, libmda::metaprog::int_<200> > >:aout <- RBX+0
	#DEBUG_VALUE: operator()<libmda::metaprog::detail::loop_iterator_impl<libmda::metaprog::int_<21>, libmda::metaprog::int_<0>, libmda::metaprog::int_<200> >, libmda::metaprog::detail::loop_iterator_impl<libmda::metaprog::int_<200>, libmda::metaprog::int_<0>, libmda::metaprog::int_<200> > >:this <- R14+0
	#DEBUG_VALUE: operator()<libmda::metaprog::detail::loop_iterator_impl<libmda::metaprog::int_<21>, libmda::metaprog::int_<0>, libmda::metaprog::int_<200> >, libmda::metaprog::detail::loop_iterator_impl<libmda::metaprog::int_<200>, libmda::metaprog::int_<0>, libmda::metaprog::int_<200> > >:aout <- RBX+0
	#DEBUG_VALUE: operator()<libmda::metaprog::detail::loop_iterator_impl<libmda::metaprog::int_<20>, libmda::metaprog::int_<0>, libmda::metaprog::int_<200> >, libmda::metaprog::detail::loop_iterator_impl<libmda::metaprog::int_<200>, libmda::metaprog::int_<0>, libmda::metaprog::int_<200> > >:this <- R14+0
	#DEBUG_VALUE: operator()<libmda::metaprog::detail::loop_iterator_impl<libmda::metaprog::int_<20>, libmda::metaprog::int_<0>, libmda::metaprog::int_<200> >, libmda::metaprog::detail::loop_iterator_impl<libmda::metaprog::int_<200>, libmda::metaprog::int_<0>, libmda::metaprog::int_<200> > >:aout <- RBX+0
	#DEBUG_VALUE: operator()<libmda::metaprog::detail::loop_iterator_impl<libmda::metaprog::int_<19>, libmda::metaprog::int_<0>, libmda::metaprog::int_<200> >, libmda::metaprog::detail::loop_iterator_impl<libmda::metaprog::int_<200>, libmda::metaprog::int_<0>, libmda::metaprog::int_<200> > >:this <- R14+0
	#DEBUG_VALUE: operator()<libmda::metaprog::detail::loop_iterator_impl<libmda::metaprog::int_<19>, libmda::metaprog::int_<0>, libmda::metaprog::int_<200> >, libmda::metaprog::detail::loop_iterator_impl<libmda::metaprog::int_<200>, libmda::metaprog::int_<0>, libmda::metaprog::int_<200> > >:aout <- RBX+0
	#DEBUG_VALUE: operator()<libmda::metaprog::detail::loop_iterator_impl<libmda::metaprog::int_<18>, libmda::metaprog::int_<0>, libmda::metaprog::int_<200> >, libmda::metaprog::detail::loop_iterator_impl<libmda::metaprog::int_<200>, libmda::metaprog::int_<0>, libmda::metaprog::int_<200> > >:this <- R14+0
	#DEBUG_VALUE: operator()<libmda::metaprog::detail::loop_iterator_impl<libmda::metaprog::int_<18>, libmda::metaprog::int_<0>, libmda::metaprog::int_<200> >, libmda::metaprog::detail::loop_iterator_impl<libmda::metaprog::int_<200>, libmda::metaprog::int_<0>, libmda::metaprog::int_<200> > >:aout <- RBX+0
	#DEBUG_VALUE: operator()<libmda::metaprog::detail::loop_iterator_impl<libmda::metaprog::int_<17>, libmda::metaprog::int_<0>, libmda::metaprog::int_<200> >, libmda::metaprog::detail::loop_iterator_impl<libmda::metaprog::int_<200>, libmda::metaprog::int_<0>, libmda::metaprog::int_<200> > >:this <- R14+0
	#DEBUG_VALUE: operator()<libmda::metaprog::detail::loop_iterator_impl<libmda::metaprog::int_<17>, libmda::metaprog::int_<0>, libmda::metaprog::int_<200> >, libmda::metaprog::detail::loop_iterator_impl<libmda::metaprog::int_<200>, libmda::metaprog::int_<0>, libmda::metaprog::int_<200> > >:aout <- RBX+0
	.loc	1 9 0 prologue_end      # main.cc:9:0
	movq	%rbx, %rdi
	movl	$16, %esi
	callq	_ZNSolsEi
.Ltmp106:
	#DEBUG_VALUE: operator<<<std::char_traits<char> >:__out <- RAX+0
	#DEBUG_VALUE: length:__s <- undef
	#DEBUG_VALUE: operator<<<std::char_traits<char> >:__s <- undef
	#DEBUG_VALUE: length:__s <- undef
	#DEBUG_VALUE: operator<<<std::char_traits<char> >:__s <- undef
	#DEBUG_VALUE: length:__s <- undef
	#DEBUG_VALUE: operator<<<std::char_traits<char> >:__s <- undef
	#DEBUG_VALUE: length:__s <- undef
	#DEBUG_VALUE: operator<<<std::char_traits<char> >:__s <- undef
	#DEBUG_VALUE: length:__s <- undef
	#DEBUG_VALUE: operator<<<std::char_traits<char> >:__s <- undef
	#DEBUG_VALUE: length:__s <- undef
	#DEBUG_VALUE: operator<<<std::char_traits<char> >:__s <- undef
	#DEBUG_VALUE: length:__s <- undef
	#DEBUG_VALUE: operator<<<std::char_traits<char> >:__s <- undef
	#DEBUG_VALUE: length:__s <- undef
	.loc	31 535 0                # /usr/lib/gcc/x86_64-linux-gnu/4.8/../../../../include/c++/4.8/ostream:535:0
	movq	%rax, %rdi
	movl	$.L.str, %esi
	movl	$1, %edx
	callq	_ZSt16__ostream_insertIcSt11char_traitsIcEERSt13basic_ostreamIT_T0_ES6_PKS3_l
.Ltmp107:
	.loc	1 9 0                   # main.cc:9:0
	movq	%rbx, %rdi
	movl	$17, %esi
	callq	_ZNSolsEi
.Ltmp108:
	#DEBUG_VALUE: operator<<<std::char_traits<char> >:__out <- RAX+0
	.loc	31 535 0                # /usr/lib/gcc/x86_64-linux-gnu/4.8/../../../../include/c++/4.8/ostream:535:0
	movq	%rax, %rdi
.Ltmp109:
	.loc	31 535 0                # /usr/lib/gcc/x86_64-linux-gnu/4.8/../../../../include/c++/4.8/ostream:535:0
	movl	$.L.str, %esi
	movl	$1, %edx
.Ltmp110:
	.loc	31 535 0                # /usr/lib/gcc/x86_64-linux-gnu/4.8/../../../../include/c++/4.8/ostream:535:0
	callq	_ZSt16__ostream_insertIcSt11char_traitsIcEERSt13basic_ostreamIT_T0_ES6_PKS3_l
.Ltmp111:
	.loc	1 9 0                   # main.cc:9:0
	movq	%rbx, %rdi
	movl	$18, %esi
	callq	_ZNSolsEi
.Ltmp112:
	#DEBUG_VALUE: operator<<<std::char_traits<char> >:__out <- RAX+0
	.loc	31 535 0                # /usr/lib/gcc/x86_64-linux-gnu/4.8/../../../../include/c++/4.8/ostream:535:0
	movq	%rax, %rdi
.Ltmp113:
	.loc	31 535 0                # /usr/lib/gcc/x86_64-linux-gnu/4.8/../../../../include/c++/4.8/ostream:535:0
	movl	$.L.str, %esi
	movl	$1, %edx
.Ltmp114:
	.loc	31 535 0                # /usr/lib/gcc/x86_64-linux-gnu/4.8/../../../../include/c++/4.8/ostream:535:0
	callq	_ZSt16__ostream_insertIcSt11char_traitsIcEERSt13basic_ostreamIT_T0_ES6_PKS3_l
.Ltmp115:
	.loc	1 9 0                   # main.cc:9:0
	movq	%rbx, %rdi
	movl	$19, %esi
	callq	_ZNSolsEi
.Ltmp116:
	#DEBUG_VALUE: operator<<<std::char_traits<char> >:__out <- RAX+0
	.loc	31 535 0                # /usr/lib/gcc/x86_64-linux-gnu/4.8/../../../../include/c++/4.8/ostream:535:0
	movq	%rax, %rdi
.Ltmp117:
	.loc	31 535 0                # /usr/lib/gcc/x86_64-linux-gnu/4.8/../../../../include/c++/4.8/ostream:535:0
	movl	$.L.str, %esi
	movl	$1, %edx
.Ltmp118:
	.loc	31 535 0                # /usr/lib/gcc/x86_64-linux-gnu/4.8/../../../../include/c++/4.8/ostream:535:0
	callq	_ZSt16__ostream_insertIcSt11char_traitsIcEERSt13basic_ostreamIT_T0_ES6_PKS3_l
.Ltmp119:
	.loc	1 9 0                   # main.cc:9:0
	movq	%rbx, %rdi
	movl	$20, %esi
	callq	_ZNSolsEi
.Ltmp120:
	#DEBUG_VALUE: operator<<<std::char_traits<char> >:__out <- RAX+0
	.loc	31 535 0                # /usr/lib/gcc/x86_64-linux-gnu/4.8/../../../../include/c++/4.8/ostream:535:0
	movq	%rax, %rdi
.Ltmp121:
	.loc	31 535 0                # /usr/lib/gcc/x86_64-linux-gnu/4.8/../../../../include/c++/4.8/ostream:535:0
	movl	$.L.str, %esi
	movl	$1, %edx
.Ltmp122:
	.loc	31 535 0                # /usr/lib/gcc/x86_64-linux-gnu/4.8/../../../../include/c++/4.8/ostream:535:0
	callq	_ZSt16__ostream_insertIcSt11char_traitsIcEERSt13basic_ostreamIT_T0_ES6_PKS3_l
.Ltmp123:
	.loc	1 9 0                   # main.cc:9:0
	movq	%rbx, %rdi
	movl	$21, %esi
	callq	_ZNSolsEi
.Ltmp124:
	#DEBUG_VALUE: operator<<<std::char_traits<char> >:__out <- RAX+0
	.loc	31 535 0                # /usr/lib/gcc/x86_64-linux-gnu/4.8/../../../../include/c++/4.8/ostream:535:0
	movq	%rax, %rdi
.Ltmp125:
	.loc	31 535 0                # /usr/lib/gcc/x86_64-linux-gnu/4.8/../../../../include/c++/4.8/ostream:535:0
	movl	$.L.str, %esi
	movl	$1, %edx
.Ltmp126:
	.loc	31 535 0                # /usr/lib/gcc/x86_64-linux-gnu/4.8/../../../../include/c++/4.8/ostream:535:0
	callq	_ZSt16__ostream_insertIcSt11char_traitsIcEERSt13basic_ostreamIT_T0_ES6_PKS3_l
.Ltmp127:
	.loc	1 9 0                   # main.cc:9:0
	movq	%rbx, %rdi
	movl	$22, %esi
	callq	_ZNSolsEi
.Ltmp128:
	#DEBUG_VALUE: operator<<<std::char_traits<char> >:__out <- RAX+0
	.loc	31 535 0                # /usr/lib/gcc/x86_64-linux-gnu/4.8/../../../../include/c++/4.8/ostream:535:0
	movq	%rax, %rdi
.Ltmp129:
	.loc	31 535 0                # /usr/lib/gcc/x86_64-linux-gnu/4.8/../../../../include/c++/4.8/ostream:535:0
	movl	$.L.str, %esi
	movl	$1, %edx
.Ltmp130:
	.loc	31 535 0                # /usr/lib/gcc/x86_64-linux-gnu/4.8/../../../../include/c++/4.8/ostream:535:0
	callq	_ZSt16__ostream_insertIcSt11char_traitsIcEERSt13basic_ostreamIT_T0_ES6_PKS3_l
.Ltmp131:
	.loc	1 9 0                   # main.cc:9:0
	movq	%rbx, %rdi
	movl	$23, %esi
	callq	_ZNSolsEi
.Ltmp132:
	#DEBUG_VALUE: operator<<<std::char_traits<char> >:__out <- RAX+0
	.loc	31 535 0                # /usr/lib/gcc/x86_64-linux-gnu/4.8/../../../../include/c++/4.8/ostream:535:0
	movq	%rax, %rdi
.Ltmp133:
	.loc	31 535 0                # /usr/lib/gcc/x86_64-linux-gnu/4.8/../../../../include/c++/4.8/ostream:535:0
	movl	$.L.str, %esi
	movl	$1, %edx
.Ltmp134:
	.loc	31 535 0                # /usr/lib/gcc/x86_64-linux-gnu/4.8/../../../../include/c++/4.8/ostream:535:0
	callq	_ZSt16__ostream_insertIcSt11char_traitsIcEERSt13basic_ostreamIT_T0_ES6_PKS3_l
.Ltmp135:
	.loc	1 10 0                  # main.cc:10:0
	movq	%r14, %rdi
.Ltmp136:
	#DEBUG_VALUE: operator()<libmda::metaprog::detail::loop_iterator_impl<libmda::metaprog::int_<16>, libmda::metaprog::int_<0>, libmda::metaprog::int_<200> >, libmda::metaprog::detail::loop_iterator_impl<libmda::metaprog::int_<200>, libmda::metaprog::int_<0>, libmda::metaprog::int_<200> > >:this <- RDI+0
	movq	%rbx, %rsi
	addq	$8, %rsp
	popq	%rbx
.Ltmp137:
	popq	%r14
.Ltmp138:
	jmp	_ZN5Forr_clIN6libmda8metaprog6detail18loop_iterator_implINS2_4int_ILi24EEENS5_ILi0EEENS5_ILi200EEEEENS4_IS8_S7_S8_EEEEvRSoT_T0_ # TAILCALL
.Ltmp139:
.Ltmp140:
	.size	_ZN5Forr_clIN6libmda8metaprog6detail18loop_iterator_implINS2_4int_ILi16EEENS5_ILi0EEENS5_ILi200EEEEENS4_IS8_S7_S8_EEEEvRSoT_T0_, .Ltmp140-_ZN5Forr_clIN6libmda8metaprog6detail18loop_iterator_implINS2_4int_ILi16EEENS5_ILi0EEENS5_ILi200EEEEENS4_IS8_S7_S8_EEEEvRSoT_T0_
.Lfunc_end3:
	.cfi_endproc

	.section	.text._ZN5Forr_clIN6libmda8metaprog6detail18loop_iterator_implINS2_4int_ILi24EEENS5_ILi0EEENS5_ILi200EEEEENS4_IS8_S7_S8_EEEEvRSoT_T0_,"axG",@progbits,_ZN5Forr_clIN6libmda8metaprog6detail18loop_iterator_implINS2_4int_ILi24EEENS5_ILi0EEENS5_ILi200EEEEENS4_IS8_S7_S8_EEEEvRSoT_T0_,comdat
	.weak	_ZN5Forr_clIN6libmda8metaprog6detail18loop_iterator_implINS2_4int_ILi24EEENS5_ILi0EEENS5_ILi200EEEEENS4_IS8_S7_S8_EEEEvRSoT_T0_
	.align	16, 0x90
	.type	_ZN5Forr_clIN6libmda8metaprog6detail18loop_iterator_implINS2_4int_ILi24EEENS5_ILi0EEENS5_ILi200EEEEENS4_IS8_S7_S8_EEEEvRSoT_T0_,@function
_ZN5Forr_clIN6libmda8metaprog6detail18loop_iterator_implINS2_4int_ILi24EEENS5_ILi0EEENS5_ILi200EEEEENS4_IS8_S7_S8_EEEEvRSoT_T0_: # @_ZN5Forr_clIN6libmda8metaprog6detail18loop_iterator_implINS2_4int_ILi24EEENS5_ILi0EEENS5_ILi200EEEEENS4_IS8_S7_S8_EEEEvRSoT_T0_
	.cfi_startproc
.Lfunc_begin4:
	.loc	1 8 0                   # main.cc:8:0
# BB#0:                                 # %entry
	pushq	%r14
.Ltmp144:
	.cfi_def_cfa_offset 16
	pushq	%rbx
.Ltmp145:
	.cfi_def_cfa_offset 24
	pushq	%rax
.Ltmp146:
	.cfi_def_cfa_offset 32
.Ltmp147:
	.cfi_offset %rbx, -24
.Ltmp148:
	.cfi_offset %r14, -16
	#DEBUG_VALUE: operator()<libmda::metaprog::detail::loop_iterator_impl<libmda::metaprog::int_<24>, libmda::metaprog::int_<0>, libmda::metaprog::int_<200> >, libmda::metaprog::detail::loop_iterator_impl<libmda::metaprog::int_<200>, libmda::metaprog::int_<0>, libmda::metaprog::int_<200> > >:this <- RDI+0
	#DEBUG_VALUE: operator()<libmda::metaprog::detail::loop_iterator_impl<libmda::metaprog::int_<24>, libmda::metaprog::int_<0>, libmda::metaprog::int_<200> >, libmda::metaprog::detail::loop_iterator_impl<libmda::metaprog::int_<200>, libmda::metaprog::int_<0>, libmda::metaprog::int_<200> > >:aout <- RSI+0
	movq	%rsi, %rbx
.Ltmp149:
	#DEBUG_VALUE: operator()<libmda::metaprog::detail::loop_iterator_impl<libmda::metaprog::int_<24>, libmda::metaprog::int_<0>, libmda::metaprog::int_<200> >, libmda::metaprog::detail::loop_iterator_impl<libmda::metaprog::int_<200>, libmda::metaprog::int_<0>, libmda::metaprog::int_<200> > >:aout <- RBX+0
	movq	%rdi, %r14
.Ltmp150:
	#DEBUG_VALUE: operator()<libmda::metaprog::detail::loop_iterator_impl<libmda::metaprog::int_<24>, libmda::metaprog::int_<0>, libmda::metaprog::int_<200> >, libmda::metaprog::detail::loop_iterator_impl<libmda::metaprog::int_<200>, libmda::metaprog::int_<0>, libmda::metaprog::int_<200> > >:this <- R14+0
	#DEBUG_VALUE: operator()<libmda::metaprog::detail::loop_iterator_impl<libmda::metaprog::int_<31>, libmda::metaprog::int_<0>, libmda::metaprog::int_<200> >, libmda::metaprog::detail::loop_iterator_impl<libmda::metaprog::int_<200>, libmda::metaprog::int_<0>, libmda::metaprog::int_<200> > >:this <- R14+0
	#DEBUG_VALUE: operator()<libmda::metaprog::detail::loop_iterator_impl<libmda::metaprog::int_<31>, libmda::metaprog::int_<0>, libmda::metaprog::int_<200> >, libmda::metaprog::detail::loop_iterator_impl<libmda::metaprog::int_<200>, libmda::metaprog::int_<0>, libmda::metaprog::int_<200> > >:aout <- RBX+0
	#DEBUG_VALUE: operator()<libmda::metaprog::detail::loop_iterator_impl<libmda::metaprog::int_<30>, libmda::metaprog::int_<0>, libmda::metaprog::int_<200> >, libmda::metaprog::detail::loop_iterator_impl<libmda::metaprog::int_<200>, libmda::metaprog::int_<0>, libmda::metaprog::int_<200> > >:this <- R14+0
	#DEBUG_VALUE: operator()<libmda::metaprog::detail::loop_iterator_impl<libmda::metaprog::int_<30>, libmda::metaprog::int_<0>, libmda::metaprog::int_<200> >, libmda::metaprog::detail::loop_iterator_impl<libmda::metaprog::int_<200>, libmda::metaprog::int_<0>, libmda::metaprog::int_<200> > >:aout <- RBX+0
	#DEBUG_VALUE: operator()<libmda::metaprog::detail::loop_iterator_impl<libmda::metaprog::int_<29>, libmda::metaprog::int_<0>, libmda::metaprog::int_<200> >, libmda::metaprog::detail::loop_iterator_impl<libmda::metaprog::int_<200>, libmda::metaprog::int_<0>, libmda::metaprog::int_<200> > >:this <- R14+0
	#DEBUG_VALUE: operator()<libmda::metaprog::detail::loop_iterator_impl<libmda::metaprog::int_<29>, libmda::metaprog::int_<0>, libmda::metaprog::int_<200> >, libmda::metaprog::detail::loop_iterator_impl<libmda::metaprog::int_<200>, libmda::metaprog::int_<0>, libmda::metaprog::int_<200> > >:aout <- RBX+0
	#DEBUG_VALUE: operator()<libmda::metaprog::detail::loop_iterator_impl<libmda::metaprog::int_<28>, libmda::metaprog::int_<0>, libmda::metaprog::int_<200> >, libmda::metaprog::detail::loop_iterator_impl<libmda::metaprog::int_<200>, libmda::metaprog::int_<0>, libmda::metaprog::int_<200> > >:this <- R14+0
	#DEBUG_VALUE: operator()<libmda::metaprog::detail::loop_iterator_impl<libmda::metaprog::int_<28>, libmda::metaprog::int_<0>, libmda::metaprog::int_<200> >, libmda::metaprog::detail::loop_iterator_impl<libmda::metaprog::int_<200>, libmda::metaprog::int_<0>, libmda::metaprog::int_<200> > >:aout <- RBX+0
	#DEBUG_VALUE: operator()<libmda::metaprog::detail::loop_iterator_impl<libmda::metaprog::int_<27>, libmda::metaprog::int_<0>, libmda::metaprog::int_<200> >, libmda::metaprog::detail::loop_iterator_impl<libmda::metaprog::int_<200>, libmda::metaprog::int_<0>, libmda::metaprog::int_<200> > >:this <- R14+0
	#DEBUG_VALUE: operator()<libmda::metaprog::detail::loop_iterator_impl<libmda::metaprog::int_<27>, libmda::metaprog::int_<0>, libmda::metaprog::int_<200> >, libmda::metaprog::detail::loop_iterator_impl<libmda::metaprog::int_<200>, libmda::metaprog::int_<0>, libmda::metaprog::int_<200> > >:aout <- RBX+0
	#DEBUG_VALUE: operator()<libmda::metaprog::detail::loop_iterator_impl<libmda::metaprog::int_<26>, libmda::metaprog::int_<0>, libmda::metaprog::int_<200> >, libmda::metaprog::detail::loop_iterator_impl<libmda::metaprog::int_<200>, libmda::metaprog::int_<0>, libmda::metaprog::int_<200> > >:this <- R14+0
	#DEBUG_VALUE: operator()<libmda::metaprog::detail::loop_iterator_impl<libmda::metaprog::int_<26>, libmda::metaprog::int_<0>, libmda::metaprog::int_<200> >, libmda::metaprog::detail::loop_iterator_impl<libmda::metaprog::int_<200>, libmda::metaprog::int_<0>, libmda::metaprog::int_<200> > >:aout <- RBX+0
	#DEBUG_VALUE: operator()<libmda::metaprog::detail::loop_iterator_impl<libmda::metaprog::int_<25>, libmda::metaprog::int_<0>, libmda::metaprog::int_<200> >, libmda::metaprog::detail::loop_iterator_impl<libmda::metaprog::int_<200>, libmda::metaprog::int_<0>, libmda::metaprog::int_<200> > >:this <- R14+0
	#DEBUG_VALUE: operator()<libmda::metaprog::detail::loop_iterator_impl<libmda::metaprog::int_<25>, libmda::metaprog::int_<0>, libmda::metaprog::int_<200> >, libmda::metaprog::detail::loop_iterator_impl<libmda::metaprog::int_<200>, libmda::metaprog::int_<0>, libmda::metaprog::int_<200> > >:aout <- RBX+0
	.loc	1 9 0 prologue_end      # main.cc:9:0
	movq	%rbx, %rdi
	movl	$24, %esi
	callq	_ZNSolsEi
.Ltmp151:
	#DEBUG_VALUE: operator<<<std::char_traits<char> >:__out <- RAX+0
	#DEBUG_VALUE: length:__s <- undef
	#DEBUG_VALUE: operator<<<std::char_traits<char> >:__s <- undef
	#DEBUG_VALUE: length:__s <- undef
	#DEBUG_VALUE: operator<<<std::char_traits<char> >:__s <- undef
	#DEBUG_VALUE: length:__s <- undef
	#DEBUG_VALUE: operator<<<std::char_traits<char> >:__s <- undef
	#DEBUG_VALUE: length:__s <- undef
	#DEBUG_VALUE: operator<<<std::char_traits<char> >:__s <- undef
	#DEBUG_VALUE: length:__s <- undef
	#DEBUG_VALUE: operator<<<std::char_traits<char> >:__s <- undef
	#DEBUG_VALUE: length:__s <- undef
	#DEBUG_VALUE: operator<<<std::char_traits<char> >:__s <- undef
	#DEBUG_VALUE: length:__s <- undef
	#DEBUG_VALUE: operator<<<std::char_traits<char> >:__s <- undef
	#DEBUG_VALUE: length:__s <- undef
	.loc	31 535 0                # /usr/lib/gcc/x86_64-linux-gnu/4.8/../../../../include/c++/4.8/ostream:535:0
	movq	%rax, %rdi
	movl	$.L.str, %esi
	movl	$1, %edx
	callq	_ZSt16__ostream_insertIcSt11char_traitsIcEERSt13basic_ostreamIT_T0_ES6_PKS3_l
.Ltmp152:
	.loc	1 9 0                   # main.cc:9:0
	movq	%rbx, %rdi
	movl	$25, %esi
	callq	_ZNSolsEi
.Ltmp153:
	#DEBUG_VALUE: operator<<<std::char_traits<char> >:__out <- RAX+0
	.loc	31 535 0                # /usr/lib/gcc/x86_64-linux-gnu/4.8/../../../../include/c++/4.8/ostream:535:0
	movq	%rax, %rdi
.Ltmp154:
	.loc	31 535 0                # /usr/lib/gcc/x86_64-linux-gnu/4.8/../../../../include/c++/4.8/ostream:535:0
	movl	$.L.str, %esi
	movl	$1, %edx
.Ltmp155:
	.loc	31 535 0                # /usr/lib/gcc/x86_64-linux-gnu/4.8/../../../../include/c++/4.8/ostream:535:0
	callq	_ZSt16__ostream_insertIcSt11char_traitsIcEERSt13basic_ostreamIT_T0_ES6_PKS3_l
.Ltmp156:
	.loc	1 9 0                   # main.cc:9:0
	movq	%rbx, %rdi
	movl	$26, %esi
	callq	_ZNSolsEi
.Ltmp157:
	#DEBUG_VALUE: operator<<<std::char_traits<char> >:__out <- RAX+0
	.loc	31 535 0                # /usr/lib/gcc/x86_64-linux-gnu/4.8/../../../../include/c++/4.8/ostream:535:0
	movq	%rax, %rdi
.Ltmp158:
	.loc	31 535 0                # /usr/lib/gcc/x86_64-linux-gnu/4.8/../../../../include/c++/4.8/ostream:535:0
	movl	$.L.str, %esi
	movl	$1, %edx
.Ltmp159:
	.loc	31 535 0                # /usr/lib/gcc/x86_64-linux-gnu/4.8/../../../../include/c++/4.8/ostream:535:0
	callq	_ZSt16__ostream_insertIcSt11char_traitsIcEERSt13basic_ostreamIT_T0_ES6_PKS3_l
.Ltmp160:
	.loc	1 9 0                   # main.cc:9:0
	movq	%rbx, %rdi
	movl	$27, %esi
	callq	_ZNSolsEi
.Ltmp161:
	#DEBUG_VALUE: operator<<<std::char_traits<char> >:__out <- RAX+0
	.loc	31 535 0                # /usr/lib/gcc/x86_64-linux-gnu/4.8/../../../../include/c++/4.8/ostream:535:0
	movq	%rax, %rdi
.Ltmp162:
	.loc	31 535 0                # /usr/lib/gcc/x86_64-linux-gnu/4.8/../../../../include/c++/4.8/ostream:535:0
	movl	$.L.str, %esi
	movl	$1, %edx
.Ltmp163:
	.loc	31 535 0                # /usr/lib/gcc/x86_64-linux-gnu/4.8/../../../../include/c++/4.8/ostream:535:0
	callq	_ZSt16__ostream_insertIcSt11char_traitsIcEERSt13basic_ostreamIT_T0_ES6_PKS3_l
.Ltmp164:
	.loc	1 9 0                   # main.cc:9:0
	movq	%rbx, %rdi
	movl	$28, %esi
	callq	_ZNSolsEi
.Ltmp165:
	#DEBUG_VALUE: operator<<<std::char_traits<char> >:__out <- RAX+0
	.loc	31 535 0                # /usr/lib/gcc/x86_64-linux-gnu/4.8/../../../../include/c++/4.8/ostream:535:0
	movq	%rax, %rdi
.Ltmp166:
	.loc	31 535 0                # /usr/lib/gcc/x86_64-linux-gnu/4.8/../../../../include/c++/4.8/ostream:535:0
	movl	$.L.str, %esi
	movl	$1, %edx
.Ltmp167:
	.loc	31 535 0                # /usr/lib/gcc/x86_64-linux-gnu/4.8/../../../../include/c++/4.8/ostream:535:0
	callq	_ZSt16__ostream_insertIcSt11char_traitsIcEERSt13basic_ostreamIT_T0_ES6_PKS3_l
.Ltmp168:
	.loc	1 9 0                   # main.cc:9:0
	movq	%rbx, %rdi
	movl	$29, %esi
	callq	_ZNSolsEi
.Ltmp169:
	#DEBUG_VALUE: operator<<<std::char_traits<char> >:__out <- RAX+0
	.loc	31 535 0                # /usr/lib/gcc/x86_64-linux-gnu/4.8/../../../../include/c++/4.8/ostream:535:0
	movq	%rax, %rdi
.Ltmp170:
	.loc	31 535 0                # /usr/lib/gcc/x86_64-linux-gnu/4.8/../../../../include/c++/4.8/ostream:535:0
	movl	$.L.str, %esi
	movl	$1, %edx
.Ltmp171:
	.loc	31 535 0                # /usr/lib/gcc/x86_64-linux-gnu/4.8/../../../../include/c++/4.8/ostream:535:0
	callq	_ZSt16__ostream_insertIcSt11char_traitsIcEERSt13basic_ostreamIT_T0_ES6_PKS3_l
.Ltmp172:
	.loc	1 9 0                   # main.cc:9:0
	movq	%rbx, %rdi
	movl	$30, %esi
	callq	_ZNSolsEi
.Ltmp173:
	#DEBUG_VALUE: operator<<<std::char_traits<char> >:__out <- RAX+0
	.loc	31 535 0                # /usr/lib/gcc/x86_64-linux-gnu/4.8/../../../../include/c++/4.8/ostream:535:0
	movq	%rax, %rdi
.Ltmp174:
	.loc	31 535 0                # /usr/lib/gcc/x86_64-linux-gnu/4.8/../../../../include/c++/4.8/ostream:535:0
	movl	$.L.str, %esi
	movl	$1, %edx
.Ltmp175:
	.loc	31 535 0                # /usr/lib/gcc/x86_64-linux-gnu/4.8/../../../../include/c++/4.8/ostream:535:0
	callq	_ZSt16__ostream_insertIcSt11char_traitsIcEERSt13basic_ostreamIT_T0_ES6_PKS3_l
.Ltmp176:
	.loc	1 9 0                   # main.cc:9:0
	movq	%rbx, %rdi
	movl	$31, %esi
	callq	_ZNSolsEi
.Ltmp177:
	#DEBUG_VALUE: operator<<<std::char_traits<char> >:__out <- RAX+0
	.loc	31 535 0                # /usr/lib/gcc/x86_64-linux-gnu/4.8/../../../../include/c++/4.8/ostream:535:0
	movq	%rax, %rdi
.Ltmp178:
	.loc	31 535 0                # /usr/lib/gcc/x86_64-linux-gnu/4.8/../../../../include/c++/4.8/ostream:535:0
	movl	$.L.str, %esi
	movl	$1, %edx
.Ltmp179:
	.loc	31 535 0                # /usr/lib/gcc/x86_64-linux-gnu/4.8/../../../../include/c++/4.8/ostream:535:0
	callq	_ZSt16__ostream_insertIcSt11char_traitsIcEERSt13basic_ostreamIT_T0_ES6_PKS3_l
.Ltmp180:
	.loc	1 10 0                  # main.cc:10:0
	movq	%r14, %rdi
.Ltmp181:
	#DEBUG_VALUE: operator()<libmda::metaprog::detail::loop_iterator_impl<libmda::metaprog::int_<24>, libmda::metaprog::int_<0>, libmda::metaprog::int_<200> >, libmda::metaprog::detail::loop_iterator_impl<libmda::metaprog::int_<200>, libmda::metaprog::int_<0>, libmda::metaprog::int_<200> > >:this <- RDI+0
	movq	%rbx, %rsi
	addq	$8, %rsp
	popq	%rbx
.Ltmp182:
	popq	%r14
.Ltmp183:
	jmp	_ZN5Forr_clIN6libmda8metaprog6detail18loop_iterator_implINS2_4int_ILi32EEENS5_ILi0EEENS5_ILi200EEEEENS4_IS8_S7_S8_EEEEvRSoT_T0_ # TAILCALL
.Ltmp184:
.Ltmp185:
	.size	_ZN5Forr_clIN6libmda8metaprog6detail18loop_iterator_implINS2_4int_ILi24EEENS5_ILi0EEENS5_ILi200EEEEENS4_IS8_S7_S8_EEEEvRSoT_T0_, .Ltmp185-_ZN5Forr_clIN6libmda8metaprog6detail18loop_iterator_implINS2_4int_ILi24EEENS5_ILi0EEENS5_ILi200EEEEENS4_IS8_S7_S8_EEEEvRSoT_T0_
.Lfunc_end4:
	.cfi_endproc

	.section	.text._ZN5Forr_clIN6libmda8metaprog6detail18loop_iterator_implINS2_4int_ILi32EEENS5_ILi0EEENS5_ILi200EEEEENS4_IS8_S7_S8_EEEEvRSoT_T0_,"axG",@progbits,_ZN5Forr_clIN6libmda8metaprog6detail18loop_iterator_implINS2_4int_ILi32EEENS5_ILi0EEENS5_ILi200EEEEENS4_IS8_S7_S8_EEEEvRSoT_T0_,comdat
	.weak	_ZN5Forr_clIN6libmda8metaprog6detail18loop_iterator_implINS2_4int_ILi32EEENS5_ILi0EEENS5_ILi200EEEEENS4_IS8_S7_S8_EEEEvRSoT_T0_
	.align	16, 0x90
	.type	_ZN5Forr_clIN6libmda8metaprog6detail18loop_iterator_implINS2_4int_ILi32EEENS5_ILi0EEENS5_ILi200EEEEENS4_IS8_S7_S8_EEEEvRSoT_T0_,@function
_ZN5Forr_clIN6libmda8metaprog6detail18loop_iterator_implINS2_4int_ILi32EEENS5_ILi0EEENS5_ILi200EEEEENS4_IS8_S7_S8_EEEEvRSoT_T0_: # @_ZN5Forr_clIN6libmda8metaprog6detail18loop_iterator_implINS2_4int_ILi32EEENS5_ILi0EEENS5_ILi200EEEEENS4_IS8_S7_S8_EEEEvRSoT_T0_
	.cfi_startproc
.Lfunc_begin5:
	.loc	1 8 0                   # main.cc:8:0
# BB#0:                                 # %entry
	pushq	%r14
.Ltmp189:
	.cfi_def_cfa_offset 16
	pushq	%rbx
.Ltmp190:
	.cfi_def_cfa_offset 24
	pushq	%rax
.Ltmp191:
	.cfi_def_cfa_offset 32
.Ltmp192:
	.cfi_offset %rbx, -24
.Ltmp193:
	.cfi_offset %r14, -16
	#DEBUG_VALUE: operator()<libmda::metaprog::detail::loop_iterator_impl<libmda::metaprog::int_<32>, libmda::metaprog::int_<0>, libmda::metaprog::int_<200> >, libmda::metaprog::detail::loop_iterator_impl<libmda::metaprog::int_<200>, libmda::metaprog::int_<0>, libmda::metaprog::int_<200> > >:this <- RDI+0
	#DEBUG_VALUE: operator()<libmda::metaprog::detail::loop_iterator_impl<libmda::metaprog::int_<32>, libmda::metaprog::int_<0>, libmda::metaprog::int_<200> >, libmda::metaprog::detail::loop_iterator_impl<libmda::metaprog::int_<200>, libmda::metaprog::int_<0>, libmda::metaprog::int_<200> > >:aout <- RSI+0
	movq	%rsi, %rbx
.Ltmp194:
	#DEBUG_VALUE: operator()<libmda::metaprog::detail::loop_iterator_impl<libmda::metaprog::int_<32>, libmda::metaprog::int_<0>, libmda::metaprog::int_<200> >, libmda::metaprog::detail::loop_iterator_impl<libmda::metaprog::int_<200>, libmda::metaprog::int_<0>, libmda::metaprog::int_<200> > >:aout <- RBX+0
	movq	%rdi, %r14
.Ltmp195:
	#DEBUG_VALUE: operator()<libmda::metaprog::detail::loop_iterator_impl<libmda::metaprog::int_<32>, libmda::metaprog::int_<0>, libmda::metaprog::int_<200> >, libmda::metaprog::detail::loop_iterator_impl<libmda::metaprog::int_<200>, libmda::metaprog::int_<0>, libmda::metaprog::int_<200> > >:this <- R14+0
	#DEBUG_VALUE: operator()<libmda::metaprog::detail::loop_iterator_impl<libmda::metaprog::int_<39>, libmda::metaprog::int_<0>, libmda::metaprog::int_<200> >, libmda::metaprog::detail::loop_iterator_impl<libmda::metaprog::int_<200>, libmda::metaprog::int_<0>, libmda::metaprog::int_<200> > >:this <- R14+0
	#DEBUG_VALUE: operator()<libmda::metaprog::detail::loop_iterator_impl<libmda::metaprog::int_<39>, libmda::metaprog::int_<0>, libmda::metaprog::int_<200> >, libmda::metaprog::detail::loop_iterator_impl<libmda::metaprog::int_<200>, libmda::metaprog::int_<0>, libmda::metaprog::int_<200> > >:aout <- RBX+0
	#DEBUG_VALUE: operator()<libmda::metaprog::detail::loop_iterator_impl<libmda::metaprog::int_<38>, libmda::metaprog::int_<0>, libmda::metaprog::int_<200> >, libmda::metaprog::detail::loop_iterator_impl<libmda::metaprog::int_<200>, libmda::metaprog::int_<0>, libmda::metaprog::int_<200> > >:this <- R14+0
	#DEBUG_VALUE: operator()<libmda::metaprog::detail::loop_iterator_impl<libmda::metaprog::int_<38>, libmda::metaprog::int_<0>, libmda::metaprog::int_<200> >, libmda::metaprog::detail::loop_iterator_impl<libmda::metaprog::int_<200>, libmda::metaprog::int_<0>, libmda::metaprog::int_<200> > >:aout <- RBX+0
	#DEBUG_VALUE: operator()<libmda::metaprog::detail::loop_iterator_impl<libmda::metaprog::int_<37>, libmda::metaprog::int_<0>, libmda::metaprog::int_<200> >, libmda::metaprog::detail::loop_iterator_impl<libmda::metaprog::int_<200>, libmda::metaprog::int_<0>, libmda::metaprog::int_<200> > >:this <- R14+0
	#DEBUG_VALUE: operator()<libmda::metaprog::detail::loop_iterator_impl<libmda::metaprog::int_<37>, libmda::metaprog::int_<0>, libmda::metaprog::int_<200> >, libmda::metaprog::detail::loop_iterator_impl<libmda::metaprog::int_<200>, libmda::metaprog::int_<0>, libmda::metaprog::int_<200> > >:aout <- RBX+0
	#DEBUG_VALUE: operator()<libmda::metaprog::detail::loop_iterator_impl<libmda::metaprog::int_<36>, libmda::metaprog::int_<0>, libmda::metaprog::int_<200> >, libmda::metaprog::detail::loop_iterator_impl<libmda::metaprog::int_<200>, libmda::metaprog::int_<0>, libmda::metaprog::int_<200> > >:this <- R14+0
	#DEBUG_VALUE: operator()<libmda::metaprog::detail::loop_iterator_impl<libmda::metaprog::int_<36>, libmda::metaprog::int_<0>, libmda::metaprog::int_<200> >, libmda::metaprog::detail::loop_iterator_impl<libmda::metaprog::int_<200>, libmda::metaprog::int_<0>, libmda::metaprog::int_<200> > >:aout <- RBX+0
	#DEBUG_VALUE: operator()<libmda::metaprog::detail::loop_iterator_impl<libmda::metaprog::int_<35>, libmda::metaprog::int_<0>, libmda::metaprog::int_<200> >, libmda::metaprog::detail::loop_iterator_impl<libmda::metaprog::int_<200>, libmda::metaprog::int_<0>, libmda::metaprog::int_<200> > >:this <- R14+0
	#DEBUG_VALUE: operator()<libmda::metaprog::detail::loop_iterator_impl<libmda::metaprog::int_<35>, libmda::metaprog::int_<0>, libmda::metaprog::int_<200> >, libmda::metaprog::detail::loop_iterator_impl<libmda::metaprog::int_<200>, libmda::metaprog::int_<0>, libmda::metaprog::int_<200> > >:aout <- RBX+0
	#DEBUG_VALUE: operator()<libmda::metaprog::detail::loop_iterator_impl<libmda::metaprog::int_<34>, libmda::metaprog::int_<0>, libmda::metaprog::int_<200> >, libmda::metaprog::detail::loop_iterator_impl<libmda::metaprog::int_<200>, libmda::metaprog::int_<0>, libmda::metaprog::int_<200> > >:this <- R14+0
	#DEBUG_VALUE: operator()<libmda::metaprog::detail::loop_iterator_impl<libmda::metaprog::int_<34>, libmda::metaprog::int_<0>, libmda::metaprog::int_<200> >, libmda::metaprog::detail::loop_iterator_impl<libmda::metaprog::int_<200>, libmda::metaprog::int_<0>, libmda::metaprog::int_<200> > >:aout <- RBX+0
	#DEBUG_VALUE: operator()<libmda::metaprog::detail::loop_iterator_impl<libmda::metaprog::int_<33>, libmda::metaprog::int_<0>, libmda::metaprog::int_<200> >, libmda::metaprog::detail::loop_iterator_impl<libmda::metaprog::int_<200>, libmda::metaprog::int_<0>, libmda::metaprog::int_<200> > >:this <- R14+0
	#DEBUG_VALUE: operator()<libmda::metaprog::detail::loop_iterator_impl<libmda::metaprog::int_<33>, libmda::metaprog::int_<0>, libmda::metaprog::int_<200> >, libmda::metaprog::detail::loop_iterator_impl<libmda::metaprog::int_<200>, libmda::metaprog::int_<0>, libmda::metaprog::int_<200> > >:aout <- RBX+0
	.loc	1 9 0 prologue_end      # main.cc:9:0
	movq	%rbx, %rdi
	movl	$32, %esi
	callq	_ZNSolsEi
.Ltmp196:
	#DEBUG_VALUE: operator<<<std::char_traits<char> >:__out <- RAX+0
	#DEBUG_VALUE: length:__s <- undef
	#DEBUG_VALUE: operator<<<std::char_traits<char> >:__s <- undef
	#DEBUG_VALUE: length:__s <- undef
	#DEBUG_VALUE: operator<<<std::char_traits<char> >:__s <- undef
	#DEBUG_VALUE: length:__s <- undef
	#DEBUG_VALUE: operator<<<std::char_traits<char> >:__s <- undef
	#DEBUG_VALUE: length:__s <- undef
	#DEBUG_VALUE: operator<<<std::char_traits<char> >:__s <- undef
	#DEBUG_VALUE: length:__s <- undef
	#DEBUG_VALUE: operator<<<std::char_traits<char> >:__s <- undef
	#DEBUG_VALUE: length:__s <- undef
	#DEBUG_VALUE: operator<<<std::char_traits<char> >:__s <- undef
	#DEBUG_VALUE: length:__s <- undef
	#DEBUG_VALUE: operator<<<std::char_traits<char> >:__s <- undef
	#DEBUG_VALUE: length:__s <- undef
	.loc	31 535 0                # /usr/lib/gcc/x86_64-linux-gnu/4.8/../../../../include/c++/4.8/ostream:535:0
	movq	%rax, %rdi
	movl	$.L.str, %esi
	movl	$1, %edx
	callq	_ZSt16__ostream_insertIcSt11char_traitsIcEERSt13basic_ostreamIT_T0_ES6_PKS3_l
.Ltmp197:
	.loc	1 9 0                   # main.cc:9:0
	movq	%rbx, %rdi
	movl	$33, %esi
	callq	_ZNSolsEi
.Ltmp198:
	#DEBUG_VALUE: operator<<<std::char_traits<char> >:__out <- RAX+0
	.loc	31 535 0                # /usr/lib/gcc/x86_64-linux-gnu/4.8/../../../../include/c++/4.8/ostream:535:0
	movq	%rax, %rdi
.Ltmp199:
	.loc	31 535 0                # /usr/lib/gcc/x86_64-linux-gnu/4.8/../../../../include/c++/4.8/ostream:535:0
	movl	$.L.str, %esi
	movl	$1, %edx
.Ltmp200:
	.loc	31 535 0                # /usr/lib/gcc/x86_64-linux-gnu/4.8/../../../../include/c++/4.8/ostream:535:0
	callq	_ZSt16__ostream_insertIcSt11char_traitsIcEERSt13basic_ostreamIT_T0_ES6_PKS3_l
.Ltmp201:
	.loc	1 9 0                   # main.cc:9:0
	movq	%rbx, %rdi
	movl	$34, %esi
	callq	_ZNSolsEi
.Ltmp202:
	#DEBUG_VALUE: operator<<<std::char_traits<char> >:__out <- RAX+0
	.loc	31 535 0                # /usr/lib/gcc/x86_64-linux-gnu/4.8/../../../../include/c++/4.8/ostream:535:0
	movq	%rax, %rdi
.Ltmp203:
	.loc	31 535 0                # /usr/lib/gcc/x86_64-linux-gnu/4.8/../../../../include/c++/4.8/ostream:535:0
	movl	$.L.str, %esi
	movl	$1, %edx
.Ltmp204:
	.loc	31 535 0                # /usr/lib/gcc/x86_64-linux-gnu/4.8/../../../../include/c++/4.8/ostream:535:0
	callq	_ZSt16__ostream_insertIcSt11char_traitsIcEERSt13basic_ostreamIT_T0_ES6_PKS3_l
.Ltmp205:
	.loc	1 9 0                   # main.cc:9:0
	movq	%rbx, %rdi
	movl	$35, %esi
	callq	_ZNSolsEi
.Ltmp206:
	#DEBUG_VALUE: operator<<<std::char_traits<char> >:__out <- RAX+0
	.loc	31 535 0                # /usr/lib/gcc/x86_64-linux-gnu/4.8/../../../../include/c++/4.8/ostream:535:0
	movq	%rax, %rdi
.Ltmp207:
	.loc	31 535 0                # /usr/lib/gcc/x86_64-linux-gnu/4.8/../../../../include/c++/4.8/ostream:535:0
	movl	$.L.str, %esi
	movl	$1, %edx
.Ltmp208:
	.loc	31 535 0                # /usr/lib/gcc/x86_64-linux-gnu/4.8/../../../../include/c++/4.8/ostream:535:0
	callq	_ZSt16__ostream_insertIcSt11char_traitsIcEERSt13basic_ostreamIT_T0_ES6_PKS3_l
.Ltmp209:
	.loc	1 9 0                   # main.cc:9:0
	movq	%rbx, %rdi
	movl	$36, %esi
	callq	_ZNSolsEi
.Ltmp210:
	#DEBUG_VALUE: operator<<<std::char_traits<char> >:__out <- RAX+0
	.loc	31 535 0                # /usr/lib/gcc/x86_64-linux-gnu/4.8/../../../../include/c++/4.8/ostream:535:0
	movq	%rax, %rdi
.Ltmp211:
	.loc	31 535 0                # /usr/lib/gcc/x86_64-linux-gnu/4.8/../../../../include/c++/4.8/ostream:535:0
	movl	$.L.str, %esi
	movl	$1, %edx
.Ltmp212:
	.loc	31 535 0                # /usr/lib/gcc/x86_64-linux-gnu/4.8/../../../../include/c++/4.8/ostream:535:0
	callq	_ZSt16__ostream_insertIcSt11char_traitsIcEERSt13basic_ostreamIT_T0_ES6_PKS3_l
.Ltmp213:
	.loc	1 9 0                   # main.cc:9:0
	movq	%rbx, %rdi
	movl	$37, %esi
	callq	_ZNSolsEi
.Ltmp214:
	#DEBUG_VALUE: operator<<<std::char_traits<char> >:__out <- RAX+0
	.loc	31 535 0                # /usr/lib/gcc/x86_64-linux-gnu/4.8/../../../../include/c++/4.8/ostream:535:0
	movq	%rax, %rdi
.Ltmp215:
	.loc	31 535 0                # /usr/lib/gcc/x86_64-linux-gnu/4.8/../../../../include/c++/4.8/ostream:535:0
	movl	$.L.str, %esi
	movl	$1, %edx
.Ltmp216:
	.loc	31 535 0                # /usr/lib/gcc/x86_64-linux-gnu/4.8/../../../../include/c++/4.8/ostream:535:0
	callq	_ZSt16__ostream_insertIcSt11char_traitsIcEERSt13basic_ostreamIT_T0_ES6_PKS3_l
.Ltmp217:
	.loc	1 9 0                   # main.cc:9:0
	movq	%rbx, %rdi
	movl	$38, %esi
	callq	_ZNSolsEi
.Ltmp218:
	#DEBUG_VALUE: operator<<<std::char_traits<char> >:__out <- RAX+0
	.loc	31 535 0                # /usr/lib/gcc/x86_64-linux-gnu/4.8/../../../../include/c++/4.8/ostream:535:0
	movq	%rax, %rdi
.Ltmp219:
	.loc	31 535 0                # /usr/lib/gcc/x86_64-linux-gnu/4.8/../../../../include/c++/4.8/ostream:535:0
	movl	$.L.str, %esi
	movl	$1, %edx
.Ltmp220:
	.loc	31 535 0                # /usr/lib/gcc/x86_64-linux-gnu/4.8/../../../../include/c++/4.8/ostream:535:0
	callq	_ZSt16__ostream_insertIcSt11char_traitsIcEERSt13basic_ostreamIT_T0_ES6_PKS3_l
.Ltmp221:
	.loc	1 9 0                   # main.cc:9:0
	movq	%rbx, %rdi
	movl	$39, %esi
	callq	_ZNSolsEi
.Ltmp222:
	#DEBUG_VALUE: operator<<<std::char_traits<char> >:__out <- RAX+0
	.loc	31 535 0                # /usr/lib/gcc/x86_64-linux-gnu/4.8/../../../../include/c++/4.8/ostream:535:0
	movq	%rax, %rdi
.Ltmp223:
	.loc	31 535 0                # /usr/lib/gcc/x86_64-linux-gnu/4.8/../../../../include/c++/4.8/ostream:535:0
	movl	$.L.str, %esi
	movl	$1, %edx
.Ltmp224:
	.loc	31 535 0                # /usr/lib/gcc/x86_64-linux-gnu/4.8/../../../../include/c++/4.8/ostream:535:0
	callq	_ZSt16__ostream_insertIcSt11char_traitsIcEERSt13basic_ostreamIT_T0_ES6_PKS3_l
.Ltmp225:
	.loc	1 10 0                  # main.cc:10:0
	movq	%r14, %rdi
.Ltmp226:
	#DEBUG_VALUE: operator()<libmda::metaprog::detail::loop_iterator_impl<libmda::metaprog::int_<32>, libmda::metaprog::int_<0>, libmda::metaprog::int_<200> >, libmda::metaprog::detail::loop_iterator_impl<libmda::metaprog::int_<200>, libmda::metaprog::int_<0>, libmda::metaprog::int_<200> > >:this <- RDI+0
	movq	%rbx, %rsi
	addq	$8, %rsp
	popq	%rbx
.Ltmp227:
	popq	%r14
.Ltmp228:
	jmp	_ZN5Forr_clIN6libmda8metaprog6detail18loop_iterator_implINS2_4int_ILi40EEENS5_ILi0EEENS5_ILi200EEEEENS4_IS8_S7_S8_EEEEvRSoT_T0_ # TAILCALL
.Ltmp229:
.Ltmp230:
	.size	_ZN5Forr_clIN6libmda8metaprog6detail18loop_iterator_implINS2_4int_ILi32EEENS5_ILi0EEENS5_ILi200EEEEENS4_IS8_S7_S8_EEEEvRSoT_T0_, .Ltmp230-_ZN5Forr_clIN6libmda8metaprog6detail18loop_iterator_implINS2_4int_ILi32EEENS5_ILi0EEENS5_ILi200EEEEENS4_IS8_S7_S8_EEEEvRSoT_T0_
.Lfunc_end5:
	.cfi_endproc

	.section	.text._ZN5Forr_clIN6libmda8metaprog6detail18loop_iterator_implINS2_4int_ILi40EEENS5_ILi0EEENS5_ILi200EEEEENS4_IS8_S7_S8_EEEEvRSoT_T0_,"axG",@progbits,_ZN5Forr_clIN6libmda8metaprog6detail18loop_iterator_implINS2_4int_ILi40EEENS5_ILi0EEENS5_ILi200EEEEENS4_IS8_S7_S8_EEEEvRSoT_T0_,comdat
	.weak	_ZN5Forr_clIN6libmda8metaprog6detail18loop_iterator_implINS2_4int_ILi40EEENS5_ILi0EEENS5_ILi200EEEEENS4_IS8_S7_S8_EEEEvRSoT_T0_
	.align	16, 0x90
	.type	_ZN5Forr_clIN6libmda8metaprog6detail18loop_iterator_implINS2_4int_ILi40EEENS5_ILi0EEENS5_ILi200EEEEENS4_IS8_S7_S8_EEEEvRSoT_T0_,@function
_ZN5Forr_clIN6libmda8metaprog6detail18loop_iterator_implINS2_4int_ILi40EEENS5_ILi0EEENS5_ILi200EEEEENS4_IS8_S7_S8_EEEEvRSoT_T0_: # @_ZN5Forr_clIN6libmda8metaprog6detail18loop_iterator_implINS2_4int_ILi40EEENS5_ILi0EEENS5_ILi200EEEEENS4_IS8_S7_S8_EEEEvRSoT_T0_
	.cfi_startproc
.Lfunc_begin6:
	.loc	1 8 0                   # main.cc:8:0
# BB#0:                                 # %entry
	pushq	%r14
.Ltmp234:
	.cfi_def_cfa_offset 16
	pushq	%rbx
.Ltmp235:
	.cfi_def_cfa_offset 24
	pushq	%rax
.Ltmp236:
	.cfi_def_cfa_offset 32
.Ltmp237:
	.cfi_offset %rbx, -24
.Ltmp238:
	.cfi_offset %r14, -16
	#DEBUG_VALUE: operator()<libmda::metaprog::detail::loop_iterator_impl<libmda::metaprog::int_<40>, libmda::metaprog::int_<0>, libmda::metaprog::int_<200> >, libmda::metaprog::detail::loop_iterator_impl<libmda::metaprog::int_<200>, libmda::metaprog::int_<0>, libmda::metaprog::int_<200> > >:this <- RDI+0
	#DEBUG_VALUE: operator()<libmda::metaprog::detail::loop_iterator_impl<libmda::metaprog::int_<40>, libmda::metaprog::int_<0>, libmda::metaprog::int_<200> >, libmda::metaprog::detail::loop_iterator_impl<libmda::metaprog::int_<200>, libmda::metaprog::int_<0>, libmda::metaprog::int_<200> > >:aout <- RSI+0
	movq	%rsi, %rbx
.Ltmp239:
	#DEBUG_VALUE: operator()<libmda::metaprog::detail::loop_iterator_impl<libmda::metaprog::int_<40>, libmda::metaprog::int_<0>, libmda::metaprog::int_<200> >, libmda::metaprog::detail::loop_iterator_impl<libmda::metaprog::int_<200>, libmda::metaprog::int_<0>, libmda::metaprog::int_<200> > >:aout <- RBX+0
	movq	%rdi, %r14
.Ltmp240:
	#DEBUG_VALUE: operator()<libmda::metaprog::detail::loop_iterator_impl<libmda::metaprog::int_<40>, libmda::metaprog::int_<0>, libmda::metaprog::int_<200> >, libmda::metaprog::detail::loop_iterator_impl<libmda::metaprog::int_<200>, libmda::metaprog::int_<0>, libmda::metaprog::int_<200> > >:this <- R14+0
	#DEBUG_VALUE: operator()<libmda::metaprog::detail::loop_iterator_impl<libmda::metaprog::int_<47>, libmda::metaprog::int_<0>, libmda::metaprog::int_<200> >, libmda::metaprog::detail::loop_iterator_impl<libmda::metaprog::int_<200>, libmda::metaprog::int_<0>, libmda::metaprog::int_<200> > >:this <- R14+0
	#DEBUG_VALUE: operator()<libmda::metaprog::detail::loop_iterator_impl<libmda::metaprog::int_<47>, libmda::metaprog::int_<0>, libmda::metaprog::int_<200> >, libmda::metaprog::detail::loop_iterator_impl<libmda::metaprog::int_<200>, libmda::metaprog::int_<0>, libmda::metaprog::int_<200> > >:aout <- RBX+0
	#DEBUG_VALUE: operator()<libmda::metaprog::detail::loop_iterator_impl<libmda::metaprog::int_<46>, libmda::metaprog::int_<0>, libmda::metaprog::int_<200> >, libmda::metaprog::detail::loop_iterator_impl<libmda::metaprog::int_<200>, libmda::metaprog::int_<0>, libmda::metaprog::int_<200> > >:this <- R14+0
	#DEBUG_VALUE: operator()<libmda::metaprog::detail::loop_iterator_impl<libmda::metaprog::int_<46>, libmda::metaprog::int_<0>, libmda::metaprog::int_<200> >, libmda::metaprog::detail::loop_iterator_impl<libmda::metaprog::int_<200>, libmda::metaprog::int_<0>, libmda::metaprog::int_<200> > >:aout <- RBX+0
	#DEBUG_VALUE: operator()<libmda::metaprog::detail::loop_iterator_impl<libmda::metaprog::int_<45>, libmda::metaprog::int_<0>, libmda::metaprog::int_<200> >, libmda::metaprog::detail::loop_iterator_impl<libmda::metaprog::int_<200>, libmda::metaprog::int_<0>, libmda::metaprog::int_<200> > >:this <- R14+0
	#DEBUG_VALUE: operator()<libmda::metaprog::detail::loop_iterator_impl<libmda::metaprog::int_<45>, libmda::metaprog::int_<0>, libmda::metaprog::int_<200> >, libmda::metaprog::detail::loop_iterator_impl<libmda::metaprog::int_<200>, libmda::metaprog::int_<0>, libmda::metaprog::int_<200> > >:aout <- RBX+0
	#DEBUG_VALUE: operator()<libmda::metaprog::detail::loop_iterator_impl<libmda::metaprog::int_<44>, libmda::metaprog::int_<0>, libmda::metaprog::int_<200> >, libmda::metaprog::detail::loop_iterator_impl<libmda::metaprog::int_<200>, libmda::metaprog::int_<0>, libmda::metaprog::int_<200> > >:this <- R14+0
	#DEBUG_VALUE: operator()<libmda::metaprog::detail::loop_iterator_impl<libmda::metaprog::int_<44>, libmda::metaprog::int_<0>, libmda::metaprog::int_<200> >, libmda::metaprog::detail::loop_iterator_impl<libmda::metaprog::int_<200>, libmda::metaprog::int_<0>, libmda::metaprog::int_<200> > >:aout <- RBX+0
	#DEBUG_VALUE: operator()<libmda::metaprog::detail::loop_iterator_impl<libmda::metaprog::int_<43>, libmda::metaprog::int_<0>, libmda::metaprog::int_<200> >, libmda::metaprog::detail::loop_iterator_impl<libmda::metaprog::int_<200>, libmda::metaprog::int_<0>, libmda::metaprog::int_<200> > >:this <- R14+0
	#DEBUG_VALUE: operator()<libmda::metaprog::detail::loop_iterator_impl<libmda::metaprog::int_<43>, libmda::metaprog::int_<0>, libmda::metaprog::int_<200> >, libmda::metaprog::detail::loop_iterator_impl<libmda::metaprog::int_<200>, libmda::metaprog::int_<0>, libmda::metaprog::int_<200> > >:aout <- RBX+0
	#DEBUG_VALUE: operator()<libmda::metaprog::detail::loop_iterator_impl<libmda::metaprog::int_<42>, libmda::metaprog::int_<0>, libmda::metaprog::int_<200> >, libmda::metaprog::detail::loop_iterator_impl<libmda::metaprog::int_<200>, libmda::metaprog::int_<0>, libmda::metaprog::int_<200> > >:this <- R14+0
	#DEBUG_VALUE: operator()<libmda::metaprog::detail::loop_iterator_impl<libmda::metaprog::int_<42>, libmda::metaprog::int_<0>, libmda::metaprog::int_<200> >, libmda::metaprog::detail::loop_iterator_impl<libmda::metaprog::int_<200>, libmda::metaprog::int_<0>, libmda::metaprog::int_<200> > >:aout <- RBX+0
	#DEBUG_VALUE: operator()<libmda::metaprog::detail::loop_iterator_impl<libmda::metaprog::int_<41>, libmda::metaprog::int_<0>, libmda::metaprog::int_<200> >, libmda::metaprog::detail::loop_iterator_impl<libmda::metaprog::int_<200>, libmda::metaprog::int_<0>, libmda::metaprog::int_<200> > >:this <- R14+0
	#DEBUG_VALUE: operator()<libmda::metaprog::detail::loop_iterator_impl<libmda::metaprog::int_<41>, libmda::metaprog::int_<0>, libmda::metaprog::int_<200> >, libmda::metaprog::detail::loop_iterator_impl<libmda::metaprog::int_<200>, libmda::metaprog::int_<0>, libmda::metaprog::int_<200> > >:aout <- RBX+0
	.loc	1 9 0 prologue_end      # main.cc:9:0
	movq	%rbx, %rdi
	movl	$40, %esi
	callq	_ZNSolsEi
.Ltmp241:
	#DEBUG_VALUE: operator<<<std::char_traits<char> >:__out <- RAX+0
	#DEBUG_VALUE: length:__s <- undef
	#DEBUG_VALUE: operator<<<std::char_traits<char> >:__s <- undef
	#DEBUG_VALUE: length:__s <- undef
	#DEBUG_VALUE: operator<<<std::char_traits<char> >:__s <- undef
	#DEBUG_VALUE: length:__s <- undef
	#DEBUG_VALUE: operator<<<std::char_traits<char> >:__s <- undef
	#DEBUG_VALUE: length:__s <- undef
	#DEBUG_VALUE: operator<<<std::char_traits<char> >:__s <- undef
	#DEBUG_VALUE: length:__s <- undef
	#DEBUG_VALUE: operator<<<std::char_traits<char> >:__s <- undef
	#DEBUG_VALUE: length:__s <- undef
	#DEBUG_VALUE: operator<<<std::char_traits<char> >:__s <- undef
	#DEBUG_VALUE: length:__s <- undef
	#DEBUG_VALUE: operator<<<std::char_traits<char> >:__s <- undef
	#DEBUG_VALUE: length:__s <- undef
	.loc	31 535 0                # /usr/lib/gcc/x86_64-linux-gnu/4.8/../../../../include/c++/4.8/ostream:535:0
	movq	%rax, %rdi
	movl	$.L.str, %esi
	movl	$1, %edx
	callq	_ZSt16__ostream_insertIcSt11char_traitsIcEERSt13basic_ostreamIT_T0_ES6_PKS3_l
.Ltmp242:
	.loc	1 9 0                   # main.cc:9:0
	movq	%rbx, %rdi
	movl	$41, %esi
	callq	_ZNSolsEi
.Ltmp243:
	#DEBUG_VALUE: operator<<<std::char_traits<char> >:__out <- RAX+0
	.loc	31 535 0                # /usr/lib/gcc/x86_64-linux-gnu/4.8/../../../../include/c++/4.8/ostream:535:0
	movq	%rax, %rdi
.Ltmp244:
	.loc	31 535 0                # /usr/lib/gcc/x86_64-linux-gnu/4.8/../../../../include/c++/4.8/ostream:535:0
	movl	$.L.str, %esi
	movl	$1, %edx
.Ltmp245:
	.loc	31 535 0                # /usr/lib/gcc/x86_64-linux-gnu/4.8/../../../../include/c++/4.8/ostream:535:0
	callq	_ZSt16__ostream_insertIcSt11char_traitsIcEERSt13basic_ostreamIT_T0_ES6_PKS3_l
.Ltmp246:
	.loc	1 9 0                   # main.cc:9:0
	movq	%rbx, %rdi
	movl	$42, %esi
	callq	_ZNSolsEi
.Ltmp247:
	#DEBUG_VALUE: operator<<<std::char_traits<char> >:__out <- RAX+0
	.loc	31 535 0                # /usr/lib/gcc/x86_64-linux-gnu/4.8/../../../../include/c++/4.8/ostream:535:0
	movq	%rax, %rdi
.Ltmp248:
	.loc	31 535 0                # /usr/lib/gcc/x86_64-linux-gnu/4.8/../../../../include/c++/4.8/ostream:535:0
	movl	$.L.str, %esi
	movl	$1, %edx
.Ltmp249:
	.loc	31 535 0                # /usr/lib/gcc/x86_64-linux-gnu/4.8/../../../../include/c++/4.8/ostream:535:0
	callq	_ZSt16__ostream_insertIcSt11char_traitsIcEERSt13basic_ostreamIT_T0_ES6_PKS3_l
.Ltmp250:
	.loc	1 9 0                   # main.cc:9:0
	movq	%rbx, %rdi
	movl	$43, %esi
	callq	_ZNSolsEi
.Ltmp251:
	#DEBUG_VALUE: operator<<<std::char_traits<char> >:__out <- RAX+0
	.loc	31 535 0                # /usr/lib/gcc/x86_64-linux-gnu/4.8/../../../../include/c++/4.8/ostream:535:0
	movq	%rax, %rdi
.Ltmp252:
	.loc	31 535 0                # /usr/lib/gcc/x86_64-linux-gnu/4.8/../../../../include/c++/4.8/ostream:535:0
	movl	$.L.str, %esi
	movl	$1, %edx
.Ltmp253:
	.loc	31 535 0                # /usr/lib/gcc/x86_64-linux-gnu/4.8/../../../../include/c++/4.8/ostream:535:0
	callq	_ZSt16__ostream_insertIcSt11char_traitsIcEERSt13basic_ostreamIT_T0_ES6_PKS3_l
.Ltmp254:
	.loc	1 9 0                   # main.cc:9:0
	movq	%rbx, %rdi
	movl	$44, %esi
	callq	_ZNSolsEi
.Ltmp255:
	#DEBUG_VALUE: operator<<<std::char_traits<char> >:__out <- RAX+0
	.loc	31 535 0                # /usr/lib/gcc/x86_64-linux-gnu/4.8/../../../../include/c++/4.8/ostream:535:0
	movq	%rax, %rdi
.Ltmp256:
	.loc	31 535 0                # /usr/lib/gcc/x86_64-linux-gnu/4.8/../../../../include/c++/4.8/ostream:535:0
	movl	$.L.str, %esi
	movl	$1, %edx
.Ltmp257:
	.loc	31 535 0                # /usr/lib/gcc/x86_64-linux-gnu/4.8/../../../../include/c++/4.8/ostream:535:0
	callq	_ZSt16__ostream_insertIcSt11char_traitsIcEERSt13basic_ostreamIT_T0_ES6_PKS3_l
.Ltmp258:
	.loc	1 9 0                   # main.cc:9:0
	movq	%rbx, %rdi
	movl	$45, %esi
	callq	_ZNSolsEi
.Ltmp259:
	#DEBUG_VALUE: operator<<<std::char_traits<char> >:__out <- RAX+0
	.loc	31 535 0                # /usr/lib/gcc/x86_64-linux-gnu/4.8/../../../../include/c++/4.8/ostream:535:0
	movq	%rax, %rdi
.Ltmp260:
	.loc	31 535 0                # /usr/lib/gcc/x86_64-linux-gnu/4.8/../../../../include/c++/4.8/ostream:535:0
	movl	$.L.str, %esi
	movl	$1, %edx
.Ltmp261:
	.loc	31 535 0                # /usr/lib/gcc/x86_64-linux-gnu/4.8/../../../../include/c++/4.8/ostream:535:0
	callq	_ZSt16__ostream_insertIcSt11char_traitsIcEERSt13basic_ostreamIT_T0_ES6_PKS3_l
.Ltmp262:
	.loc	1 9 0                   # main.cc:9:0
	movq	%rbx, %rdi
	movl	$46, %esi
	callq	_ZNSolsEi
.Ltmp263:
	#DEBUG_VALUE: operator<<<std::char_traits<char> >:__out <- RAX+0
	.loc	31 535 0                # /usr/lib/gcc/x86_64-linux-gnu/4.8/../../../../include/c++/4.8/ostream:535:0
	movq	%rax, %rdi
.Ltmp264:
	.loc	31 535 0                # /usr/lib/gcc/x86_64-linux-gnu/4.8/../../../../include/c++/4.8/ostream:535:0
	movl	$.L.str, %esi
	movl	$1, %edx
.Ltmp265:
	.loc	31 535 0                # /usr/lib/gcc/x86_64-linux-gnu/4.8/../../../../include/c++/4.8/ostream:535:0
	callq	_ZSt16__ostream_insertIcSt11char_traitsIcEERSt13basic_ostreamIT_T0_ES6_PKS3_l
.Ltmp266:
	.loc	1 9 0                   # main.cc:9:0
	movq	%rbx, %rdi
	movl	$47, %esi
	callq	_ZNSolsEi
.Ltmp267:
	#DEBUG_VALUE: operator<<<std::char_traits<char> >:__out <- RAX+0
	.loc	31 535 0                # /usr/lib/gcc/x86_64-linux-gnu/4.8/../../../../include/c++/4.8/ostream:535:0
	movq	%rax, %rdi
.Ltmp268:
	.loc	31 535 0                # /usr/lib/gcc/x86_64-linux-gnu/4.8/../../../../include/c++/4.8/ostream:535:0
	movl	$.L.str, %esi
	movl	$1, %edx
.Ltmp269:
	.loc	31 535 0                # /usr/lib/gcc/x86_64-linux-gnu/4.8/../../../../include/c++/4.8/ostream:535:0
	callq	_ZSt16__ostream_insertIcSt11char_traitsIcEERSt13basic_ostreamIT_T0_ES6_PKS3_l
.Ltmp270:
	.loc	1 10 0                  # main.cc:10:0
	movq	%r14, %rdi
.Ltmp271:
	#DEBUG_VALUE: operator()<libmda::metaprog::detail::loop_iterator_impl<libmda::metaprog::int_<40>, libmda::metaprog::int_<0>, libmda::metaprog::int_<200> >, libmda::metaprog::detail::loop_iterator_impl<libmda::metaprog::int_<200>, libmda::metaprog::int_<0>, libmda::metaprog::int_<200> > >:this <- RDI+0
	movq	%rbx, %rsi
	addq	$8, %rsp
	popq	%rbx
.Ltmp272:
	popq	%r14
.Ltmp273:
	jmp	_ZN5Forr_clIN6libmda8metaprog6detail18loop_iterator_implINS2_4int_ILi48EEENS5_ILi0EEENS5_ILi200EEEEENS4_IS8_S7_S8_EEEEvRSoT_T0_ # TAILCALL
.Ltmp274:
.Ltmp275:
	.size	_ZN5Forr_clIN6libmda8metaprog6detail18loop_iterator_implINS2_4int_ILi40EEENS5_ILi0EEENS5_ILi200EEEEENS4_IS8_S7_S8_EEEEvRSoT_T0_, .Ltmp275-_ZN5Forr_clIN6libmda8metaprog6detail18loop_iterator_implINS2_4int_ILi40EEENS5_ILi0EEENS5_ILi200EEEEENS4_IS8_S7_S8_EEEEvRSoT_T0_
.Lfunc_end6:
	.cfi_endproc

	.section	.text._ZN5Forr_clIN6libmda8metaprog6detail18loop_iterator_implINS2_4int_ILi48EEENS5_ILi0EEENS5_ILi200EEEEENS4_IS8_S7_S8_EEEEvRSoT_T0_,"axG",@progbits,_ZN5Forr_clIN6libmda8metaprog6detail18loop_iterator_implINS2_4int_ILi48EEENS5_ILi0EEENS5_ILi200EEEEENS4_IS8_S7_S8_EEEEvRSoT_T0_,comdat
	.weak	_ZN5Forr_clIN6libmda8metaprog6detail18loop_iterator_implINS2_4int_ILi48EEENS5_ILi0EEENS5_ILi200EEEEENS4_IS8_S7_S8_EEEEvRSoT_T0_
	.align	16, 0x90
	.type	_ZN5Forr_clIN6libmda8metaprog6detail18loop_iterator_implINS2_4int_ILi48EEENS5_ILi0EEENS5_ILi200EEEEENS4_IS8_S7_S8_EEEEvRSoT_T0_,@function
_ZN5Forr_clIN6libmda8metaprog6detail18loop_iterator_implINS2_4int_ILi48EEENS5_ILi0EEENS5_ILi200EEEEENS4_IS8_S7_S8_EEEEvRSoT_T0_: # @_ZN5Forr_clIN6libmda8metaprog6detail18loop_iterator_implINS2_4int_ILi48EEENS5_ILi0EEENS5_ILi200EEEEENS4_IS8_S7_S8_EEEEvRSoT_T0_
	.cfi_startproc
.Lfunc_begin7:
	.loc	1 8 0                   # main.cc:8:0
# BB#0:                                 # %entry
	pushq	%r14
.Ltmp279:
	.cfi_def_cfa_offset 16
	pushq	%rbx
.Ltmp280:
	.cfi_def_cfa_offset 24
	pushq	%rax
.Ltmp281:
	.cfi_def_cfa_offset 32
.Ltmp282:
	.cfi_offset %rbx, -24
.Ltmp283:
	.cfi_offset %r14, -16
	#DEBUG_VALUE: operator()<libmda::metaprog::detail::loop_iterator_impl<libmda::metaprog::int_<48>, libmda::metaprog::int_<0>, libmda::metaprog::int_<200> >, libmda::metaprog::detail::loop_iterator_impl<libmda::metaprog::int_<200>, libmda::metaprog::int_<0>, libmda::metaprog::int_<200> > >:this <- RDI+0
	#DEBUG_VALUE: operator()<libmda::metaprog::detail::loop_iterator_impl<libmda::metaprog::int_<48>, libmda::metaprog::int_<0>, libmda::metaprog::int_<200> >, libmda::metaprog::detail::loop_iterator_impl<libmda::metaprog::int_<200>, libmda::metaprog::int_<0>, libmda::metaprog::int_<200> > >:aout <- RSI+0
	movq	%rsi, %rbx
.Ltmp284:
	#DEBUG_VALUE: operator()<libmda::metaprog::detail::loop_iterator_impl<libmda::metaprog::int_<48>, libmda::metaprog::int_<0>, libmda::metaprog::int_<200> >, libmda::metaprog::detail::loop_iterator_impl<libmda::metaprog::int_<200>, libmda::metaprog::int_<0>, libmda::metaprog::int_<200> > >:aout <- RBX+0
	movq	%rdi, %r14
.Ltmp285:
	#DEBUG_VALUE: operator()<libmda::metaprog::detail::loop_iterator_impl<libmda::metaprog::int_<48>, libmda::metaprog::int_<0>, libmda::metaprog::int_<200> >, libmda::metaprog::detail::loop_iterator_impl<libmda::metaprog::int_<200>, libmda::metaprog::int_<0>, libmda::metaprog::int_<200> > >:this <- R14+0
	#DEBUG_VALUE: operator()<libmda::metaprog::detail::loop_iterator_impl<libmda::metaprog::int_<55>, libmda::metaprog::int_<0>, libmda::metaprog::int_<200> >, libmda::metaprog::detail::loop_iterator_impl<libmda::metaprog::int_<200>, libmda::metaprog::int_<0>, libmda::metaprog::int_<200> > >:this <- R14+0
	#DEBUG_VALUE: operator()<libmda::metaprog::detail::loop_iterator_impl<libmda::metaprog::int_<55>, libmda::metaprog::int_<0>, libmda::metaprog::int_<200> >, libmda::metaprog::detail::loop_iterator_impl<libmda::metaprog::int_<200>, libmda::metaprog::int_<0>, libmda::metaprog::int_<200> > >:aout <- RBX+0
	#DEBUG_VALUE: operator()<libmda::metaprog::detail::loop_iterator_impl<libmda::metaprog::int_<54>, libmda::metaprog::int_<0>, libmda::metaprog::int_<200> >, libmda::metaprog::detail::loop_iterator_impl<libmda::metaprog::int_<200>, libmda::metaprog::int_<0>, libmda::metaprog::int_<200> > >:this <- R14+0
	#DEBUG_VALUE: operator()<libmda::metaprog::detail::loop_iterator_impl<libmda::metaprog::int_<54>, libmda::metaprog::int_<0>, libmda::metaprog::int_<200> >, libmda::metaprog::detail::loop_iterator_impl<libmda::metaprog::int_<200>, libmda::metaprog::int_<0>, libmda::metaprog::int_<200> > >:aout <- RBX+0
	#DEBUG_VALUE: operator()<libmda::metaprog::detail::loop_iterator_impl<libmda::metaprog::int_<53>, libmda::metaprog::int_<0>, libmda::metaprog::int_<200> >, libmda::metaprog::detail::loop_iterator_impl<libmda::metaprog::int_<200>, libmda::metaprog::int_<0>, libmda::metaprog::int_<200> > >:this <- R14+0
	#DEBUG_VALUE: operator()<libmda::metaprog::detail::loop_iterator_impl<libmda::metaprog::int_<53>, libmda::metaprog::int_<0>, libmda::metaprog::int_<200> >, libmda::metaprog::detail::loop_iterator_impl<libmda::metaprog::int_<200>, libmda::metaprog::int_<0>, libmda::metaprog::int_<200> > >:aout <- RBX+0
	#DEBUG_VALUE: operator()<libmda::metaprog::detail::loop_iterator_impl<libmda::metaprog::int_<52>, libmda::metaprog::int_<0>, libmda::metaprog::int_<200> >, libmda::metaprog::detail::loop_iterator_impl<libmda::metaprog::int_<200>, libmda::metaprog::int_<0>, libmda::metaprog::int_<200> > >:this <- R14+0
	#DEBUG_VALUE: operator()<libmda::metaprog::detail::loop_iterator_impl<libmda::metaprog::int_<52>, libmda::metaprog::int_<0>, libmda::metaprog::int_<200> >, libmda::metaprog::detail::loop_iterator_impl<libmda::metaprog::int_<200>, libmda::metaprog::int_<0>, libmda::metaprog::int_<200> > >:aout <- RBX+0
	#DEBUG_VALUE: operator()<libmda::metaprog::detail::loop_iterator_impl<libmda::metaprog::int_<51>, libmda::metaprog::int_<0>, libmda::metaprog::int_<200> >, libmda::metaprog::detail::loop_iterator_impl<libmda::metaprog::int_<200>, libmda::metaprog::int_<0>, libmda::metaprog::int_<200> > >:this <- R14+0
	#DEBUG_VALUE: operator()<libmda::metaprog::detail::loop_iterator_impl<libmda::metaprog::int_<51>, libmda::metaprog::int_<0>, libmda::metaprog::int_<200> >, libmda::metaprog::detail::loop_iterator_impl<libmda::metaprog::int_<200>, libmda::metaprog::int_<0>, libmda::metaprog::int_<200> > >:aout <- RBX+0
	#DEBUG_VALUE: operator()<libmda::metaprog::detail::loop_iterator_impl<libmda::metaprog::int_<50>, libmda::metaprog::int_<0>, libmda::metaprog::int_<200> >, libmda::metaprog::detail::loop_iterator_impl<libmda::metaprog::int_<200>, libmda::metaprog::int_<0>, libmda::metaprog::int_<200> > >:this <- R14+0
	#DEBUG_VALUE: operator()<libmda::metaprog::detail::loop_iterator_impl<libmda::metaprog::int_<50>, libmda::metaprog::int_<0>, libmda::metaprog::int_<200> >, libmda::metaprog::detail::loop_iterator_impl<libmda::metaprog::int_<200>, libmda::metaprog::int_<0>, libmda::metaprog::int_<200> > >:aout <- RBX+0
	#DEBUG_VALUE: operator()<libmda::metaprog::detail::loop_iterator_impl<libmda::metaprog::int_<49>, libmda::metaprog::int_<0>, libmda::metaprog::int_<200> >, libmda::metaprog::detail::loop_iterator_impl<libmda::metaprog::int_<200>, libmda::metaprog::int_<0>, libmda::metaprog::int_<200> > >:this <- R14+0
	#DEBUG_VALUE: operator()<libmda::metaprog::detail::loop_iterator_impl<libmda::metaprog::int_<49>, libmda::metaprog::int_<0>, libmda::metaprog::int_<200> >, libmda::metaprog::detail::loop_iterator_impl<libmda::metaprog::int_<200>, libmda::metaprog::int_<0>, libmda::metaprog::int_<200> > >:aout <- RBX+0
	.loc	1 9 0 prologue_end      # main.cc:9:0
	movq	%rbx, %rdi
	movl	$48, %esi
	callq	_ZNSolsEi
.Ltmp286:
	#DEBUG_VALUE: operator<<<std::char_traits<char> >:__out <- RAX+0
	#DEBUG_VALUE: length:__s <- undef
	#DEBUG_VALUE: operator<<<std::char_traits<char> >:__s <- undef
	#DEBUG_VALUE: length:__s <- undef
	#DEBUG_VALUE: operator<<<std::char_traits<char> >:__s <- undef
	#DEBUG_VALUE: length:__s <- undef
	#DEBUG_VALUE: operator<<<std::char_traits<char> >:__s <- undef
	#DEBUG_VALUE: length:__s <- undef
	#DEBUG_VALUE: operator<<<std::char_traits<char> >:__s <- undef
	#DEBUG_VALUE: length:__s <- undef
	#DEBUG_VALUE: operator<<<std::char_traits<char> >:__s <- undef
	#DEBUG_VALUE: length:__s <- undef
	#DEBUG_VALUE: operator<<<std::char_traits<char> >:__s <- undef
	#DEBUG_VALUE: length:__s <- undef
	#DEBUG_VALUE: operator<<<std::char_traits<char> >:__s <- undef
	#DEBUG_VALUE: length:__s <- undef
	.loc	31 535 0                # /usr/lib/gcc/x86_64-linux-gnu/4.8/../../../../include/c++/4.8/ostream:535:0
	movq	%rax, %rdi
	movl	$.L.str, %esi
	movl	$1, %edx
	callq	_ZSt16__ostream_insertIcSt11char_traitsIcEERSt13basic_ostreamIT_T0_ES6_PKS3_l
.Ltmp287:
	.loc	1 9 0                   # main.cc:9:0
	movq	%rbx, %rdi
	movl	$49, %esi
	callq	_ZNSolsEi
.Ltmp288:
	#DEBUG_VALUE: operator<<<std::char_traits<char> >:__out <- RAX+0
	.loc	31 535 0                # /usr/lib/gcc/x86_64-linux-gnu/4.8/../../../../include/c++/4.8/ostream:535:0
	movq	%rax, %rdi
.Ltmp289:
	.loc	31 535 0                # /usr/lib/gcc/x86_64-linux-gnu/4.8/../../../../include/c++/4.8/ostream:535:0
	movl	$.L.str, %esi
	movl	$1, %edx
.Ltmp290:
	.loc	31 535 0                # /usr/lib/gcc/x86_64-linux-gnu/4.8/../../../../include/c++/4.8/ostream:535:0
	callq	_ZSt16__ostream_insertIcSt11char_traitsIcEERSt13basic_ostreamIT_T0_ES6_PKS3_l
.Ltmp291:
	.loc	1 9 0                   # main.cc:9:0
	movq	%rbx, %rdi
	movl	$50, %esi
	callq	_ZNSolsEi
.Ltmp292:
	#DEBUG_VALUE: operator<<<std::char_traits<char> >:__out <- RAX+0
	.loc	31 535 0                # /usr/lib/gcc/x86_64-linux-gnu/4.8/../../../../include/c++/4.8/ostream:535:0
	movq	%rax, %rdi
.Ltmp293:
	.loc	31 535 0                # /usr/lib/gcc/x86_64-linux-gnu/4.8/../../../../include/c++/4.8/ostream:535:0
	movl	$.L.str, %esi
	movl	$1, %edx
.Ltmp294:
	.loc	31 535 0                # /usr/lib/gcc/x86_64-linux-gnu/4.8/../../../../include/c++/4.8/ostream:535:0
	callq	_ZSt16__ostream_insertIcSt11char_traitsIcEERSt13basic_ostreamIT_T0_ES6_PKS3_l
.Ltmp295:
	.loc	1 9 0                   # main.cc:9:0
	movq	%rbx, %rdi
	movl	$51, %esi
	callq	_ZNSolsEi
.Ltmp296:
	#DEBUG_VALUE: operator<<<std::char_traits<char> >:__out <- RAX+0
	.loc	31 535 0                # /usr/lib/gcc/x86_64-linux-gnu/4.8/../../../../include/c++/4.8/ostream:535:0
	movq	%rax, %rdi
.Ltmp297:
	.loc	31 535 0                # /usr/lib/gcc/x86_64-linux-gnu/4.8/../../../../include/c++/4.8/ostream:535:0
	movl	$.L.str, %esi
	movl	$1, %edx
.Ltmp298:
	.loc	31 535 0                # /usr/lib/gcc/x86_64-linux-gnu/4.8/../../../../include/c++/4.8/ostream:535:0
	callq	_ZSt16__ostream_insertIcSt11char_traitsIcEERSt13basic_ostreamIT_T0_ES6_PKS3_l
.Ltmp299:
	.loc	1 9 0                   # main.cc:9:0
	movq	%rbx, %rdi
	movl	$52, %esi
	callq	_ZNSolsEi
.Ltmp300:
	#DEBUG_VALUE: operator<<<std::char_traits<char> >:__out <- RAX+0
	.loc	31 535 0                # /usr/lib/gcc/x86_64-linux-gnu/4.8/../../../../include/c++/4.8/ostream:535:0
	movq	%rax, %rdi
.Ltmp301:
	.loc	31 535 0                # /usr/lib/gcc/x86_64-linux-gnu/4.8/../../../../include/c++/4.8/ostream:535:0
	movl	$.L.str, %esi
	movl	$1, %edx
.Ltmp302:
	.loc	31 535 0                # /usr/lib/gcc/x86_64-linux-gnu/4.8/../../../../include/c++/4.8/ostream:535:0
	callq	_ZSt16__ostream_insertIcSt11char_traitsIcEERSt13basic_ostreamIT_T0_ES6_PKS3_l
.Ltmp303:
	.loc	1 9 0                   # main.cc:9:0
	movq	%rbx, %rdi
	movl	$53, %esi
	callq	_ZNSolsEi
.Ltmp304:
	#DEBUG_VALUE: operator<<<std::char_traits<char> >:__out <- RAX+0
	.loc	31 535 0                # /usr/lib/gcc/x86_64-linux-gnu/4.8/../../../../include/c++/4.8/ostream:535:0
	movq	%rax, %rdi
.Ltmp305:
	.loc	31 535 0                # /usr/lib/gcc/x86_64-linux-gnu/4.8/../../../../include/c++/4.8/ostream:535:0
	movl	$.L.str, %esi
	movl	$1, %edx
.Ltmp306:
	.loc	31 535 0                # /usr/lib/gcc/x86_64-linux-gnu/4.8/../../../../include/c++/4.8/ostream:535:0
	callq	_ZSt16__ostream_insertIcSt11char_traitsIcEERSt13basic_ostreamIT_T0_ES6_PKS3_l
.Ltmp307:
	.loc	1 9 0                   # main.cc:9:0
	movq	%rbx, %rdi
	movl	$54, %esi
	callq	_ZNSolsEi
.Ltmp308:
	#DEBUG_VALUE: operator<<<std::char_traits<char> >:__out <- RAX+0
	.loc	31 535 0                # /usr/lib/gcc/x86_64-linux-gnu/4.8/../../../../include/c++/4.8/ostream:535:0
	movq	%rax, %rdi
.Ltmp309:
	.loc	31 535 0                # /usr/lib/gcc/x86_64-linux-gnu/4.8/../../../../include/c++/4.8/ostream:535:0
	movl	$.L.str, %esi
	movl	$1, %edx
.Ltmp310:
	.loc	31 535 0                # /usr/lib/gcc/x86_64-linux-gnu/4.8/../../../../include/c++/4.8/ostream:535:0
	callq	_ZSt16__ostream_insertIcSt11char_traitsIcEERSt13basic_ostreamIT_T0_ES6_PKS3_l
.Ltmp311:
	.loc	1 9 0                   # main.cc:9:0
	movq	%rbx, %rdi
	movl	$55, %esi
	callq	_ZNSolsEi
.Ltmp312:
	#DEBUG_VALUE: operator<<<std::char_traits<char> >:__out <- RAX+0
	.loc	31 535 0                # /usr/lib/gcc/x86_64-linux-gnu/4.8/../../../../include/c++/4.8/ostream:535:0
	movq	%rax, %rdi
.Ltmp313:
	.loc	31 535 0                # /usr/lib/gcc/x86_64-linux-gnu/4.8/../../../../include/c++/4.8/ostream:535:0
	movl	$.L.str, %esi
	movl	$1, %edx
.Ltmp314:
	.loc	31 535 0                # /usr/lib/gcc/x86_64-linux-gnu/4.8/../../../../include/c++/4.8/ostream:535:0
	callq	_ZSt16__ostream_insertIcSt11char_traitsIcEERSt13basic_ostreamIT_T0_ES6_PKS3_l
.Ltmp315:
	.loc	1 10 0                  # main.cc:10:0
	movq	%r14, %rdi
.Ltmp316:
	#DEBUG_VALUE: operator()<libmda::metaprog::detail::loop_iterator_impl<libmda::metaprog::int_<48>, libmda::metaprog::int_<0>, libmda::metaprog::int_<200> >, libmda::metaprog::detail::loop_iterator_impl<libmda::metaprog::int_<200>, libmda::metaprog::int_<0>, libmda::metaprog::int_<200> > >:this <- RDI+0
	movq	%rbx, %rsi
	addq	$8, %rsp
	popq	%rbx
.Ltmp317:
	popq	%r14
.Ltmp318:
	jmp	_ZN5Forr_clIN6libmda8metaprog6detail18loop_iterator_implINS2_4int_ILi56EEENS5_ILi0EEENS5_ILi200EEEEENS4_IS8_S7_S8_EEEEvRSoT_T0_ # TAILCALL
.Ltmp319:
.Ltmp320:
	.size	_ZN5Forr_clIN6libmda8metaprog6detail18loop_iterator_implINS2_4int_ILi48EEENS5_ILi0EEENS5_ILi200EEEEENS4_IS8_S7_S8_EEEEvRSoT_T0_, .Ltmp320-_ZN5Forr_clIN6libmda8metaprog6detail18loop_iterator_implINS2_4int_ILi48EEENS5_ILi0EEENS5_ILi200EEEEENS4_IS8_S7_S8_EEEEvRSoT_T0_
.Lfunc_end7:
	.cfi_endproc

	.section	.text._ZN5Forr_clIN6libmda8metaprog6detail18loop_iterator_implINS2_4int_ILi56EEENS5_ILi0EEENS5_ILi200EEEEENS4_IS8_S7_S8_EEEEvRSoT_T0_,"axG",@progbits,_ZN5Forr_clIN6libmda8metaprog6detail18loop_iterator_implINS2_4int_ILi56EEENS5_ILi0EEENS5_ILi200EEEEENS4_IS8_S7_S8_EEEEvRSoT_T0_,comdat
	.weak	_ZN5Forr_clIN6libmda8metaprog6detail18loop_iterator_implINS2_4int_ILi56EEENS5_ILi0EEENS5_ILi200EEEEENS4_IS8_S7_S8_EEEEvRSoT_T0_
	.align	16, 0x90
	.type	_ZN5Forr_clIN6libmda8metaprog6detail18loop_iterator_implINS2_4int_ILi56EEENS5_ILi0EEENS5_ILi200EEEEENS4_IS8_S7_S8_EEEEvRSoT_T0_,@function
_ZN5Forr_clIN6libmda8metaprog6detail18loop_iterator_implINS2_4int_ILi56EEENS5_ILi0EEENS5_ILi200EEEEENS4_IS8_S7_S8_EEEEvRSoT_T0_: # @_ZN5Forr_clIN6libmda8metaprog6detail18loop_iterator_implINS2_4int_ILi56EEENS5_ILi0EEENS5_ILi200EEEEENS4_IS8_S7_S8_EEEEvRSoT_T0_
	.cfi_startproc
.Lfunc_begin8:
	.loc	1 8 0                   # main.cc:8:0
# BB#0:                                 # %entry
	pushq	%r14
.Ltmp324:
	.cfi_def_cfa_offset 16
	pushq	%rbx
.Ltmp325:
	.cfi_def_cfa_offset 24
	pushq	%rax
.Ltmp326:
	.cfi_def_cfa_offset 32
.Ltmp327:
	.cfi_offset %rbx, -24
.Ltmp328:
	.cfi_offset %r14, -16
	#DEBUG_VALUE: operator()<libmda::metaprog::detail::loop_iterator_impl<libmda::metaprog::int_<56>, libmda::metaprog::int_<0>, libmda::metaprog::int_<200> >, libmda::metaprog::detail::loop_iterator_impl<libmda::metaprog::int_<200>, libmda::metaprog::int_<0>, libmda::metaprog::int_<200> > >:this <- RDI+0
	#DEBUG_VALUE: operator()<libmda::metaprog::detail::loop_iterator_impl<libmda::metaprog::int_<56>, libmda::metaprog::int_<0>, libmda::metaprog::int_<200> >, libmda::metaprog::detail::loop_iterator_impl<libmda::metaprog::int_<200>, libmda::metaprog::int_<0>, libmda::metaprog::int_<200> > >:aout <- RSI+0
	movq	%rsi, %rbx
.Ltmp329:
	#DEBUG_VALUE: operator()<libmda::metaprog::detail::loop_iterator_impl<libmda::metaprog::int_<56>, libmda::metaprog::int_<0>, libmda::metaprog::int_<200> >, libmda::metaprog::detail::loop_iterator_impl<libmda::metaprog::int_<200>, libmda::metaprog::int_<0>, libmda::metaprog::int_<200> > >:aout <- RBX+0
	movq	%rdi, %r14
.Ltmp330:
	#DEBUG_VALUE: operator()<libmda::metaprog::detail::loop_iterator_impl<libmda::metaprog::int_<56>, libmda::metaprog::int_<0>, libmda::metaprog::int_<200> >, libmda::metaprog::detail::loop_iterator_impl<libmda::metaprog::int_<200>, libmda::metaprog::int_<0>, libmda::metaprog::int_<200> > >:this <- R14+0
	#DEBUG_VALUE: operator()<libmda::metaprog::detail::loop_iterator_impl<libmda::metaprog::int_<63>, libmda::metaprog::int_<0>, libmda::metaprog::int_<200> >, libmda::metaprog::detail::loop_iterator_impl<libmda::metaprog::int_<200>, libmda::metaprog::int_<0>, libmda::metaprog::int_<200> > >:this <- R14+0
	#DEBUG_VALUE: operator()<libmda::metaprog::detail::loop_iterator_impl<libmda::metaprog::int_<63>, libmda::metaprog::int_<0>, libmda::metaprog::int_<200> >, libmda::metaprog::detail::loop_iterator_impl<libmda::metaprog::int_<200>, libmda::metaprog::int_<0>, libmda::metaprog::int_<200> > >:aout <- RBX+0
	#DEBUG_VALUE: operator()<libmda::metaprog::detail::loop_iterator_impl<libmda::metaprog::int_<62>, libmda::metaprog::int_<0>, libmda::metaprog::int_<200> >, libmda::metaprog::detail::loop_iterator_impl<libmda::metaprog::int_<200>, libmda::metaprog::int_<0>, libmda::metaprog::int_<200> > >:this <- R14+0
	#DEBUG_VALUE: operator()<libmda::metaprog::detail::loop_iterator_impl<libmda::metaprog::int_<62>, libmda::metaprog::int_<0>, libmda::metaprog::int_<200> >, libmda::metaprog::detail::loop_iterator_impl<libmda::metaprog::int_<200>, libmda::metaprog::int_<0>, libmda::metaprog::int_<200> > >:aout <- RBX+0
	#DEBUG_VALUE: operator()<libmda::metaprog::detail::loop_iterator_impl<libmda::metaprog::int_<61>, libmda::metaprog::int_<0>, libmda::metaprog::int_<200> >, libmda::metaprog::detail::loop_iterator_impl<libmda::metaprog::int_<200>, libmda::metaprog::int_<0>, libmda::metaprog::int_<200> > >:this <- R14+0
	#DEBUG_VALUE: operator()<libmda::metaprog::detail::loop_iterator_impl<libmda::metaprog::int_<61>, libmda::metaprog::int_<0>, libmda::metaprog::int_<200> >, libmda::metaprog::detail::loop_iterator_impl<libmda::metaprog::int_<200>, libmda::metaprog::int_<0>, libmda::metaprog::int_<200> > >:aout <- RBX+0
	#DEBUG_VALUE: operator()<libmda::metaprog::detail::loop_iterator_impl<libmda::metaprog::int_<60>, libmda::metaprog::int_<0>, libmda::metaprog::int_<200> >, libmda::metaprog::detail::loop_iterator_impl<libmda::metaprog::int_<200>, libmda::metaprog::int_<0>, libmda::metaprog::int_<200> > >:this <- R14+0
	#DEBUG_VALUE: operator()<libmda::metaprog::detail::loop_iterator_impl<libmda::metaprog::int_<60>, libmda::metaprog::int_<0>, libmda::metaprog::int_<200> >, libmda::metaprog::detail::loop_iterator_impl<libmda::metaprog::int_<200>, libmda::metaprog::int_<0>, libmda::metaprog::int_<200> > >:aout <- RBX+0
	#DEBUG_VALUE: operator()<libmda::metaprog::detail::loop_iterator_impl<libmda::metaprog::int_<59>, libmda::metaprog::int_<0>, libmda::metaprog::int_<200> >, libmda::metaprog::detail::loop_iterator_impl<libmda::metaprog::int_<200>, libmda::metaprog::int_<0>, libmda::metaprog::int_<200> > >:this <- R14+0
	#DEBUG_VALUE: operator()<libmda::metaprog::detail::loop_iterator_impl<libmda::metaprog::int_<59>, libmda::metaprog::int_<0>, libmda::metaprog::int_<200> >, libmda::metaprog::detail::loop_iterator_impl<libmda::metaprog::int_<200>, libmda::metaprog::int_<0>, libmda::metaprog::int_<200> > >:aout <- RBX+0
	#DEBUG_VALUE: operator()<libmda::metaprog::detail::loop_iterator_impl<libmda::metaprog::int_<58>, libmda::metaprog::int_<0>, libmda::metaprog::int_<200> >, libmda::metaprog::detail::loop_iterator_impl<libmda::metaprog::int_<200>, libmda::metaprog::int_<0>, libmda::metaprog::int_<200> > >:this <- R14+0
	#DEBUG_VALUE: operator()<libmda::metaprog::detail::loop_iterator_impl<libmda::metaprog::int_<58>, libmda::metaprog::int_<0>, libmda::metaprog::int_<200> >, libmda::metaprog::detail::loop_iterator_impl<libmda::metaprog::int_<200>, libmda::metaprog::int_<0>, libmda::metaprog::int_<200> > >:aout <- RBX+0
	#DEBUG_VALUE: operator()<libmda::metaprog::detail::loop_iterator_impl<libmda::metaprog::int_<57>, libmda::metaprog::int_<0>, libmda::metaprog::int_<200> >, libmda::metaprog::detail::loop_iterator_impl<libmda::metaprog::int_<200>, libmda::metaprog::int_<0>, libmda::metaprog::int_<200> > >:this <- R14+0
	#DEBUG_VALUE: operator()<libmda::metaprog::detail::loop_iterator_impl<libmda::metaprog::int_<57>, libmda::metaprog::int_<0>, libmda::metaprog::int_<200> >, libmda::metaprog::detail::loop_iterator_impl<libmda::metaprog::int_<200>, libmda::metaprog::int_<0>, libmda::metaprog::int_<200> > >:aout <- RBX+0
	.loc	1 9 0 prologue_end      # main.cc:9:0
	movq	%rbx, %rdi
	movl	$56, %esi
	callq	_ZNSolsEi
.Ltmp331:
	#DEBUG_VALUE: operator<<<std::char_traits<char> >:__out <- RAX+0
	#DEBUG_VALUE: length:__s <- undef
	#DEBUG_VALUE: operator<<<std::char_traits<char> >:__s <- undef
	#DEBUG_VALUE: length:__s <- undef
	#DEBUG_VALUE: operator<<<std::char_traits<char> >:__s <- undef
	#DEBUG_VALUE: length:__s <- undef
	#DEBUG_VALUE: operator<<<std::char_traits<char> >:__s <- undef
	#DEBUG_VALUE: length:__s <- undef
	#DEBUG_VALUE: operator<<<std::char_traits<char> >:__s <- undef
	#DEBUG_VALUE: length:__s <- undef
	#DEBUG_VALUE: operator<<<std::char_traits<char> >:__s <- undef
	#DEBUG_VALUE: length:__s <- undef
	#DEBUG_VALUE: operator<<<std::char_traits<char> >:__s <- undef
	#DEBUG_VALUE: length:__s <- undef
	#DEBUG_VALUE: operator<<<std::char_traits<char> >:__s <- undef
	#DEBUG_VALUE: length:__s <- undef
	.loc	31 535 0                # /usr/lib/gcc/x86_64-linux-gnu/4.8/../../../../include/c++/4.8/ostream:535:0
	movq	%rax, %rdi
	movl	$.L.str, %esi
	movl	$1, %edx
	callq	_ZSt16__ostream_insertIcSt11char_traitsIcEERSt13basic_ostreamIT_T0_ES6_PKS3_l
.Ltmp332:
	.loc	1 9 0                   # main.cc:9:0
	movq	%rbx, %rdi
	movl	$57, %esi
	callq	_ZNSolsEi
.Ltmp333:
	#DEBUG_VALUE: operator<<<std::char_traits<char> >:__out <- RAX+0
	.loc	31 535 0                # /usr/lib/gcc/x86_64-linux-gnu/4.8/../../../../include/c++/4.8/ostream:535:0
	movq	%rax, %rdi
.Ltmp334:
	.loc	31 535 0                # /usr/lib/gcc/x86_64-linux-gnu/4.8/../../../../include/c++/4.8/ostream:535:0
	movl	$.L.str, %esi
	movl	$1, %edx
.Ltmp335:
	.loc	31 535 0                # /usr/lib/gcc/x86_64-linux-gnu/4.8/../../../../include/c++/4.8/ostream:535:0
	callq	_ZSt16__ostream_insertIcSt11char_traitsIcEERSt13basic_ostreamIT_T0_ES6_PKS3_l
.Ltmp336:
	.loc	1 9 0                   # main.cc:9:0
	movq	%rbx, %rdi
	movl	$58, %esi
	callq	_ZNSolsEi
.Ltmp337:
	#DEBUG_VALUE: operator<<<std::char_traits<char> >:__out <- RAX+0
	.loc	31 535 0                # /usr/lib/gcc/x86_64-linux-gnu/4.8/../../../../include/c++/4.8/ostream:535:0
	movq	%rax, %rdi
.Ltmp338:
	.loc	31 535 0                # /usr/lib/gcc/x86_64-linux-gnu/4.8/../../../../include/c++/4.8/ostream:535:0
	movl	$.L.str, %esi
	movl	$1, %edx
.Ltmp339:
	.loc	31 535 0                # /usr/lib/gcc/x86_64-linux-gnu/4.8/../../../../include/c++/4.8/ostream:535:0
	callq	_ZSt16__ostream_insertIcSt11char_traitsIcEERSt13basic_ostreamIT_T0_ES6_PKS3_l
.Ltmp340:
	.loc	1 9 0                   # main.cc:9:0
	movq	%rbx, %rdi
	movl	$59, %esi
	callq	_ZNSolsEi
.Ltmp341:
	#DEBUG_VALUE: operator<<<std::char_traits<char> >:__out <- RAX+0
	.loc	31 535 0                # /usr/lib/gcc/x86_64-linux-gnu/4.8/../../../../include/c++/4.8/ostream:535:0
	movq	%rax, %rdi
.Ltmp342:
	.loc	31 535 0                # /usr/lib/gcc/x86_64-linux-gnu/4.8/../../../../include/c++/4.8/ostream:535:0
	movl	$.L.str, %esi
	movl	$1, %edx
.Ltmp343:
	.loc	31 535 0                # /usr/lib/gcc/x86_64-linux-gnu/4.8/../../../../include/c++/4.8/ostream:535:0
	callq	_ZSt16__ostream_insertIcSt11char_traitsIcEERSt13basic_ostreamIT_T0_ES6_PKS3_l
.Ltmp344:
	.loc	1 9 0                   # main.cc:9:0
	movq	%rbx, %rdi
	movl	$60, %esi
	callq	_ZNSolsEi
.Ltmp345:
	#DEBUG_VALUE: operator<<<std::char_traits<char> >:__out <- RAX+0
	.loc	31 535 0                # /usr/lib/gcc/x86_64-linux-gnu/4.8/../../../../include/c++/4.8/ostream:535:0
	movq	%rax, %rdi
.Ltmp346:
	.loc	31 535 0                # /usr/lib/gcc/x86_64-linux-gnu/4.8/../../../../include/c++/4.8/ostream:535:0
	movl	$.L.str, %esi
	movl	$1, %edx
.Ltmp347:
	.loc	31 535 0                # /usr/lib/gcc/x86_64-linux-gnu/4.8/../../../../include/c++/4.8/ostream:535:0
	callq	_ZSt16__ostream_insertIcSt11char_traitsIcEERSt13basic_ostreamIT_T0_ES6_PKS3_l
.Ltmp348:
	.loc	1 9 0                   # main.cc:9:0
	movq	%rbx, %rdi
	movl	$61, %esi
	callq	_ZNSolsEi
.Ltmp349:
	#DEBUG_VALUE: operator<<<std::char_traits<char> >:__out <- RAX+0
	.loc	31 535 0                # /usr/lib/gcc/x86_64-linux-gnu/4.8/../../../../include/c++/4.8/ostream:535:0
	movq	%rax, %rdi
.Ltmp350:
	.loc	31 535 0                # /usr/lib/gcc/x86_64-linux-gnu/4.8/../../../../include/c++/4.8/ostream:535:0
	movl	$.L.str, %esi
	movl	$1, %edx
.Ltmp351:
	.loc	31 535 0                # /usr/lib/gcc/x86_64-linux-gnu/4.8/../../../../include/c++/4.8/ostream:535:0
	callq	_ZSt16__ostream_insertIcSt11char_traitsIcEERSt13basic_ostreamIT_T0_ES6_PKS3_l
.Ltmp352:
	.loc	1 9 0                   # main.cc:9:0
	movq	%rbx, %rdi
	movl	$62, %esi
	callq	_ZNSolsEi
.Ltmp353:
	#DEBUG_VALUE: operator<<<std::char_traits<char> >:__out <- RAX+0
	.loc	31 535 0                # /usr/lib/gcc/x86_64-linux-gnu/4.8/../../../../include/c++/4.8/ostream:535:0
	movq	%rax, %rdi
.Ltmp354:
	.loc	31 535 0                # /usr/lib/gcc/x86_64-linux-gnu/4.8/../../../../include/c++/4.8/ostream:535:0
	movl	$.L.str, %esi
	movl	$1, %edx
.Ltmp355:
	.loc	31 535 0                # /usr/lib/gcc/x86_64-linux-gnu/4.8/../../../../include/c++/4.8/ostream:535:0
	callq	_ZSt16__ostream_insertIcSt11char_traitsIcEERSt13basic_ostreamIT_T0_ES6_PKS3_l
.Ltmp356:
	.loc	1 9 0                   # main.cc:9:0
	movq	%rbx, %rdi
	movl	$63, %esi
	callq	_ZNSolsEi
.Ltmp357:
	#DEBUG_VALUE: operator<<<std::char_traits<char> >:__out <- RAX+0
	.loc	31 535 0                # /usr/lib/gcc/x86_64-linux-gnu/4.8/../../../../include/c++/4.8/ostream:535:0
	movq	%rax, %rdi
.Ltmp358:
	.loc	31 535 0                # /usr/lib/gcc/x86_64-linux-gnu/4.8/../../../../include/c++/4.8/ostream:535:0
	movl	$.L.str, %esi
	movl	$1, %edx
.Ltmp359:
	.loc	31 535 0                # /usr/lib/gcc/x86_64-linux-gnu/4.8/../../../../include/c++/4.8/ostream:535:0
	callq	_ZSt16__ostream_insertIcSt11char_traitsIcEERSt13basic_ostreamIT_T0_ES6_PKS3_l
.Ltmp360:
	.loc	1 10 0                  # main.cc:10:0
	movq	%r14, %rdi
.Ltmp361:
	#DEBUG_VALUE: operator()<libmda::metaprog::detail::loop_iterator_impl<libmda::metaprog::int_<56>, libmda::metaprog::int_<0>, libmda::metaprog::int_<200> >, libmda::metaprog::detail::loop_iterator_impl<libmda::metaprog::int_<200>, libmda::metaprog::int_<0>, libmda::metaprog::int_<200> > >:this <- RDI+0
	movq	%rbx, %rsi
	addq	$8, %rsp
	popq	%rbx
.Ltmp362:
	popq	%r14
.Ltmp363:
	jmp	_ZN5Forr_clIN6libmda8metaprog6detail18loop_iterator_implINS2_4int_ILi64EEENS5_ILi0EEENS5_ILi200EEEEENS4_IS8_S7_S8_EEEEvRSoT_T0_ # TAILCALL
.Ltmp364:
.Ltmp365:
	.size	_ZN5Forr_clIN6libmda8metaprog6detail18loop_iterator_implINS2_4int_ILi56EEENS5_ILi0EEENS5_ILi200EEEEENS4_IS8_S7_S8_EEEEvRSoT_T0_, .Ltmp365-_ZN5Forr_clIN6libmda8metaprog6detail18loop_iterator_implINS2_4int_ILi56EEENS5_ILi0EEENS5_ILi200EEEEENS4_IS8_S7_S8_EEEEvRSoT_T0_
.Lfunc_end8:
	.cfi_endproc

	.section	.text._ZN5Forr_clIN6libmda8metaprog6detail18loop_iterator_implINS2_4int_ILi64EEENS5_ILi0EEENS5_ILi200EEEEENS4_IS8_S7_S8_EEEEvRSoT_T0_,"axG",@progbits,_ZN5Forr_clIN6libmda8metaprog6detail18loop_iterator_implINS2_4int_ILi64EEENS5_ILi0EEENS5_ILi200EEEEENS4_IS8_S7_S8_EEEEvRSoT_T0_,comdat
	.weak	_ZN5Forr_clIN6libmda8metaprog6detail18loop_iterator_implINS2_4int_ILi64EEENS5_ILi0EEENS5_ILi200EEEEENS4_IS8_S7_S8_EEEEvRSoT_T0_
	.align	16, 0x90
	.type	_ZN5Forr_clIN6libmda8metaprog6detail18loop_iterator_implINS2_4int_ILi64EEENS5_ILi0EEENS5_ILi200EEEEENS4_IS8_S7_S8_EEEEvRSoT_T0_,@function
_ZN5Forr_clIN6libmda8metaprog6detail18loop_iterator_implINS2_4int_ILi64EEENS5_ILi0EEENS5_ILi200EEEEENS4_IS8_S7_S8_EEEEvRSoT_T0_: # @_ZN5Forr_clIN6libmda8metaprog6detail18loop_iterator_implINS2_4int_ILi64EEENS5_ILi0EEENS5_ILi200EEEEENS4_IS8_S7_S8_EEEEvRSoT_T0_
	.cfi_startproc
.Lfunc_begin9:
	.loc	1 8 0                   # main.cc:8:0
# BB#0:                                 # %entry
	pushq	%r14
.Ltmp369:
	.cfi_def_cfa_offset 16
	pushq	%rbx
.Ltmp370:
	.cfi_def_cfa_offset 24
	pushq	%rax
.Ltmp371:
	.cfi_def_cfa_offset 32
.Ltmp372:
	.cfi_offset %rbx, -24
.Ltmp373:
	.cfi_offset %r14, -16
	#DEBUG_VALUE: operator()<libmda::metaprog::detail::loop_iterator_impl<libmda::metaprog::int_<64>, libmda::metaprog::int_<0>, libmda::metaprog::int_<200> >, libmda::metaprog::detail::loop_iterator_impl<libmda::metaprog::int_<200>, libmda::metaprog::int_<0>, libmda::metaprog::int_<200> > >:this <- RDI+0
	#DEBUG_VALUE: operator()<libmda::metaprog::detail::loop_iterator_impl<libmda::metaprog::int_<64>, libmda::metaprog::int_<0>, libmda::metaprog::int_<200> >, libmda::metaprog::detail::loop_iterator_impl<libmda::metaprog::int_<200>, libmda::metaprog::int_<0>, libmda::metaprog::int_<200> > >:aout <- RSI+0
	movq	%rsi, %rbx
.Ltmp374:
	#DEBUG_VALUE: operator()<libmda::metaprog::detail::loop_iterator_impl<libmda::metaprog::int_<64>, libmda::metaprog::int_<0>, libmda::metaprog::int_<200> >, libmda::metaprog::detail::loop_iterator_impl<libmda::metaprog::int_<200>, libmda::metaprog::int_<0>, libmda::metaprog::int_<200> > >:aout <- RBX+0
	movq	%rdi, %r14
.Ltmp375:
	#DEBUG_VALUE: operator()<libmda::metaprog::detail::loop_iterator_impl<libmda::metaprog::int_<64>, libmda::metaprog::int_<0>, libmda::metaprog::int_<200> >, libmda::metaprog::detail::loop_iterator_impl<libmda::metaprog::int_<200>, libmda::metaprog::int_<0>, libmda::metaprog::int_<200> > >:this <- R14+0
	#DEBUG_VALUE: operator()<libmda::metaprog::detail::loop_iterator_impl<libmda::metaprog::int_<71>, libmda::metaprog::int_<0>, libmda::metaprog::int_<200> >, libmda::metaprog::detail::loop_iterator_impl<libmda::metaprog::int_<200>, libmda::metaprog::int_<0>, libmda::metaprog::int_<200> > >:this <- R14+0
	#DEBUG_VALUE: operator()<libmda::metaprog::detail::loop_iterator_impl<libmda::metaprog::int_<71>, libmda::metaprog::int_<0>, libmda::metaprog::int_<200> >, libmda::metaprog::detail::loop_iterator_impl<libmda::metaprog::int_<200>, libmda::metaprog::int_<0>, libmda::metaprog::int_<200> > >:aout <- RBX+0
	#DEBUG_VALUE: operator()<libmda::metaprog::detail::loop_iterator_impl<libmda::metaprog::int_<70>, libmda::metaprog::int_<0>, libmda::metaprog::int_<200> >, libmda::metaprog::detail::loop_iterator_impl<libmda::metaprog::int_<200>, libmda::metaprog::int_<0>, libmda::metaprog::int_<200> > >:this <- R14+0
	#DEBUG_VALUE: operator()<libmda::metaprog::detail::loop_iterator_impl<libmda::metaprog::int_<70>, libmda::metaprog::int_<0>, libmda::metaprog::int_<200> >, libmda::metaprog::detail::loop_iterator_impl<libmda::metaprog::int_<200>, libmda::metaprog::int_<0>, libmda::metaprog::int_<200> > >:aout <- RBX+0
	#DEBUG_VALUE: operator()<libmda::metaprog::detail::loop_iterator_impl<libmda::metaprog::int_<69>, libmda::metaprog::int_<0>, libmda::metaprog::int_<200> >, libmda::metaprog::detail::loop_iterator_impl<libmda::metaprog::int_<200>, libmda::metaprog::int_<0>, libmda::metaprog::int_<200> > >:this <- R14+0
	#DEBUG_VALUE: operator()<libmda::metaprog::detail::loop_iterator_impl<libmda::metaprog::int_<69>, libmda::metaprog::int_<0>, libmda::metaprog::int_<200> >, libmda::metaprog::detail::loop_iterator_impl<libmda::metaprog::int_<200>, libmda::metaprog::int_<0>, libmda::metaprog::int_<200> > >:aout <- RBX+0
	#DEBUG_VALUE: operator()<libmda::metaprog::detail::loop_iterator_impl<libmda::metaprog::int_<68>, libmda::metaprog::int_<0>, libmda::metaprog::int_<200> >, libmda::metaprog::detail::loop_iterator_impl<libmda::metaprog::int_<200>, libmda::metaprog::int_<0>, libmda::metaprog::int_<200> > >:this <- R14+0
	#DEBUG_VALUE: operator()<libmda::metaprog::detail::loop_iterator_impl<libmda::metaprog::int_<68>, libmda::metaprog::int_<0>, libmda::metaprog::int_<200> >, libmda::metaprog::detail::loop_iterator_impl<libmda::metaprog::int_<200>, libmda::metaprog::int_<0>, libmda::metaprog::int_<200> > >:aout <- RBX+0
	#DEBUG_VALUE: operator()<libmda::metaprog::detail::loop_iterator_impl<libmda::metaprog::int_<67>, libmda::metaprog::int_<0>, libmda::metaprog::int_<200> >, libmda::metaprog::detail::loop_iterator_impl<libmda::metaprog::int_<200>, libmda::metaprog::int_<0>, libmda::metaprog::int_<200> > >:this <- R14+0
	#DEBUG_VALUE: operator()<libmda::metaprog::detail::loop_iterator_impl<libmda::metaprog::int_<67>, libmda::metaprog::int_<0>, libmda::metaprog::int_<200> >, libmda::metaprog::detail::loop_iterator_impl<libmda::metaprog::int_<200>, libmda::metaprog::int_<0>, libmda::metaprog::int_<200> > >:aout <- RBX+0
	#DEBUG_VALUE: operator()<libmda::metaprog::detail::loop_iterator_impl<libmda::metaprog::int_<66>, libmda::metaprog::int_<0>, libmda::metaprog::int_<200> >, libmda::metaprog::detail::loop_iterator_impl<libmda::metaprog::int_<200>, libmda::metaprog::int_<0>, libmda::metaprog::int_<200> > >:this <- R14+0
	#DEBUG_VALUE: operator()<libmda::metaprog::detail::loop_iterator_impl<libmda::metaprog::int_<66>, libmda::metaprog::int_<0>, libmda::metaprog::int_<200> >, libmda::metaprog::detail::loop_iterator_impl<libmda::metaprog::int_<200>, libmda::metaprog::int_<0>, libmda::metaprog::int_<200> > >:aout <- RBX+0
	#DEBUG_VALUE: operator()<libmda::metaprog::detail::loop_iterator_impl<libmda::metaprog::int_<65>, libmda::metaprog::int_<0>, libmda::metaprog::int_<200> >, libmda::metaprog::detail::loop_iterator_impl<libmda::metaprog::int_<200>, libmda::metaprog::int_<0>, libmda::metaprog::int_<200> > >:this <- R14+0
	#DEBUG_VALUE: operator()<libmda::metaprog::detail::loop_iterator_impl<libmda::metaprog::int_<65>, libmda::metaprog::int_<0>, libmda::metaprog::int_<200> >, libmda::metaprog::detail::loop_iterator_impl<libmda::metaprog::int_<200>, libmda::metaprog::int_<0>, libmda::metaprog::int_<200> > >:aout <- RBX+0
	.loc	1 9 0 prologue_end      # main.cc:9:0
	movq	%rbx, %rdi
	movl	$64, %esi
	callq	_ZNSolsEi
.Ltmp376:
	#DEBUG_VALUE: operator<<<std::char_traits<char> >:__out <- RAX+0
	#DEBUG_VALUE: length:__s <- undef
	#DEBUG_VALUE: operator<<<std::char_traits<char> >:__s <- undef
	#DEBUG_VALUE: length:__s <- undef
	#DEBUG_VALUE: operator<<<std::char_traits<char> >:__s <- undef
	#DEBUG_VALUE: length:__s <- undef
	#DEBUG_VALUE: operator<<<std::char_traits<char> >:__s <- undef
	#DEBUG_VALUE: length:__s <- undef
	#DEBUG_VALUE: operator<<<std::char_traits<char> >:__s <- undef
	#DEBUG_VALUE: length:__s <- undef
	#DEBUG_VALUE: operator<<<std::char_traits<char> >:__s <- undef
	#DEBUG_VALUE: length:__s <- undef
	#DEBUG_VALUE: operator<<<std::char_traits<char> >:__s <- undef
	#DEBUG_VALUE: length:__s <- undef
	#DEBUG_VALUE: operator<<<std::char_traits<char> >:__s <- undef
	#DEBUG_VALUE: length:__s <- undef
	.loc	31 535 0                # /usr/lib/gcc/x86_64-linux-gnu/4.8/../../../../include/c++/4.8/ostream:535:0
	movq	%rax, %rdi
	movl	$.L.str, %esi
	movl	$1, %edx
	callq	_ZSt16__ostream_insertIcSt11char_traitsIcEERSt13basic_ostreamIT_T0_ES6_PKS3_l
.Ltmp377:
	.loc	1 9 0                   # main.cc:9:0
	movq	%rbx, %rdi
	movl	$65, %esi
	callq	_ZNSolsEi
.Ltmp378:
	#DEBUG_VALUE: operator<<<std::char_traits<char> >:__out <- RAX+0
	.loc	31 535 0                # /usr/lib/gcc/x86_64-linux-gnu/4.8/../../../../include/c++/4.8/ostream:535:0
	movq	%rax, %rdi
.Ltmp379:
	.loc	31 535 0                # /usr/lib/gcc/x86_64-linux-gnu/4.8/../../../../include/c++/4.8/ostream:535:0
	movl	$.L.str, %esi
	movl	$1, %edx
.Ltmp380:
	.loc	31 535 0                # /usr/lib/gcc/x86_64-linux-gnu/4.8/../../../../include/c++/4.8/ostream:535:0
	callq	_ZSt16__ostream_insertIcSt11char_traitsIcEERSt13basic_ostreamIT_T0_ES6_PKS3_l
.Ltmp381:
	.loc	1 9 0                   # main.cc:9:0
	movq	%rbx, %rdi
	movl	$66, %esi
	callq	_ZNSolsEi
.Ltmp382:
	#DEBUG_VALUE: operator<<<std::char_traits<char> >:__out <- RAX+0
	.loc	31 535 0                # /usr/lib/gcc/x86_64-linux-gnu/4.8/../../../../include/c++/4.8/ostream:535:0
	movq	%rax, %rdi
.Ltmp383:
	.loc	31 535 0                # /usr/lib/gcc/x86_64-linux-gnu/4.8/../../../../include/c++/4.8/ostream:535:0
	movl	$.L.str, %esi
	movl	$1, %edx
.Ltmp384:
	.loc	31 535 0                # /usr/lib/gcc/x86_64-linux-gnu/4.8/../../../../include/c++/4.8/ostream:535:0
	callq	_ZSt16__ostream_insertIcSt11char_traitsIcEERSt13basic_ostreamIT_T0_ES6_PKS3_l
.Ltmp385:
	.loc	1 9 0                   # main.cc:9:0
	movq	%rbx, %rdi
	movl	$67, %esi
	callq	_ZNSolsEi
.Ltmp386:
	#DEBUG_VALUE: operator<<<std::char_traits<char> >:__out <- RAX+0
	.loc	31 535 0                # /usr/lib/gcc/x86_64-linux-gnu/4.8/../../../../include/c++/4.8/ostream:535:0
	movq	%rax, %rdi
.Ltmp387:
	.loc	31 535 0                # /usr/lib/gcc/x86_64-linux-gnu/4.8/../../../../include/c++/4.8/ostream:535:0
	movl	$.L.str, %esi
	movl	$1, %edx
.Ltmp388:
	.loc	31 535 0                # /usr/lib/gcc/x86_64-linux-gnu/4.8/../../../../include/c++/4.8/ostream:535:0
	callq	_ZSt16__ostream_insertIcSt11char_traitsIcEERSt13basic_ostreamIT_T0_ES6_PKS3_l
.Ltmp389:
	.loc	1 9 0                   # main.cc:9:0
	movq	%rbx, %rdi
	movl	$68, %esi
	callq	_ZNSolsEi
.Ltmp390:
	#DEBUG_VALUE: operator<<<std::char_traits<char> >:__out <- RAX+0
	.loc	31 535 0                # /usr/lib/gcc/x86_64-linux-gnu/4.8/../../../../include/c++/4.8/ostream:535:0
	movq	%rax, %rdi
.Ltmp391:
	.loc	31 535 0                # /usr/lib/gcc/x86_64-linux-gnu/4.8/../../../../include/c++/4.8/ostream:535:0
	movl	$.L.str, %esi
	movl	$1, %edx
.Ltmp392:
	.loc	31 535 0                # /usr/lib/gcc/x86_64-linux-gnu/4.8/../../../../include/c++/4.8/ostream:535:0
	callq	_ZSt16__ostream_insertIcSt11char_traitsIcEERSt13basic_ostreamIT_T0_ES6_PKS3_l
.Ltmp393:
	.loc	1 9 0                   # main.cc:9:0
	movq	%rbx, %rdi
	movl	$69, %esi
	callq	_ZNSolsEi
.Ltmp394:
	#DEBUG_VALUE: operator<<<std::char_traits<char> >:__out <- RAX+0
	.loc	31 535 0                # /usr/lib/gcc/x86_64-linux-gnu/4.8/../../../../include/c++/4.8/ostream:535:0
	movq	%rax, %rdi
.Ltmp395:
	.loc	31 535 0                # /usr/lib/gcc/x86_64-linux-gnu/4.8/../../../../include/c++/4.8/ostream:535:0
	movl	$.L.str, %esi
	movl	$1, %edx
.Ltmp396:
	.loc	31 535 0                # /usr/lib/gcc/x86_64-linux-gnu/4.8/../../../../include/c++/4.8/ostream:535:0
	callq	_ZSt16__ostream_insertIcSt11char_traitsIcEERSt13basic_ostreamIT_T0_ES6_PKS3_l
.Ltmp397:
	.loc	1 9 0                   # main.cc:9:0
	movq	%rbx, %rdi
	movl	$70, %esi
	callq	_ZNSolsEi
.Ltmp398:
	#DEBUG_VALUE: operator<<<std::char_traits<char> >:__out <- RAX+0
	.loc	31 535 0                # /usr/lib/gcc/x86_64-linux-gnu/4.8/../../../../include/c++/4.8/ostream:535:0
	movq	%rax, %rdi
.Ltmp399:
	.loc	31 535 0                # /usr/lib/gcc/x86_64-linux-gnu/4.8/../../../../include/c++/4.8/ostream:535:0
	movl	$.L.str, %esi
	movl	$1, %edx
.Ltmp400:
	.loc	31 535 0                # /usr/lib/gcc/x86_64-linux-gnu/4.8/../../../../include/c++/4.8/ostream:535:0
	callq	_ZSt16__ostream_insertIcSt11char_traitsIcEERSt13basic_ostreamIT_T0_ES6_PKS3_l
.Ltmp401:
	.loc	1 9 0                   # main.cc:9:0
	movq	%rbx, %rdi
	movl	$71, %esi
	callq	_ZNSolsEi
.Ltmp402:
	#DEBUG_VALUE: operator<<<std::char_traits<char> >:__out <- RAX+0
	.loc	31 535 0                # /usr/lib/gcc/x86_64-linux-gnu/4.8/../../../../include/c++/4.8/ostream:535:0
	movq	%rax, %rdi
.Ltmp403:
	.loc	31 535 0                # /usr/lib/gcc/x86_64-linux-gnu/4.8/../../../../include/c++/4.8/ostream:535:0
	movl	$.L.str, %esi
	movl	$1, %edx
.Ltmp404:
	.loc	31 535 0                # /usr/lib/gcc/x86_64-linux-gnu/4.8/../../../../include/c++/4.8/ostream:535:0
	callq	_ZSt16__ostream_insertIcSt11char_traitsIcEERSt13basic_ostreamIT_T0_ES6_PKS3_l
.Ltmp405:
	.loc	1 10 0                  # main.cc:10:0
	movq	%r14, %rdi
.Ltmp406:
	#DEBUG_VALUE: operator()<libmda::metaprog::detail::loop_iterator_impl<libmda::metaprog::int_<64>, libmda::metaprog::int_<0>, libmda::metaprog::int_<200> >, libmda::metaprog::detail::loop_iterator_impl<libmda::metaprog::int_<200>, libmda::metaprog::int_<0>, libmda::metaprog::int_<200> > >:this <- RDI+0
	movq	%rbx, %rsi
	addq	$8, %rsp
	popq	%rbx
.Ltmp407:
	popq	%r14
.Ltmp408:
	jmp	_ZN5Forr_clIN6libmda8metaprog6detail18loop_iterator_implINS2_4int_ILi72EEENS5_ILi0EEENS5_ILi200EEEEENS4_IS8_S7_S8_EEEEvRSoT_T0_ # TAILCALL
.Ltmp409:
.Ltmp410:
	.size	_ZN5Forr_clIN6libmda8metaprog6detail18loop_iterator_implINS2_4int_ILi64EEENS5_ILi0EEENS5_ILi200EEEEENS4_IS8_S7_S8_EEEEvRSoT_T0_, .Ltmp410-_ZN5Forr_clIN6libmda8metaprog6detail18loop_iterator_implINS2_4int_ILi64EEENS5_ILi0EEENS5_ILi200EEEEENS4_IS8_S7_S8_EEEEvRSoT_T0_
.Lfunc_end9:
	.cfi_endproc

	.section	.text._ZN5Forr_clIN6libmda8metaprog6detail18loop_iterator_implINS2_4int_ILi72EEENS5_ILi0EEENS5_ILi200EEEEENS4_IS8_S7_S8_EEEEvRSoT_T0_,"axG",@progbits,_ZN5Forr_clIN6libmda8metaprog6detail18loop_iterator_implINS2_4int_ILi72EEENS5_ILi0EEENS5_ILi200EEEEENS4_IS8_S7_S8_EEEEvRSoT_T0_,comdat
	.weak	_ZN5Forr_clIN6libmda8metaprog6detail18loop_iterator_implINS2_4int_ILi72EEENS5_ILi0EEENS5_ILi200EEEEENS4_IS8_S7_S8_EEEEvRSoT_T0_
	.align	16, 0x90
	.type	_ZN5Forr_clIN6libmda8metaprog6detail18loop_iterator_implINS2_4int_ILi72EEENS5_ILi0EEENS5_ILi200EEEEENS4_IS8_S7_S8_EEEEvRSoT_T0_,@function
_ZN5Forr_clIN6libmda8metaprog6detail18loop_iterator_implINS2_4int_ILi72EEENS5_ILi0EEENS5_ILi200EEEEENS4_IS8_S7_S8_EEEEvRSoT_T0_: # @_ZN5Forr_clIN6libmda8metaprog6detail18loop_iterator_implINS2_4int_ILi72EEENS5_ILi0EEENS5_ILi200EEEEENS4_IS8_S7_S8_EEEEvRSoT_T0_
	.cfi_startproc
.Lfunc_begin10:
	.loc	1 8 0                   # main.cc:8:0
# BB#0:                                 # %entry
	pushq	%r14
.Ltmp414:
	.cfi_def_cfa_offset 16
	pushq	%rbx
.Ltmp415:
	.cfi_def_cfa_offset 24
	pushq	%rax
.Ltmp416:
	.cfi_def_cfa_offset 32
.Ltmp417:
	.cfi_offset %rbx, -24
.Ltmp418:
	.cfi_offset %r14, -16
	#DEBUG_VALUE: operator()<libmda::metaprog::detail::loop_iterator_impl<libmda::metaprog::int_<72>, libmda::metaprog::int_<0>, libmda::metaprog::int_<200> >, libmda::metaprog::detail::loop_iterator_impl<libmda::metaprog::int_<200>, libmda::metaprog::int_<0>, libmda::metaprog::int_<200> > >:this <- RDI+0
	#DEBUG_VALUE: operator()<libmda::metaprog::detail::loop_iterator_impl<libmda::metaprog::int_<72>, libmda::metaprog::int_<0>, libmda::metaprog::int_<200> >, libmda::metaprog::detail::loop_iterator_impl<libmda::metaprog::int_<200>, libmda::metaprog::int_<0>, libmda::metaprog::int_<200> > >:aout <- RSI+0
	movq	%rsi, %rbx
.Ltmp419:
	#DEBUG_VALUE: operator()<libmda::metaprog::detail::loop_iterator_impl<libmda::metaprog::int_<72>, libmda::metaprog::int_<0>, libmda::metaprog::int_<200> >, libmda::metaprog::detail::loop_iterator_impl<libmda::metaprog::int_<200>, libmda::metaprog::int_<0>, libmda::metaprog::int_<200> > >:aout <- RBX+0
	movq	%rdi, %r14
.Ltmp420:
	#DEBUG_VALUE: operator()<libmda::metaprog::detail::loop_iterator_impl<libmda::metaprog::int_<72>, libmda::metaprog::int_<0>, libmda::metaprog::int_<200> >, libmda::metaprog::detail::loop_iterator_impl<libmda::metaprog::int_<200>, libmda::metaprog::int_<0>, libmda::metaprog::int_<200> > >:this <- R14+0
	#DEBUG_VALUE: operator()<libmda::metaprog::detail::loop_iterator_impl<libmda::metaprog::int_<79>, libmda::metaprog::int_<0>, libmda::metaprog::int_<200> >, libmda::metaprog::detail::loop_iterator_impl<libmda::metaprog::int_<200>, libmda::metaprog::int_<0>, libmda::metaprog::int_<200> > >:this <- R14+0
	#DEBUG_VALUE: operator()<libmda::metaprog::detail::loop_iterator_impl<libmda::metaprog::int_<79>, libmda::metaprog::int_<0>, libmda::metaprog::int_<200> >, libmda::metaprog::detail::loop_iterator_impl<libmda::metaprog::int_<200>, libmda::metaprog::int_<0>, libmda::metaprog::int_<200> > >:aout <- RBX+0
	#DEBUG_VALUE: operator()<libmda::metaprog::detail::loop_iterator_impl<libmda::metaprog::int_<78>, libmda::metaprog::int_<0>, libmda::metaprog::int_<200> >, libmda::metaprog::detail::loop_iterator_impl<libmda::metaprog::int_<200>, libmda::metaprog::int_<0>, libmda::metaprog::int_<200> > >:this <- R14+0
	#DEBUG_VALUE: operator()<libmda::metaprog::detail::loop_iterator_impl<libmda::metaprog::int_<78>, libmda::metaprog::int_<0>, libmda::metaprog::int_<200> >, libmda::metaprog::detail::loop_iterator_impl<libmda::metaprog::int_<200>, libmda::metaprog::int_<0>, libmda::metaprog::int_<200> > >:aout <- RBX+0
	#DEBUG_VALUE: operator()<libmda::metaprog::detail::loop_iterator_impl<libmda::metaprog::int_<77>, libmda::metaprog::int_<0>, libmda::metaprog::int_<200> >, libmda::metaprog::detail::loop_iterator_impl<libmda::metaprog::int_<200>, libmda::metaprog::int_<0>, libmda::metaprog::int_<200> > >:this <- R14+0
	#DEBUG_VALUE: operator()<libmda::metaprog::detail::loop_iterator_impl<libmda::metaprog::int_<77>, libmda::metaprog::int_<0>, libmda::metaprog::int_<200> >, libmda::metaprog::detail::loop_iterator_impl<libmda::metaprog::int_<200>, libmda::metaprog::int_<0>, libmda::metaprog::int_<200> > >:aout <- RBX+0
	#DEBUG_VALUE: operator()<libmda::metaprog::detail::loop_iterator_impl<libmda::metaprog::int_<76>, libmda::metaprog::int_<0>, libmda::metaprog::int_<200> >, libmda::metaprog::detail::loop_iterator_impl<libmda::metaprog::int_<200>, libmda::metaprog::int_<0>, libmda::metaprog::int_<200> > >:this <- R14+0
	#DEBUG_VALUE: operator()<libmda::metaprog::detail::loop_iterator_impl<libmda::metaprog::int_<76>, libmda::metaprog::int_<0>, libmda::metaprog::int_<200> >, libmda::metaprog::detail::loop_iterator_impl<libmda::metaprog::int_<200>, libmda::metaprog::int_<0>, libmda::metaprog::int_<200> > >:aout <- RBX+0
	#DEBUG_VALUE: operator()<libmda::metaprog::detail::loop_iterator_impl<libmda::metaprog::int_<75>, libmda::metaprog::int_<0>, libmda::metaprog::int_<200> >, libmda::metaprog::detail::loop_iterator_impl<libmda::metaprog::int_<200>, libmda::metaprog::int_<0>, libmda::metaprog::int_<200> > >:this <- R14+0
	#DEBUG_VALUE: operator()<libmda::metaprog::detail::loop_iterator_impl<libmda::metaprog::int_<75>, libmda::metaprog::int_<0>, libmda::metaprog::int_<200> >, libmda::metaprog::detail::loop_iterator_impl<libmda::metaprog::int_<200>, libmda::metaprog::int_<0>, libmda::metaprog::int_<200> > >:aout <- RBX+0
	#DEBUG_VALUE: operator()<libmda::metaprog::detail::loop_iterator_impl<libmda::metaprog::int_<74>, libmda::metaprog::int_<0>, libmda::metaprog::int_<200> >, libmda::metaprog::detail::loop_iterator_impl<libmda::metaprog::int_<200>, libmda::metaprog::int_<0>, libmda::metaprog::int_<200> > >:this <- R14+0
	#DEBUG_VALUE: operator()<libmda::metaprog::detail::loop_iterator_impl<libmda::metaprog::int_<74>, libmda::metaprog::int_<0>, libmda::metaprog::int_<200> >, libmda::metaprog::detail::loop_iterator_impl<libmda::metaprog::int_<200>, libmda::metaprog::int_<0>, libmda::metaprog::int_<200> > >:aout <- RBX+0
	#DEBUG_VALUE: operator()<libmda::metaprog::detail::loop_iterator_impl<libmda::metaprog::int_<73>, libmda::metaprog::int_<0>, libmda::metaprog::int_<200> >, libmda::metaprog::detail::loop_iterator_impl<libmda::metaprog::int_<200>, libmda::metaprog::int_<0>, libmda::metaprog::int_<200> > >:this <- R14+0
	#DEBUG_VALUE: operator()<libmda::metaprog::detail::loop_iterator_impl<libmda::metaprog::int_<73>, libmda::metaprog::int_<0>, libmda::metaprog::int_<200> >, libmda::metaprog::detail::loop_iterator_impl<libmda::metaprog::int_<200>, libmda::metaprog::int_<0>, libmda::metaprog::int_<200> > >:aout <- RBX+0
	.loc	1 9 0 prologue_end      # main.cc:9:0
	movq	%rbx, %rdi
	movl	$72, %esi
	callq	_ZNSolsEi
.Ltmp421:
	#DEBUG_VALUE: operator<<<std::char_traits<char> >:__out <- RAX+0
	#DEBUG_VALUE: length:__s <- undef
	#DEBUG_VALUE: operator<<<std::char_traits<char> >:__s <- undef
	#DEBUG_VALUE: length:__s <- undef
	#DEBUG_VALUE: operator<<<std::char_traits<char> >:__s <- undef
	#DEBUG_VALUE: length:__s <- undef
	#DEBUG_VALUE: operator<<<std::char_traits<char> >:__s <- undef
	#DEBUG_VALUE: length:__s <- undef
	#DEBUG_VALUE: operator<<<std::char_traits<char> >:__s <- undef
	#DEBUG_VALUE: length:__s <- undef
	#DEBUG_VALUE: operator<<<std::char_traits<char> >:__s <- undef
	#DEBUG_VALUE: length:__s <- undef
	#DEBUG_VALUE: operator<<<std::char_traits<char> >:__s <- undef
	#DEBUG_VALUE: length:__s <- undef
	#DEBUG_VALUE: operator<<<std::char_traits<char> >:__s <- undef
	#DEBUG_VALUE: length:__s <- undef
	.loc	31 535 0                # /usr/lib/gcc/x86_64-linux-gnu/4.8/../../../../include/c++/4.8/ostream:535:0
	movq	%rax, %rdi
	movl	$.L.str, %esi
	movl	$1, %edx
	callq	_ZSt16__ostream_insertIcSt11char_traitsIcEERSt13basic_ostreamIT_T0_ES6_PKS3_l
.Ltmp422:
	.loc	1 9 0                   # main.cc:9:0
	movq	%rbx, %rdi
	movl	$73, %esi
	callq	_ZNSolsEi
.Ltmp423:
	#DEBUG_VALUE: operator<<<std::char_traits<char> >:__out <- RAX+0
	.loc	31 535 0                # /usr/lib/gcc/x86_64-linux-gnu/4.8/../../../../include/c++/4.8/ostream:535:0
	movq	%rax, %rdi
.Ltmp424:
	.loc	31 535 0                # /usr/lib/gcc/x86_64-linux-gnu/4.8/../../../../include/c++/4.8/ostream:535:0
	movl	$.L.str, %esi
	movl	$1, %edx
.Ltmp425:
	.loc	31 535 0                # /usr/lib/gcc/x86_64-linux-gnu/4.8/../../../../include/c++/4.8/ostream:535:0
	callq	_ZSt16__ostream_insertIcSt11char_traitsIcEERSt13basic_ostreamIT_T0_ES6_PKS3_l
.Ltmp426:
	.loc	1 9 0                   # main.cc:9:0
	movq	%rbx, %rdi
	movl	$74, %esi
	callq	_ZNSolsEi
.Ltmp427:
	#DEBUG_VALUE: operator<<<std::char_traits<char> >:__out <- RAX+0
	.loc	31 535 0                # /usr/lib/gcc/x86_64-linux-gnu/4.8/../../../../include/c++/4.8/ostream:535:0
	movq	%rax, %rdi
.Ltmp428:
	.loc	31 535 0                # /usr/lib/gcc/x86_64-linux-gnu/4.8/../../../../include/c++/4.8/ostream:535:0
	movl	$.L.str, %esi
	movl	$1, %edx
.Ltmp429:
	.loc	31 535 0                # /usr/lib/gcc/x86_64-linux-gnu/4.8/../../../../include/c++/4.8/ostream:535:0
	callq	_ZSt16__ostream_insertIcSt11char_traitsIcEERSt13basic_ostreamIT_T0_ES6_PKS3_l
.Ltmp430:
	.loc	1 9 0                   # main.cc:9:0
	movq	%rbx, %rdi
	movl	$75, %esi
	callq	_ZNSolsEi
.Ltmp431:
	#DEBUG_VALUE: operator<<<std::char_traits<char> >:__out <- RAX+0
	.loc	31 535 0                # /usr/lib/gcc/x86_64-linux-gnu/4.8/../../../../include/c++/4.8/ostream:535:0
	movq	%rax, %rdi
.Ltmp432:
	.loc	31 535 0                # /usr/lib/gcc/x86_64-linux-gnu/4.8/../../../../include/c++/4.8/ostream:535:0
	movl	$.L.str, %esi
	movl	$1, %edx
.Ltmp433:
	.loc	31 535 0                # /usr/lib/gcc/x86_64-linux-gnu/4.8/../../../../include/c++/4.8/ostream:535:0
	callq	_ZSt16__ostream_insertIcSt11char_traitsIcEERSt13basic_ostreamIT_T0_ES6_PKS3_l
.Ltmp434:
	.loc	1 9 0                   # main.cc:9:0
	movq	%rbx, %rdi
	movl	$76, %esi
	callq	_ZNSolsEi
.Ltmp435:
	#DEBUG_VALUE: operator<<<std::char_traits<char> >:__out <- RAX+0
	.loc	31 535 0                # /usr/lib/gcc/x86_64-linux-gnu/4.8/../../../../include/c++/4.8/ostream:535:0
	movq	%rax, %rdi
.Ltmp436:
	.loc	31 535 0                # /usr/lib/gcc/x86_64-linux-gnu/4.8/../../../../include/c++/4.8/ostream:535:0
	movl	$.L.str, %esi
	movl	$1, %edx
.Ltmp437:
	.loc	31 535 0                # /usr/lib/gcc/x86_64-linux-gnu/4.8/../../../../include/c++/4.8/ostream:535:0
	callq	_ZSt16__ostream_insertIcSt11char_traitsIcEERSt13basic_ostreamIT_T0_ES6_PKS3_l
.Ltmp438:
	.loc	1 9 0                   # main.cc:9:0
	movq	%rbx, %rdi
	movl	$77, %esi
	callq	_ZNSolsEi
.Ltmp439:
	#DEBUG_VALUE: operator<<<std::char_traits<char> >:__out <- RAX+0
	.loc	31 535 0                # /usr/lib/gcc/x86_64-linux-gnu/4.8/../../../../include/c++/4.8/ostream:535:0
	movq	%rax, %rdi
.Ltmp440:
	.loc	31 535 0                # /usr/lib/gcc/x86_64-linux-gnu/4.8/../../../../include/c++/4.8/ostream:535:0
	movl	$.L.str, %esi
	movl	$1, %edx
.Ltmp441:
	.loc	31 535 0                # /usr/lib/gcc/x86_64-linux-gnu/4.8/../../../../include/c++/4.8/ostream:535:0
	callq	_ZSt16__ostream_insertIcSt11char_traitsIcEERSt13basic_ostreamIT_T0_ES6_PKS3_l
.Ltmp442:
	.loc	1 9 0                   # main.cc:9:0
	movq	%rbx, %rdi
	movl	$78, %esi
	callq	_ZNSolsEi
.Ltmp443:
	#DEBUG_VALUE: operator<<<std::char_traits<char> >:__out <- RAX+0
	.loc	31 535 0                # /usr/lib/gcc/x86_64-linux-gnu/4.8/../../../../include/c++/4.8/ostream:535:0
	movq	%rax, %rdi
.Ltmp444:
	.loc	31 535 0                # /usr/lib/gcc/x86_64-linux-gnu/4.8/../../../../include/c++/4.8/ostream:535:0
	movl	$.L.str, %esi
	movl	$1, %edx
.Ltmp445:
	.loc	31 535 0                # /usr/lib/gcc/x86_64-linux-gnu/4.8/../../../../include/c++/4.8/ostream:535:0
	callq	_ZSt16__ostream_insertIcSt11char_traitsIcEERSt13basic_ostreamIT_T0_ES6_PKS3_l
.Ltmp446:
	.loc	1 9 0                   # main.cc:9:0
	movq	%rbx, %rdi
	movl	$79, %esi
	callq	_ZNSolsEi
.Ltmp447:
	#DEBUG_VALUE: operator<<<std::char_traits<char> >:__out <- RAX+0
	.loc	31 535 0                # /usr/lib/gcc/x86_64-linux-gnu/4.8/../../../../include/c++/4.8/ostream:535:0
	movq	%rax, %rdi
.Ltmp448:
	.loc	31 535 0                # /usr/lib/gcc/x86_64-linux-gnu/4.8/../../../../include/c++/4.8/ostream:535:0
	movl	$.L.str, %esi
	movl	$1, %edx
.Ltmp449:
	.loc	31 535 0                # /usr/lib/gcc/x86_64-linux-gnu/4.8/../../../../include/c++/4.8/ostream:535:0
	callq	_ZSt16__ostream_insertIcSt11char_traitsIcEERSt13basic_ostreamIT_T0_ES6_PKS3_l
.Ltmp450:
	.loc	1 10 0                  # main.cc:10:0
	movq	%r14, %rdi
.Ltmp451:
	#DEBUG_VALUE: operator()<libmda::metaprog::detail::loop_iterator_impl<libmda::metaprog::int_<72>, libmda::metaprog::int_<0>, libmda::metaprog::int_<200> >, libmda::metaprog::detail::loop_iterator_impl<libmda::metaprog::int_<200>, libmda::metaprog::int_<0>, libmda::metaprog::int_<200> > >:this <- RDI+0
	movq	%rbx, %rsi
	addq	$8, %rsp
	popq	%rbx
.Ltmp452:
	popq	%r14
.Ltmp453:
	jmp	_ZN5Forr_clIN6libmda8metaprog6detail18loop_iterator_implINS2_4int_ILi80EEENS5_ILi0EEENS5_ILi200EEEEENS4_IS8_S7_S8_EEEEvRSoT_T0_ # TAILCALL
.Ltmp454:
.Ltmp455:
	.size	_ZN5Forr_clIN6libmda8metaprog6detail18loop_iterator_implINS2_4int_ILi72EEENS5_ILi0EEENS5_ILi200EEEEENS4_IS8_S7_S8_EEEEvRSoT_T0_, .Ltmp455-_ZN5Forr_clIN6libmda8metaprog6detail18loop_iterator_implINS2_4int_ILi72EEENS5_ILi0EEENS5_ILi200EEEEENS4_IS8_S7_S8_EEEEvRSoT_T0_
.Lfunc_end10:
	.cfi_endproc

	.section	.text._ZN5Forr_clIN6libmda8metaprog6detail18loop_iterator_implINS2_4int_ILi80EEENS5_ILi0EEENS5_ILi200EEEEENS4_IS8_S7_S8_EEEEvRSoT_T0_,"axG",@progbits,_ZN5Forr_clIN6libmda8metaprog6detail18loop_iterator_implINS2_4int_ILi80EEENS5_ILi0EEENS5_ILi200EEEEENS4_IS8_S7_S8_EEEEvRSoT_T0_,comdat
	.weak	_ZN5Forr_clIN6libmda8metaprog6detail18loop_iterator_implINS2_4int_ILi80EEENS5_ILi0EEENS5_ILi200EEEEENS4_IS8_S7_S8_EEEEvRSoT_T0_
	.align	16, 0x90
	.type	_ZN5Forr_clIN6libmda8metaprog6detail18loop_iterator_implINS2_4int_ILi80EEENS5_ILi0EEENS5_ILi200EEEEENS4_IS8_S7_S8_EEEEvRSoT_T0_,@function
_ZN5Forr_clIN6libmda8metaprog6detail18loop_iterator_implINS2_4int_ILi80EEENS5_ILi0EEENS5_ILi200EEEEENS4_IS8_S7_S8_EEEEvRSoT_T0_: # @_ZN5Forr_clIN6libmda8metaprog6detail18loop_iterator_implINS2_4int_ILi80EEENS5_ILi0EEENS5_ILi200EEEEENS4_IS8_S7_S8_EEEEvRSoT_T0_
	.cfi_startproc
.Lfunc_begin11:
	.loc	1 8 0                   # main.cc:8:0
# BB#0:                                 # %entry
	pushq	%r14
.Ltmp459:
	.cfi_def_cfa_offset 16
	pushq	%rbx
.Ltmp460:
	.cfi_def_cfa_offset 24
	pushq	%rax
.Ltmp461:
	.cfi_def_cfa_offset 32
.Ltmp462:
	.cfi_offset %rbx, -24
.Ltmp463:
	.cfi_offset %r14, -16
	#DEBUG_VALUE: operator()<libmda::metaprog::detail::loop_iterator_impl<libmda::metaprog::int_<80>, libmda::metaprog::int_<0>, libmda::metaprog::int_<200> >, libmda::metaprog::detail::loop_iterator_impl<libmda::metaprog::int_<200>, libmda::metaprog::int_<0>, libmda::metaprog::int_<200> > >:this <- RDI+0
	#DEBUG_VALUE: operator()<libmda::metaprog::detail::loop_iterator_impl<libmda::metaprog::int_<80>, libmda::metaprog::int_<0>, libmda::metaprog::int_<200> >, libmda::metaprog::detail::loop_iterator_impl<libmda::metaprog::int_<200>, libmda::metaprog::int_<0>, libmda::metaprog::int_<200> > >:aout <- RSI+0
	movq	%rsi, %rbx
.Ltmp464:
	#DEBUG_VALUE: operator()<libmda::metaprog::detail::loop_iterator_impl<libmda::metaprog::int_<80>, libmda::metaprog::int_<0>, libmda::metaprog::int_<200> >, libmda::metaprog::detail::loop_iterator_impl<libmda::metaprog::int_<200>, libmda::metaprog::int_<0>, libmda::metaprog::int_<200> > >:aout <- RBX+0
	movq	%rdi, %r14
.Ltmp465:
	#DEBUG_VALUE: operator()<libmda::metaprog::detail::loop_iterator_impl<libmda::metaprog::int_<80>, libmda::metaprog::int_<0>, libmda::metaprog::int_<200> >, libmda::metaprog::detail::loop_iterator_impl<libmda::metaprog::int_<200>, libmda::metaprog::int_<0>, libmda::metaprog::int_<200> > >:this <- R14+0
	#DEBUG_VALUE: operator()<libmda::metaprog::detail::loop_iterator_impl<libmda::metaprog::int_<87>, libmda::metaprog::int_<0>, libmda::metaprog::int_<200> >, libmda::metaprog::detail::loop_iterator_impl<libmda::metaprog::int_<200>, libmda::metaprog::int_<0>, libmda::metaprog::int_<200> > >:this <- R14+0
	#DEBUG_VALUE: operator()<libmda::metaprog::detail::loop_iterator_impl<libmda::metaprog::int_<87>, libmda::metaprog::int_<0>, libmda::metaprog::int_<200> >, libmda::metaprog::detail::loop_iterator_impl<libmda::metaprog::int_<200>, libmda::metaprog::int_<0>, libmda::metaprog::int_<200> > >:aout <- RBX+0
	#DEBUG_VALUE: operator()<libmda::metaprog::detail::loop_iterator_impl<libmda::metaprog::int_<86>, libmda::metaprog::int_<0>, libmda::metaprog::int_<200> >, libmda::metaprog::detail::loop_iterator_impl<libmda::metaprog::int_<200>, libmda::metaprog::int_<0>, libmda::metaprog::int_<200> > >:this <- R14+0
	#DEBUG_VALUE: operator()<libmda::metaprog::detail::loop_iterator_impl<libmda::metaprog::int_<86>, libmda::metaprog::int_<0>, libmda::metaprog::int_<200> >, libmda::metaprog::detail::loop_iterator_impl<libmda::metaprog::int_<200>, libmda::metaprog::int_<0>, libmda::metaprog::int_<200> > >:aout <- RBX+0
	#DEBUG_VALUE: operator()<libmda::metaprog::detail::loop_iterator_impl<libmda::metaprog::int_<85>, libmda::metaprog::int_<0>, libmda::metaprog::int_<200> >, libmda::metaprog::detail::loop_iterator_impl<libmda::metaprog::int_<200>, libmda::metaprog::int_<0>, libmda::metaprog::int_<200> > >:this <- R14+0
	#DEBUG_VALUE: operator()<libmda::metaprog::detail::loop_iterator_impl<libmda::metaprog::int_<85>, libmda::metaprog::int_<0>, libmda::metaprog::int_<200> >, libmda::metaprog::detail::loop_iterator_impl<libmda::metaprog::int_<200>, libmda::metaprog::int_<0>, libmda::metaprog::int_<200> > >:aout <- RBX+0
	#DEBUG_VALUE: operator()<libmda::metaprog::detail::loop_iterator_impl<libmda::metaprog::int_<84>, libmda::metaprog::int_<0>, libmda::metaprog::int_<200> >, libmda::metaprog::detail::loop_iterator_impl<libmda::metaprog::int_<200>, libmda::metaprog::int_<0>, libmda::metaprog::int_<200> > >:this <- R14+0
	#DEBUG_VALUE: operator()<libmda::metaprog::detail::loop_iterator_impl<libmda::metaprog::int_<84>, libmda::metaprog::int_<0>, libmda::metaprog::int_<200> >, libmda::metaprog::detail::loop_iterator_impl<libmda::metaprog::int_<200>, libmda::metaprog::int_<0>, libmda::metaprog::int_<200> > >:aout <- RBX+0
	#DEBUG_VALUE: operator()<libmda::metaprog::detail::loop_iterator_impl<libmda::metaprog::int_<83>, libmda::metaprog::int_<0>, libmda::metaprog::int_<200> >, libmda::metaprog::detail::loop_iterator_impl<libmda::metaprog::int_<200>, libmda::metaprog::int_<0>, libmda::metaprog::int_<200> > >:this <- R14+0
	#DEBUG_VALUE: operator()<libmda::metaprog::detail::loop_iterator_impl<libmda::metaprog::int_<83>, libmda::metaprog::int_<0>, libmda::metaprog::int_<200> >, libmda::metaprog::detail::loop_iterator_impl<libmda::metaprog::int_<200>, libmda::metaprog::int_<0>, libmda::metaprog::int_<200> > >:aout <- RBX+0
	#DEBUG_VALUE: operator()<libmda::metaprog::detail::loop_iterator_impl<libmda::metaprog::int_<82>, libmda::metaprog::int_<0>, libmda::metaprog::int_<200> >, libmda::metaprog::detail::loop_iterator_impl<libmda::metaprog::int_<200>, libmda::metaprog::int_<0>, libmda::metaprog::int_<200> > >:this <- R14+0
	#DEBUG_VALUE: operator()<libmda::metaprog::detail::loop_iterator_impl<libmda::metaprog::int_<82>, libmda::metaprog::int_<0>, libmda::metaprog::int_<200> >, libmda::metaprog::detail::loop_iterator_impl<libmda::metaprog::int_<200>, libmda::metaprog::int_<0>, libmda::metaprog::int_<200> > >:aout <- RBX+0
	#DEBUG_VALUE: operator()<libmda::metaprog::detail::loop_iterator_impl<libmda::metaprog::int_<81>, libmda::metaprog::int_<0>, libmda::metaprog::int_<200> >, libmda::metaprog::detail::loop_iterator_impl<libmda::metaprog::int_<200>, libmda::metaprog::int_<0>, libmda::metaprog::int_<200> > >:this <- R14+0
	#DEBUG_VALUE: operator()<libmda::metaprog::detail::loop_iterator_impl<libmda::metaprog::int_<81>, libmda::metaprog::int_<0>, libmda::metaprog::int_<200> >, libmda::metaprog::detail::loop_iterator_impl<libmda::metaprog::int_<200>, libmda::metaprog::int_<0>, libmda::metaprog::int_<200> > >:aout <- RBX+0
	.loc	1 9 0 prologue_end      # main.cc:9:0
	movq	%rbx, %rdi
	movl	$80, %esi
	callq	_ZNSolsEi
.Ltmp466:
	#DEBUG_VALUE: operator<<<std::char_traits<char> >:__out <- RAX+0
	#DEBUG_VALUE: length:__s <- undef
	#DEBUG_VALUE: operator<<<std::char_traits<char> >:__s <- undef
	#DEBUG_VALUE: length:__s <- undef
	#DEBUG_VALUE: operator<<<std::char_traits<char> >:__s <- undef
	#DEBUG_VALUE: length:__s <- undef
	#DEBUG_VALUE: operator<<<std::char_traits<char> >:__s <- undef
	#DEBUG_VALUE: length:__s <- undef
	#DEBUG_VALUE: operator<<<std::char_traits<char> >:__s <- undef
	#DEBUG_VALUE: length:__s <- undef
	#DEBUG_VALUE: operator<<<std::char_traits<char> >:__s <- undef
	#DEBUG_VALUE: length:__s <- undef
	#DEBUG_VALUE: operator<<<std::char_traits<char> >:__s <- undef
	#DEBUG_VALUE: length:__s <- undef
	#DEBUG_VALUE: operator<<<std::char_traits<char> >:__s <- undef
	#DEBUG_VALUE: length:__s <- undef
	.loc	31 535 0                # /usr/lib/gcc/x86_64-linux-gnu/4.8/../../../../include/c++/4.8/ostream:535:0
	movq	%rax, %rdi
	movl	$.L.str, %esi
	movl	$1, %edx
	callq	_ZSt16__ostream_insertIcSt11char_traitsIcEERSt13basic_ostreamIT_T0_ES6_PKS3_l
.Ltmp467:
	.loc	1 9 0                   # main.cc:9:0
	movq	%rbx, %rdi
	movl	$81, %esi
	callq	_ZNSolsEi
.Ltmp468:
	#DEBUG_VALUE: operator<<<std::char_traits<char> >:__out <- RAX+0
	.loc	31 535 0                # /usr/lib/gcc/x86_64-linux-gnu/4.8/../../../../include/c++/4.8/ostream:535:0
	movq	%rax, %rdi
.Ltmp469:
	.loc	31 535 0                # /usr/lib/gcc/x86_64-linux-gnu/4.8/../../../../include/c++/4.8/ostream:535:0
	movl	$.L.str, %esi
	movl	$1, %edx
.Ltmp470:
	.loc	31 535 0                # /usr/lib/gcc/x86_64-linux-gnu/4.8/../../../../include/c++/4.8/ostream:535:0
	callq	_ZSt16__ostream_insertIcSt11char_traitsIcEERSt13basic_ostreamIT_T0_ES6_PKS3_l
.Ltmp471:
	.loc	1 9 0                   # main.cc:9:0
	movq	%rbx, %rdi
	movl	$82, %esi
	callq	_ZNSolsEi
.Ltmp472:
	#DEBUG_VALUE: operator<<<std::char_traits<char> >:__out <- RAX+0
	.loc	31 535 0                # /usr/lib/gcc/x86_64-linux-gnu/4.8/../../../../include/c++/4.8/ostream:535:0
	movq	%rax, %rdi
.Ltmp473:
	.loc	31 535 0                # /usr/lib/gcc/x86_64-linux-gnu/4.8/../../../../include/c++/4.8/ostream:535:0
	movl	$.L.str, %esi
	movl	$1, %edx
.Ltmp474:
	.loc	31 535 0                # /usr/lib/gcc/x86_64-linux-gnu/4.8/../../../../include/c++/4.8/ostream:535:0
	callq	_ZSt16__ostream_insertIcSt11char_traitsIcEERSt13basic_ostreamIT_T0_ES6_PKS3_l
.Ltmp475:
	.loc	1 9 0                   # main.cc:9:0
	movq	%rbx, %rdi
	movl	$83, %esi
	callq	_ZNSolsEi
.Ltmp476:
	#DEBUG_VALUE: operator<<<std::char_traits<char> >:__out <- RAX+0
	.loc	31 535 0                # /usr/lib/gcc/x86_64-linux-gnu/4.8/../../../../include/c++/4.8/ostream:535:0
	movq	%rax, %rdi
.Ltmp477:
	.loc	31 535 0                # /usr/lib/gcc/x86_64-linux-gnu/4.8/../../../../include/c++/4.8/ostream:535:0
	movl	$.L.str, %esi
	movl	$1, %edx
.Ltmp478:
	.loc	31 535 0                # /usr/lib/gcc/x86_64-linux-gnu/4.8/../../../../include/c++/4.8/ostream:535:0
	callq	_ZSt16__ostream_insertIcSt11char_traitsIcEERSt13basic_ostreamIT_T0_ES6_PKS3_l
.Ltmp479:
	.loc	1 9 0                   # main.cc:9:0
	movq	%rbx, %rdi
	movl	$84, %esi
	callq	_ZNSolsEi
.Ltmp480:
	#DEBUG_VALUE: operator<<<std::char_traits<char> >:__out <- RAX+0
	.loc	31 535 0                # /usr/lib/gcc/x86_64-linux-gnu/4.8/../../../../include/c++/4.8/ostream:535:0
	movq	%rax, %rdi
.Ltmp481:
	.loc	31 535 0                # /usr/lib/gcc/x86_64-linux-gnu/4.8/../../../../include/c++/4.8/ostream:535:0
	movl	$.L.str, %esi
	movl	$1, %edx
.Ltmp482:
	.loc	31 535 0                # /usr/lib/gcc/x86_64-linux-gnu/4.8/../../../../include/c++/4.8/ostream:535:0
	callq	_ZSt16__ostream_insertIcSt11char_traitsIcEERSt13basic_ostreamIT_T0_ES6_PKS3_l
.Ltmp483:
	.loc	1 9 0                   # main.cc:9:0
	movq	%rbx, %rdi
	movl	$85, %esi
	callq	_ZNSolsEi
.Ltmp484:
	#DEBUG_VALUE: operator<<<std::char_traits<char> >:__out <- RAX+0
	.loc	31 535 0                # /usr/lib/gcc/x86_64-linux-gnu/4.8/../../../../include/c++/4.8/ostream:535:0
	movq	%rax, %rdi
.Ltmp485:
	.loc	31 535 0                # /usr/lib/gcc/x86_64-linux-gnu/4.8/../../../../include/c++/4.8/ostream:535:0
	movl	$.L.str, %esi
	movl	$1, %edx
.Ltmp486:
	.loc	31 535 0                # /usr/lib/gcc/x86_64-linux-gnu/4.8/../../../../include/c++/4.8/ostream:535:0
	callq	_ZSt16__ostream_insertIcSt11char_traitsIcEERSt13basic_ostreamIT_T0_ES6_PKS3_l
.Ltmp487:
	.loc	1 9 0                   # main.cc:9:0
	movq	%rbx, %rdi
	movl	$86, %esi
	callq	_ZNSolsEi
.Ltmp488:
	#DEBUG_VALUE: operator<<<std::char_traits<char> >:__out <- RAX+0
	.loc	31 535 0                # /usr/lib/gcc/x86_64-linux-gnu/4.8/../../../../include/c++/4.8/ostream:535:0
	movq	%rax, %rdi
.Ltmp489:
	.loc	31 535 0                # /usr/lib/gcc/x86_64-linux-gnu/4.8/../../../../include/c++/4.8/ostream:535:0
	movl	$.L.str, %esi
	movl	$1, %edx
.Ltmp490:
	.loc	31 535 0                # /usr/lib/gcc/x86_64-linux-gnu/4.8/../../../../include/c++/4.8/ostream:535:0
	callq	_ZSt16__ostream_insertIcSt11char_traitsIcEERSt13basic_ostreamIT_T0_ES6_PKS3_l
.Ltmp491:
	.loc	1 9 0                   # main.cc:9:0
	movq	%rbx, %rdi
	movl	$87, %esi
	callq	_ZNSolsEi
.Ltmp492:
	#DEBUG_VALUE: operator<<<std::char_traits<char> >:__out <- RAX+0
	.loc	31 535 0                # /usr/lib/gcc/x86_64-linux-gnu/4.8/../../../../include/c++/4.8/ostream:535:0
	movq	%rax, %rdi
.Ltmp493:
	.loc	31 535 0                # /usr/lib/gcc/x86_64-linux-gnu/4.8/../../../../include/c++/4.8/ostream:535:0
	movl	$.L.str, %esi
	movl	$1, %edx
.Ltmp494:
	.loc	31 535 0                # /usr/lib/gcc/x86_64-linux-gnu/4.8/../../../../include/c++/4.8/ostream:535:0
	callq	_ZSt16__ostream_insertIcSt11char_traitsIcEERSt13basic_ostreamIT_T0_ES6_PKS3_l
.Ltmp495:
	.loc	1 10 0                  # main.cc:10:0
	movq	%r14, %rdi
.Ltmp496:
	#DEBUG_VALUE: operator()<libmda::metaprog::detail::loop_iterator_impl<libmda::metaprog::int_<80>, libmda::metaprog::int_<0>, libmda::metaprog::int_<200> >, libmda::metaprog::detail::loop_iterator_impl<libmda::metaprog::int_<200>, libmda::metaprog::int_<0>, libmda::metaprog::int_<200> > >:this <- RDI+0
	movq	%rbx, %rsi
	addq	$8, %rsp
	popq	%rbx
.Ltmp497:
	popq	%r14
.Ltmp498:
	jmp	_ZN5Forr_clIN6libmda8metaprog6detail18loop_iterator_implINS2_4int_ILi88EEENS5_ILi0EEENS5_ILi200EEEEENS4_IS8_S7_S8_EEEEvRSoT_T0_ # TAILCALL
.Ltmp499:
.Ltmp500:
	.size	_ZN5Forr_clIN6libmda8metaprog6detail18loop_iterator_implINS2_4int_ILi80EEENS5_ILi0EEENS5_ILi200EEEEENS4_IS8_S7_S8_EEEEvRSoT_T0_, .Ltmp500-_ZN5Forr_clIN6libmda8metaprog6detail18loop_iterator_implINS2_4int_ILi80EEENS5_ILi0EEENS5_ILi200EEEEENS4_IS8_S7_S8_EEEEvRSoT_T0_
.Lfunc_end11:
	.cfi_endproc

	.section	.text._ZN5Forr_clIN6libmda8metaprog6detail18loop_iterator_implINS2_4int_ILi88EEENS5_ILi0EEENS5_ILi200EEEEENS4_IS8_S7_S8_EEEEvRSoT_T0_,"axG",@progbits,_ZN5Forr_clIN6libmda8metaprog6detail18loop_iterator_implINS2_4int_ILi88EEENS5_ILi0EEENS5_ILi200EEEEENS4_IS8_S7_S8_EEEEvRSoT_T0_,comdat
	.weak	_ZN5Forr_clIN6libmda8metaprog6detail18loop_iterator_implINS2_4int_ILi88EEENS5_ILi0EEENS5_ILi200EEEEENS4_IS8_S7_S8_EEEEvRSoT_T0_
	.align	16, 0x90
	.type	_ZN5Forr_clIN6libmda8metaprog6detail18loop_iterator_implINS2_4int_ILi88EEENS5_ILi0EEENS5_ILi200EEEEENS4_IS8_S7_S8_EEEEvRSoT_T0_,@function
_ZN5Forr_clIN6libmda8metaprog6detail18loop_iterator_implINS2_4int_ILi88EEENS5_ILi0EEENS5_ILi200EEEEENS4_IS8_S7_S8_EEEEvRSoT_T0_: # @_ZN5Forr_clIN6libmda8metaprog6detail18loop_iterator_implINS2_4int_ILi88EEENS5_ILi0EEENS5_ILi200EEEEENS4_IS8_S7_S8_EEEEvRSoT_T0_
	.cfi_startproc
.Lfunc_begin12:
	.loc	1 8 0                   # main.cc:8:0
# BB#0:                                 # %entry
	pushq	%r14
.Ltmp504:
	.cfi_def_cfa_offset 16
	pushq	%rbx
.Ltmp505:
	.cfi_def_cfa_offset 24
	pushq	%rax
.Ltmp506:
	.cfi_def_cfa_offset 32
.Ltmp507:
	.cfi_offset %rbx, -24
.Ltmp508:
	.cfi_offset %r14, -16
	#DEBUG_VALUE: operator()<libmda::metaprog::detail::loop_iterator_impl<libmda::metaprog::int_<88>, libmda::metaprog::int_<0>, libmda::metaprog::int_<200> >, libmda::metaprog::detail::loop_iterator_impl<libmda::metaprog::int_<200>, libmda::metaprog::int_<0>, libmda::metaprog::int_<200> > >:this <- RDI+0
	#DEBUG_VALUE: operator()<libmda::metaprog::detail::loop_iterator_impl<libmda::metaprog::int_<88>, libmda::metaprog::int_<0>, libmda::metaprog::int_<200> >, libmda::metaprog::detail::loop_iterator_impl<libmda::metaprog::int_<200>, libmda::metaprog::int_<0>, libmda::metaprog::int_<200> > >:aout <- RSI+0
	movq	%rsi, %rbx
.Ltmp509:
	#DEBUG_VALUE: operator()<libmda::metaprog::detail::loop_iterator_impl<libmda::metaprog::int_<88>, libmda::metaprog::int_<0>, libmda::metaprog::int_<200> >, libmda::metaprog::detail::loop_iterator_impl<libmda::metaprog::int_<200>, libmda::metaprog::int_<0>, libmda::metaprog::int_<200> > >:aout <- RBX+0
	movq	%rdi, %r14
.Ltmp510:
	#DEBUG_VALUE: operator()<libmda::metaprog::detail::loop_iterator_impl<libmda::metaprog::int_<88>, libmda::metaprog::int_<0>, libmda::metaprog::int_<200> >, libmda::metaprog::detail::loop_iterator_impl<libmda::metaprog::int_<200>, libmda::metaprog::int_<0>, libmda::metaprog::int_<200> > >:this <- R14+0
	#DEBUG_VALUE: operator()<libmda::metaprog::detail::loop_iterator_impl<libmda::metaprog::int_<95>, libmda::metaprog::int_<0>, libmda::metaprog::int_<200> >, libmda::metaprog::detail::loop_iterator_impl<libmda::metaprog::int_<200>, libmda::metaprog::int_<0>, libmda::metaprog::int_<200> > >:this <- R14+0
	#DEBUG_VALUE: operator()<libmda::metaprog::detail::loop_iterator_impl<libmda::metaprog::int_<95>, libmda::metaprog::int_<0>, libmda::metaprog::int_<200> >, libmda::metaprog::detail::loop_iterator_impl<libmda::metaprog::int_<200>, libmda::metaprog::int_<0>, libmda::metaprog::int_<200> > >:aout <- RBX+0
	#DEBUG_VALUE: operator()<libmda::metaprog::detail::loop_iterator_impl<libmda::metaprog::int_<94>, libmda::metaprog::int_<0>, libmda::metaprog::int_<200> >, libmda::metaprog::detail::loop_iterator_impl<libmda::metaprog::int_<200>, libmda::metaprog::int_<0>, libmda::metaprog::int_<200> > >:this <- R14+0
	#DEBUG_VALUE: operator()<libmda::metaprog::detail::loop_iterator_impl<libmda::metaprog::int_<94>, libmda::metaprog::int_<0>, libmda::metaprog::int_<200> >, libmda::metaprog::detail::loop_iterator_impl<libmda::metaprog::int_<200>, libmda::metaprog::int_<0>, libmda::metaprog::int_<200> > >:aout <- RBX+0
	#DEBUG_VALUE: operator()<libmda::metaprog::detail::loop_iterator_impl<libmda::metaprog::int_<93>, libmda::metaprog::int_<0>, libmda::metaprog::int_<200> >, libmda::metaprog::detail::loop_iterator_impl<libmda::metaprog::int_<200>, libmda::metaprog::int_<0>, libmda::metaprog::int_<200> > >:this <- R14+0
	#DEBUG_VALUE: operator()<libmda::metaprog::detail::loop_iterator_impl<libmda::metaprog::int_<93>, libmda::metaprog::int_<0>, libmda::metaprog::int_<200> >, libmda::metaprog::detail::loop_iterator_impl<libmda::metaprog::int_<200>, libmda::metaprog::int_<0>, libmda::metaprog::int_<200> > >:aout <- RBX+0
	#DEBUG_VALUE: operator()<libmda::metaprog::detail::loop_iterator_impl<libmda::metaprog::int_<92>, libmda::metaprog::int_<0>, libmda::metaprog::int_<200> >, libmda::metaprog::detail::loop_iterator_impl<libmda::metaprog::int_<200>, libmda::metaprog::int_<0>, libmda::metaprog::int_<200> > >:this <- R14+0
	#DEBUG_VALUE: operator()<libmda::metaprog::detail::loop_iterator_impl<libmda::metaprog::int_<92>, libmda::metaprog::int_<0>, libmda::metaprog::int_<200> >, libmda::metaprog::detail::loop_iterator_impl<libmda::metaprog::int_<200>, libmda::metaprog::int_<0>, libmda::metaprog::int_<200> > >:aout <- RBX+0
	#DEBUG_VALUE: operator()<libmda::metaprog::detail::loop_iterator_impl<libmda::metaprog::int_<91>, libmda::metaprog::int_<0>, libmda::metaprog::int_<200> >, libmda::metaprog::detail::loop_iterator_impl<libmda::metaprog::int_<200>, libmda::metaprog::int_<0>, libmda::metaprog::int_<200> > >:this <- R14+0
	#DEBUG_VALUE: operator()<libmda::metaprog::detail::loop_iterator_impl<libmda::metaprog::int_<91>, libmda::metaprog::int_<0>, libmda::metaprog::int_<200> >, libmda::metaprog::detail::loop_iterator_impl<libmda::metaprog::int_<200>, libmda::metaprog::int_<0>, libmda::metaprog::int_<200> > >:aout <- RBX+0
	#DEBUG_VALUE: operator()<libmda::metaprog::detail::loop_iterator_impl<libmda::metaprog::int_<90>, libmda::metaprog::int_<0>, libmda::metaprog::int_<200> >, libmda::metaprog::detail::loop_iterator_impl<libmda::metaprog::int_<200>, libmda::metaprog::int_<0>, libmda::metaprog::int_<200> > >:this <- R14+0
	#DEBUG_VALUE: operator()<libmda::metaprog::detail::loop_iterator_impl<libmda::metaprog::int_<90>, libmda::metaprog::int_<0>, libmda::metaprog::int_<200> >, libmda::metaprog::detail::loop_iterator_impl<libmda::metaprog::int_<200>, libmda::metaprog::int_<0>, libmda::metaprog::int_<200> > >:aout <- RBX+0
	#DEBUG_VALUE: operator()<libmda::metaprog::detail::loop_iterator_impl<libmda::metaprog::int_<89>, libmda::metaprog::int_<0>, libmda::metaprog::int_<200> >, libmda::metaprog::detail::loop_iterator_impl<libmda::metaprog::int_<200>, libmda::metaprog::int_<0>, libmda::metaprog::int_<200> > >:this <- R14+0
	#DEBUG_VALUE: operator()<libmda::metaprog::detail::loop_iterator_impl<libmda::metaprog::int_<89>, libmda::metaprog::int_<0>, libmda::metaprog::int_<200> >, libmda::metaprog::detail::loop_iterator_impl<libmda::metaprog::int_<200>, libmda::metaprog::int_<0>, libmda::metaprog::int_<200> > >:aout <- RBX+0
	.loc	1 9 0 prologue_end      # main.cc:9:0
	movq	%rbx, %rdi
	movl	$88, %esi
	callq	_ZNSolsEi
.Ltmp511:
	#DEBUG_VALUE: operator<<<std::char_traits<char> >:__out <- RAX+0
	#DEBUG_VALUE: length:__s <- undef
	#DEBUG_VALUE: operator<<<std::char_traits<char> >:__s <- undef
	#DEBUG_VALUE: length:__s <- undef
	#DEBUG_VALUE: operator<<<std::char_traits<char> >:__s <- undef
	#DEBUG_VALUE: length:__s <- undef
	#DEBUG_VALUE: operator<<<std::char_traits<char> >:__s <- undef
	#DEBUG_VALUE: length:__s <- undef
	#DEBUG_VALUE: operator<<<std::char_traits<char> >:__s <- undef
	#DEBUG_VALUE: length:__s <- undef
	#DEBUG_VALUE: operator<<<std::char_traits<char> >:__s <- undef
	#DEBUG_VALUE: length:__s <- undef
	#DEBUG_VALUE: operator<<<std::char_traits<char> >:__s <- undef
	#DEBUG_VALUE: length:__s <- undef
	#DEBUG_VALUE: operator<<<std::char_traits<char> >:__s <- undef
	#DEBUG_VALUE: length:__s <- undef
	.loc	31 535 0                # /usr/lib/gcc/x86_64-linux-gnu/4.8/../../../../include/c++/4.8/ostream:535:0
	movq	%rax, %rdi
	movl	$.L.str, %esi
	movl	$1, %edx
	callq	_ZSt16__ostream_insertIcSt11char_traitsIcEERSt13basic_ostreamIT_T0_ES6_PKS3_l
.Ltmp512:
	.loc	1 9 0                   # main.cc:9:0
	movq	%rbx, %rdi
	movl	$89, %esi
	callq	_ZNSolsEi
.Ltmp513:
	#DEBUG_VALUE: operator<<<std::char_traits<char> >:__out <- RAX+0
	.loc	31 535 0                # /usr/lib/gcc/x86_64-linux-gnu/4.8/../../../../include/c++/4.8/ostream:535:0
	movq	%rax, %rdi
.Ltmp514:
	.loc	31 535 0                # /usr/lib/gcc/x86_64-linux-gnu/4.8/../../../../include/c++/4.8/ostream:535:0
	movl	$.L.str, %esi
	movl	$1, %edx
.Ltmp515:
	.loc	31 535 0                # /usr/lib/gcc/x86_64-linux-gnu/4.8/../../../../include/c++/4.8/ostream:535:0
	callq	_ZSt16__ostream_insertIcSt11char_traitsIcEERSt13basic_ostreamIT_T0_ES6_PKS3_l
.Ltmp516:
	.loc	1 9 0                   # main.cc:9:0
	movq	%rbx, %rdi
	movl	$90, %esi
	callq	_ZNSolsEi
.Ltmp517:
	#DEBUG_VALUE: operator<<<std::char_traits<char> >:__out <- RAX+0
	.loc	31 535 0                # /usr/lib/gcc/x86_64-linux-gnu/4.8/../../../../include/c++/4.8/ostream:535:0
	movq	%rax, %rdi
.Ltmp518:
	.loc	31 535 0                # /usr/lib/gcc/x86_64-linux-gnu/4.8/../../../../include/c++/4.8/ostream:535:0
	movl	$.L.str, %esi
	movl	$1, %edx
.Ltmp519:
	.loc	31 535 0                # /usr/lib/gcc/x86_64-linux-gnu/4.8/../../../../include/c++/4.8/ostream:535:0
	callq	_ZSt16__ostream_insertIcSt11char_traitsIcEERSt13basic_ostreamIT_T0_ES6_PKS3_l
.Ltmp520:
	.loc	1 9 0                   # main.cc:9:0
	movq	%rbx, %rdi
	movl	$91, %esi
	callq	_ZNSolsEi
.Ltmp521:
	#DEBUG_VALUE: operator<<<std::char_traits<char> >:__out <- RAX+0
	.loc	31 535 0                # /usr/lib/gcc/x86_64-linux-gnu/4.8/../../../../include/c++/4.8/ostream:535:0
	movq	%rax, %rdi
.Ltmp522:
	.loc	31 535 0                # /usr/lib/gcc/x86_64-linux-gnu/4.8/../../../../include/c++/4.8/ostream:535:0
	movl	$.L.str, %esi
	movl	$1, %edx
.Ltmp523:
	.loc	31 535 0                # /usr/lib/gcc/x86_64-linux-gnu/4.8/../../../../include/c++/4.8/ostream:535:0
	callq	_ZSt16__ostream_insertIcSt11char_traitsIcEERSt13basic_ostreamIT_T0_ES6_PKS3_l
.Ltmp524:
	.loc	1 9 0                   # main.cc:9:0
	movq	%rbx, %rdi
	movl	$92, %esi
	callq	_ZNSolsEi
.Ltmp525:
	#DEBUG_VALUE: operator<<<std::char_traits<char> >:__out <- RAX+0
	.loc	31 535 0                # /usr/lib/gcc/x86_64-linux-gnu/4.8/../../../../include/c++/4.8/ostream:535:0
	movq	%rax, %rdi
.Ltmp526:
	.loc	31 535 0                # /usr/lib/gcc/x86_64-linux-gnu/4.8/../../../../include/c++/4.8/ostream:535:0
	movl	$.L.str, %esi
	movl	$1, %edx
.Ltmp527:
	.loc	31 535 0                # /usr/lib/gcc/x86_64-linux-gnu/4.8/../../../../include/c++/4.8/ostream:535:0
	callq	_ZSt16__ostream_insertIcSt11char_traitsIcEERSt13basic_ostreamIT_T0_ES6_PKS3_l
.Ltmp528:
	.loc	1 9 0                   # main.cc:9:0
	movq	%rbx, %rdi
	movl	$93, %esi
	callq	_ZNSolsEi
.Ltmp529:
	#DEBUG_VALUE: operator<<<std::char_traits<char> >:__out <- RAX+0
	.loc	31 535 0                # /usr/lib/gcc/x86_64-linux-gnu/4.8/../../../../include/c++/4.8/ostream:535:0
	movq	%rax, %rdi
.Ltmp530:
	.loc	31 535 0                # /usr/lib/gcc/x86_64-linux-gnu/4.8/../../../../include/c++/4.8/ostream:535:0
	movl	$.L.str, %esi
	movl	$1, %edx
.Ltmp531:
	.loc	31 535 0                # /usr/lib/gcc/x86_64-linux-gnu/4.8/../../../../include/c++/4.8/ostream:535:0
	callq	_ZSt16__ostream_insertIcSt11char_traitsIcEERSt13basic_ostreamIT_T0_ES6_PKS3_l
.Ltmp532:
	.loc	1 9 0                   # main.cc:9:0
	movq	%rbx, %rdi
	movl	$94, %esi
	callq	_ZNSolsEi
.Ltmp533:
	#DEBUG_VALUE: operator<<<std::char_traits<char> >:__out <- RAX+0
	.loc	31 535 0                # /usr/lib/gcc/x86_64-linux-gnu/4.8/../../../../include/c++/4.8/ostream:535:0
	movq	%rax, %rdi
.Ltmp534:
	.loc	31 535 0                # /usr/lib/gcc/x86_64-linux-gnu/4.8/../../../../include/c++/4.8/ostream:535:0
	movl	$.L.str, %esi
	movl	$1, %edx
.Ltmp535:
	.loc	31 535 0                # /usr/lib/gcc/x86_64-linux-gnu/4.8/../../../../include/c++/4.8/ostream:535:0
	callq	_ZSt16__ostream_insertIcSt11char_traitsIcEERSt13basic_ostreamIT_T0_ES6_PKS3_l
.Ltmp536:
	.loc	1 9 0                   # main.cc:9:0
	movq	%rbx, %rdi
	movl	$95, %esi
	callq	_ZNSolsEi
.Ltmp537:
	#DEBUG_VALUE: operator<<<std::char_traits<char> >:__out <- RAX+0
	.loc	31 535 0                # /usr/lib/gcc/x86_64-linux-gnu/4.8/../../../../include/c++/4.8/ostream:535:0
	movq	%rax, %rdi
.Ltmp538:
	.loc	31 535 0                # /usr/lib/gcc/x86_64-linux-gnu/4.8/../../../../include/c++/4.8/ostream:535:0
	movl	$.L.str, %esi
	movl	$1, %edx
.Ltmp539:
	.loc	31 535 0                # /usr/lib/gcc/x86_64-linux-gnu/4.8/../../../../include/c++/4.8/ostream:535:0
	callq	_ZSt16__ostream_insertIcSt11char_traitsIcEERSt13basic_ostreamIT_T0_ES6_PKS3_l
.Ltmp540:
	.loc	1 10 0                  # main.cc:10:0
	movq	%r14, %rdi
.Ltmp541:
	#DEBUG_VALUE: operator()<libmda::metaprog::detail::loop_iterator_impl<libmda::metaprog::int_<88>, libmda::metaprog::int_<0>, libmda::metaprog::int_<200> >, libmda::metaprog::detail::loop_iterator_impl<libmda::metaprog::int_<200>, libmda::metaprog::int_<0>, libmda::metaprog::int_<200> > >:this <- RDI+0
	movq	%rbx, %rsi
	addq	$8, %rsp
	popq	%rbx
.Ltmp542:
	popq	%r14
.Ltmp543:
	jmp	_ZN5Forr_clIN6libmda8metaprog6detail18loop_iterator_implINS2_4int_ILi96EEENS5_ILi0EEENS5_ILi200EEEEENS4_IS8_S7_S8_EEEEvRSoT_T0_ # TAILCALL
.Ltmp544:
.Ltmp545:
	.size	_ZN5Forr_clIN6libmda8metaprog6detail18loop_iterator_implINS2_4int_ILi88EEENS5_ILi0EEENS5_ILi200EEEEENS4_IS8_S7_S8_EEEEvRSoT_T0_, .Ltmp545-_ZN5Forr_clIN6libmda8metaprog6detail18loop_iterator_implINS2_4int_ILi88EEENS5_ILi0EEENS5_ILi200EEEEENS4_IS8_S7_S8_EEEEvRSoT_T0_
.Lfunc_end12:
	.cfi_endproc

	.section	.text._ZN5Forr_clIN6libmda8metaprog6detail18loop_iterator_implINS2_4int_ILi96EEENS5_ILi0EEENS5_ILi200EEEEENS4_IS8_S7_S8_EEEEvRSoT_T0_,"axG",@progbits,_ZN5Forr_clIN6libmda8metaprog6detail18loop_iterator_implINS2_4int_ILi96EEENS5_ILi0EEENS5_ILi200EEEEENS4_IS8_S7_S8_EEEEvRSoT_T0_,comdat
	.weak	_ZN5Forr_clIN6libmda8metaprog6detail18loop_iterator_implINS2_4int_ILi96EEENS5_ILi0EEENS5_ILi200EEEEENS4_IS8_S7_S8_EEEEvRSoT_T0_
	.align	16, 0x90
	.type	_ZN5Forr_clIN6libmda8metaprog6detail18loop_iterator_implINS2_4int_ILi96EEENS5_ILi0EEENS5_ILi200EEEEENS4_IS8_S7_S8_EEEEvRSoT_T0_,@function
_ZN5Forr_clIN6libmda8metaprog6detail18loop_iterator_implINS2_4int_ILi96EEENS5_ILi0EEENS5_ILi200EEEEENS4_IS8_S7_S8_EEEEvRSoT_T0_: # @_ZN5Forr_clIN6libmda8metaprog6detail18loop_iterator_implINS2_4int_ILi96EEENS5_ILi0EEENS5_ILi200EEEEENS4_IS8_S7_S8_EEEEvRSoT_T0_
	.cfi_startproc
.Lfunc_begin13:
	.loc	1 8 0                   # main.cc:8:0
# BB#0:                                 # %entry
	pushq	%r14
.Ltmp549:
	.cfi_def_cfa_offset 16
	pushq	%rbx
.Ltmp550:
	.cfi_def_cfa_offset 24
	pushq	%rax
.Ltmp551:
	.cfi_def_cfa_offset 32
.Ltmp552:
	.cfi_offset %rbx, -24
.Ltmp553:
	.cfi_offset %r14, -16
	#DEBUG_VALUE: operator()<libmda::metaprog::detail::loop_iterator_impl<libmda::metaprog::int_<96>, libmda::metaprog::int_<0>, libmda::metaprog::int_<200> >, libmda::metaprog::detail::loop_iterator_impl<libmda::metaprog::int_<200>, libmda::metaprog::int_<0>, libmda::metaprog::int_<200> > >:this <- RDI+0
	#DEBUG_VALUE: operator()<libmda::metaprog::detail::loop_iterator_impl<libmda::metaprog::int_<96>, libmda::metaprog::int_<0>, libmda::metaprog::int_<200> >, libmda::metaprog::detail::loop_iterator_impl<libmda::metaprog::int_<200>, libmda::metaprog::int_<0>, libmda::metaprog::int_<200> > >:aout <- RSI+0
	movq	%rsi, %rbx
.Ltmp554:
	#DEBUG_VALUE: operator()<libmda::metaprog::detail::loop_iterator_impl<libmda::metaprog::int_<96>, libmda::metaprog::int_<0>, libmda::metaprog::int_<200> >, libmda::metaprog::detail::loop_iterator_impl<libmda::metaprog::int_<200>, libmda::metaprog::int_<0>, libmda::metaprog::int_<200> > >:aout <- RBX+0
	movq	%rdi, %r14
.Ltmp555:
	#DEBUG_VALUE: operator()<libmda::metaprog::detail::loop_iterator_impl<libmda::metaprog::int_<96>, libmda::metaprog::int_<0>, libmda::metaprog::int_<200> >, libmda::metaprog::detail::loop_iterator_impl<libmda::metaprog::int_<200>, libmda::metaprog::int_<0>, libmda::metaprog::int_<200> > >:this <- R14+0
	#DEBUG_VALUE: operator()<libmda::metaprog::detail::loop_iterator_impl<libmda::metaprog::int_<103>, libmda::metaprog::int_<0>, libmda::metaprog::int_<200> >, libmda::metaprog::detail::loop_iterator_impl<libmda::metaprog::int_<200>, libmda::metaprog::int_<0>, libmda::metaprog::int_<200> > >:this <- R14+0
	#DEBUG_VALUE: operator()<libmda::metaprog::detail::loop_iterator_impl<libmda::metaprog::int_<103>, libmda::metaprog::int_<0>, libmda::metaprog::int_<200> >, libmda::metaprog::detail::loop_iterator_impl<libmda::metaprog::int_<200>, libmda::metaprog::int_<0>, libmda::metaprog::int_<200> > >:aout <- RBX+0
	#DEBUG_VALUE: operator()<libmda::metaprog::detail::loop_iterator_impl<libmda::metaprog::int_<102>, libmda::metaprog::int_<0>, libmda::metaprog::int_<200> >, libmda::metaprog::detail::loop_iterator_impl<libmda::metaprog::int_<200>, libmda::metaprog::int_<0>, libmda::metaprog::int_<200> > >:this <- R14+0
	#DEBUG_VALUE: operator()<libmda::metaprog::detail::loop_iterator_impl<libmda::metaprog::int_<102>, libmda::metaprog::int_<0>, libmda::metaprog::int_<200> >, libmda::metaprog::detail::loop_iterator_impl<libmda::metaprog::int_<200>, libmda::metaprog::int_<0>, libmda::metaprog::int_<200> > >:aout <- RBX+0
	#DEBUG_VALUE: operator()<libmda::metaprog::detail::loop_iterator_impl<libmda::metaprog::int_<101>, libmda::metaprog::int_<0>, libmda::metaprog::int_<200> >, libmda::metaprog::detail::loop_iterator_impl<libmda::metaprog::int_<200>, libmda::metaprog::int_<0>, libmda::metaprog::int_<200> > >:this <- R14+0
	#DEBUG_VALUE: operator()<libmda::metaprog::detail::loop_iterator_impl<libmda::metaprog::int_<101>, libmda::metaprog::int_<0>, libmda::metaprog::int_<200> >, libmda::metaprog::detail::loop_iterator_impl<libmda::metaprog::int_<200>, libmda::metaprog::int_<0>, libmda::metaprog::int_<200> > >:aout <- RBX+0
	#DEBUG_VALUE: operator()<libmda::metaprog::detail::loop_iterator_impl<libmda::metaprog::int_<100>, libmda::metaprog::int_<0>, libmda::metaprog::int_<200> >, libmda::metaprog::detail::loop_iterator_impl<libmda::metaprog::int_<200>, libmda::metaprog::int_<0>, libmda::metaprog::int_<200> > >:this <- R14+0
	#DEBUG_VALUE: operator()<libmda::metaprog::detail::loop_iterator_impl<libmda::metaprog::int_<100>, libmda::metaprog::int_<0>, libmda::metaprog::int_<200> >, libmda::metaprog::detail::loop_iterator_impl<libmda::metaprog::int_<200>, libmda::metaprog::int_<0>, libmda::metaprog::int_<200> > >:aout <- RBX+0
	#DEBUG_VALUE: operator()<libmda::metaprog::detail::loop_iterator_impl<libmda::metaprog::int_<99>, libmda::metaprog::int_<0>, libmda::metaprog::int_<200> >, libmda::metaprog::detail::loop_iterator_impl<libmda::metaprog::int_<200>, libmda::metaprog::int_<0>, libmda::metaprog::int_<200> > >:this <- R14+0
	#DEBUG_VALUE: operator()<libmda::metaprog::detail::loop_iterator_impl<libmda::metaprog::int_<99>, libmda::metaprog::int_<0>, libmda::metaprog::int_<200> >, libmda::metaprog::detail::loop_iterator_impl<libmda::metaprog::int_<200>, libmda::metaprog::int_<0>, libmda::metaprog::int_<200> > >:aout <- RBX+0
	#DEBUG_VALUE: operator()<libmda::metaprog::detail::loop_iterator_impl<libmda::metaprog::int_<98>, libmda::metaprog::int_<0>, libmda::metaprog::int_<200> >, libmda::metaprog::detail::loop_iterator_impl<libmda::metaprog::int_<200>, libmda::metaprog::int_<0>, libmda::metaprog::int_<200> > >:this <- R14+0
	#DEBUG_VALUE: operator()<libmda::metaprog::detail::loop_iterator_impl<libmda::metaprog::int_<98>, libmda::metaprog::int_<0>, libmda::metaprog::int_<200> >, libmda::metaprog::detail::loop_iterator_impl<libmda::metaprog::int_<200>, libmda::metaprog::int_<0>, libmda::metaprog::int_<200> > >:aout <- RBX+0
	#DEBUG_VALUE: operator()<libmda::metaprog::detail::loop_iterator_impl<libmda::metaprog::int_<97>, libmda::metaprog::int_<0>, libmda::metaprog::int_<200> >, libmda::metaprog::detail::loop_iterator_impl<libmda::metaprog::int_<200>, libmda::metaprog::int_<0>, libmda::metaprog::int_<200> > >:this <- R14+0
	#DEBUG_VALUE: operator()<libmda::metaprog::detail::loop_iterator_impl<libmda::metaprog::int_<97>, libmda::metaprog::int_<0>, libmda::metaprog::int_<200> >, libmda::metaprog::detail::loop_iterator_impl<libmda::metaprog::int_<200>, libmda::metaprog::int_<0>, libmda::metaprog::int_<200> > >:aout <- RBX+0
	.loc	1 9 0 prologue_end      # main.cc:9:0
	movq	%rbx, %rdi
	movl	$96, %esi
	callq	_ZNSolsEi
.Ltmp556:
	#DEBUG_VALUE: operator<<<std::char_traits<char> >:__out <- RAX+0
	#DEBUG_VALUE: length:__s <- undef
	#DEBUG_VALUE: operator<<<std::char_traits<char> >:__s <- undef
	#DEBUG_VALUE: length:__s <- undef
	#DEBUG_VALUE: operator<<<std::char_traits<char> >:__s <- undef
	#DEBUG_VALUE: length:__s <- undef
	#DEBUG_VALUE: operator<<<std::char_traits<char> >:__s <- undef
	#DEBUG_VALUE: length:__s <- undef
	#DEBUG_VALUE: operator<<<std::char_traits<char> >:__s <- undef
	#DEBUG_VALUE: length:__s <- undef
	#DEBUG_VALUE: operator<<<std::char_traits<char> >:__s <- undef
	#DEBUG_VALUE: length:__s <- undef
	#DEBUG_VALUE: operator<<<std::char_traits<char> >:__s <- undef
	#DEBUG_VALUE: length:__s <- undef
	#DEBUG_VALUE: operator<<<std::char_traits<char> >:__s <- undef
	#DEBUG_VALUE: length:__s <- undef
	.loc	31 535 0                # /usr/lib/gcc/x86_64-linux-gnu/4.8/../../../../include/c++/4.8/ostream:535:0
	movq	%rax, %rdi
	movl	$.L.str, %esi
	movl	$1, %edx
	callq	_ZSt16__ostream_insertIcSt11char_traitsIcEERSt13basic_ostreamIT_T0_ES6_PKS3_l
.Ltmp557:
	.loc	1 9 0                   # main.cc:9:0
	movq	%rbx, %rdi
	movl	$97, %esi
	callq	_ZNSolsEi
.Ltmp558:
	#DEBUG_VALUE: operator<<<std::char_traits<char> >:__out <- RAX+0
	.loc	31 535 0                # /usr/lib/gcc/x86_64-linux-gnu/4.8/../../../../include/c++/4.8/ostream:535:0
	movq	%rax, %rdi
.Ltmp559:
	.loc	31 535 0                # /usr/lib/gcc/x86_64-linux-gnu/4.8/../../../../include/c++/4.8/ostream:535:0
	movl	$.L.str, %esi
	movl	$1, %edx
.Ltmp560:
	.loc	31 535 0                # /usr/lib/gcc/x86_64-linux-gnu/4.8/../../../../include/c++/4.8/ostream:535:0
	callq	_ZSt16__ostream_insertIcSt11char_traitsIcEERSt13basic_ostreamIT_T0_ES6_PKS3_l
.Ltmp561:
	.loc	1 9 0                   # main.cc:9:0
	movq	%rbx, %rdi
	movl	$98, %esi
	callq	_ZNSolsEi
.Ltmp562:
	#DEBUG_VALUE: operator<<<std::char_traits<char> >:__out <- RAX+0
	.loc	31 535 0                # /usr/lib/gcc/x86_64-linux-gnu/4.8/../../../../include/c++/4.8/ostream:535:0
	movq	%rax, %rdi
.Ltmp563:
	.loc	31 535 0                # /usr/lib/gcc/x86_64-linux-gnu/4.8/../../../../include/c++/4.8/ostream:535:0
	movl	$.L.str, %esi
	movl	$1, %edx
.Ltmp564:
	.loc	31 535 0                # /usr/lib/gcc/x86_64-linux-gnu/4.8/../../../../include/c++/4.8/ostream:535:0
	callq	_ZSt16__ostream_insertIcSt11char_traitsIcEERSt13basic_ostreamIT_T0_ES6_PKS3_l
.Ltmp565:
	.loc	1 9 0                   # main.cc:9:0
	movq	%rbx, %rdi
	movl	$99, %esi
	callq	_ZNSolsEi
.Ltmp566:
	#DEBUG_VALUE: operator<<<std::char_traits<char> >:__out <- RAX+0
	.loc	31 535 0                # /usr/lib/gcc/x86_64-linux-gnu/4.8/../../../../include/c++/4.8/ostream:535:0
	movq	%rax, %rdi
.Ltmp567:
	.loc	31 535 0                # /usr/lib/gcc/x86_64-linux-gnu/4.8/../../../../include/c++/4.8/ostream:535:0
	movl	$.L.str, %esi
	movl	$1, %edx
.Ltmp568:
	.loc	31 535 0                # /usr/lib/gcc/x86_64-linux-gnu/4.8/../../../../include/c++/4.8/ostream:535:0
	callq	_ZSt16__ostream_insertIcSt11char_traitsIcEERSt13basic_ostreamIT_T0_ES6_PKS3_l
.Ltmp569:
	.loc	1 9 0                   # main.cc:9:0
	movq	%rbx, %rdi
	movl	$100, %esi
	callq	_ZNSolsEi
.Ltmp570:
	#DEBUG_VALUE: operator<<<std::char_traits<char> >:__out <- RAX+0
	.loc	31 535 0                # /usr/lib/gcc/x86_64-linux-gnu/4.8/../../../../include/c++/4.8/ostream:535:0
	movq	%rax, %rdi
.Ltmp571:
	.loc	31 535 0                # /usr/lib/gcc/x86_64-linux-gnu/4.8/../../../../include/c++/4.8/ostream:535:0
	movl	$.L.str, %esi
	movl	$1, %edx
.Ltmp572:
	.loc	31 535 0                # /usr/lib/gcc/x86_64-linux-gnu/4.8/../../../../include/c++/4.8/ostream:535:0
	callq	_ZSt16__ostream_insertIcSt11char_traitsIcEERSt13basic_ostreamIT_T0_ES6_PKS3_l
.Ltmp573:
	.loc	1 9 0                   # main.cc:9:0
	movq	%rbx, %rdi
	movl	$101, %esi
	callq	_ZNSolsEi
.Ltmp574:
	#DEBUG_VALUE: operator<<<std::char_traits<char> >:__out <- RAX+0
	.loc	31 535 0                # /usr/lib/gcc/x86_64-linux-gnu/4.8/../../../../include/c++/4.8/ostream:535:0
	movq	%rax, %rdi
.Ltmp575:
	.loc	31 535 0                # /usr/lib/gcc/x86_64-linux-gnu/4.8/../../../../include/c++/4.8/ostream:535:0
	movl	$.L.str, %esi
	movl	$1, %edx
.Ltmp576:
	.loc	31 535 0                # /usr/lib/gcc/x86_64-linux-gnu/4.8/../../../../include/c++/4.8/ostream:535:0
	callq	_ZSt16__ostream_insertIcSt11char_traitsIcEERSt13basic_ostreamIT_T0_ES6_PKS3_l
.Ltmp577:
	.loc	1 9 0                   # main.cc:9:0
	movq	%rbx, %rdi
	movl	$102, %esi
	callq	_ZNSolsEi
.Ltmp578:
	#DEBUG_VALUE: operator<<<std::char_traits<char> >:__out <- RAX+0
	.loc	31 535 0                # /usr/lib/gcc/x86_64-linux-gnu/4.8/../../../../include/c++/4.8/ostream:535:0
	movq	%rax, %rdi
.Ltmp579:
	.loc	31 535 0                # /usr/lib/gcc/x86_64-linux-gnu/4.8/../../../../include/c++/4.8/ostream:535:0
	movl	$.L.str, %esi
	movl	$1, %edx
.Ltmp580:
	.loc	31 535 0                # /usr/lib/gcc/x86_64-linux-gnu/4.8/../../../../include/c++/4.8/ostream:535:0
	callq	_ZSt16__ostream_insertIcSt11char_traitsIcEERSt13basic_ostreamIT_T0_ES6_PKS3_l
.Ltmp581:
	.loc	1 9 0                   # main.cc:9:0
	movq	%rbx, %rdi
	movl	$103, %esi
	callq	_ZNSolsEi
.Ltmp582:
	#DEBUG_VALUE: operator<<<std::char_traits<char> >:__out <- RAX+0
	.loc	31 535 0                # /usr/lib/gcc/x86_64-linux-gnu/4.8/../../../../include/c++/4.8/ostream:535:0
	movq	%rax, %rdi
.Ltmp583:
	.loc	31 535 0                # /usr/lib/gcc/x86_64-linux-gnu/4.8/../../../../include/c++/4.8/ostream:535:0
	movl	$.L.str, %esi
	movl	$1, %edx
.Ltmp584:
	.loc	31 535 0                # /usr/lib/gcc/x86_64-linux-gnu/4.8/../../../../include/c++/4.8/ostream:535:0
	callq	_ZSt16__ostream_insertIcSt11char_traitsIcEERSt13basic_ostreamIT_T0_ES6_PKS3_l
.Ltmp585:
	.loc	1 10 0                  # main.cc:10:0
	movq	%r14, %rdi
.Ltmp586:
	#DEBUG_VALUE: operator()<libmda::metaprog::detail::loop_iterator_impl<libmda::metaprog::int_<96>, libmda::metaprog::int_<0>, libmda::metaprog::int_<200> >, libmda::metaprog::detail::loop_iterator_impl<libmda::metaprog::int_<200>, libmda::metaprog::int_<0>, libmda::metaprog::int_<200> > >:this <- RDI+0
	movq	%rbx, %rsi
	addq	$8, %rsp
	popq	%rbx
.Ltmp587:
	popq	%r14
.Ltmp588:
	jmp	_ZN5Forr_clIN6libmda8metaprog6detail18loop_iterator_implINS2_4int_ILi104EEENS5_ILi0EEENS5_ILi200EEEEENS4_IS8_S7_S8_EEEEvRSoT_T0_ # TAILCALL
.Ltmp589:
.Ltmp590:
	.size	_ZN5Forr_clIN6libmda8metaprog6detail18loop_iterator_implINS2_4int_ILi96EEENS5_ILi0EEENS5_ILi200EEEEENS4_IS8_S7_S8_EEEEvRSoT_T0_, .Ltmp590-_ZN5Forr_clIN6libmda8metaprog6detail18loop_iterator_implINS2_4int_ILi96EEENS5_ILi0EEENS5_ILi200EEEEENS4_IS8_S7_S8_EEEEvRSoT_T0_
.Lfunc_end13:
	.cfi_endproc

	.section	.text._ZN5Forr_clIN6libmda8metaprog6detail18loop_iterator_implINS2_4int_ILi104EEENS5_ILi0EEENS5_ILi200EEEEENS4_IS8_S7_S8_EEEEvRSoT_T0_,"axG",@progbits,_ZN5Forr_clIN6libmda8metaprog6detail18loop_iterator_implINS2_4int_ILi104EEENS5_ILi0EEENS5_ILi200EEEEENS4_IS8_S7_S8_EEEEvRSoT_T0_,comdat
	.weak	_ZN5Forr_clIN6libmda8metaprog6detail18loop_iterator_implINS2_4int_ILi104EEENS5_ILi0EEENS5_ILi200EEEEENS4_IS8_S7_S8_EEEEvRSoT_T0_
	.align	16, 0x90
	.type	_ZN5Forr_clIN6libmda8metaprog6detail18loop_iterator_implINS2_4int_ILi104EEENS5_ILi0EEENS5_ILi200EEEEENS4_IS8_S7_S8_EEEEvRSoT_T0_,@function
_ZN5Forr_clIN6libmda8metaprog6detail18loop_iterator_implINS2_4int_ILi104EEENS5_ILi0EEENS5_ILi200EEEEENS4_IS8_S7_S8_EEEEvRSoT_T0_: # @_ZN5Forr_clIN6libmda8metaprog6detail18loop_iterator_implINS2_4int_ILi104EEENS5_ILi0EEENS5_ILi200EEEEENS4_IS8_S7_S8_EEEEvRSoT_T0_
	.cfi_startproc
.Lfunc_begin14:
	.loc	1 8 0                   # main.cc:8:0
# BB#0:                                 # %entry
	pushq	%r14
.Ltmp594:
	.cfi_def_cfa_offset 16
	pushq	%rbx
.Ltmp595:
	.cfi_def_cfa_offset 24
	pushq	%rax
.Ltmp596:
	.cfi_def_cfa_offset 32
.Ltmp597:
	.cfi_offset %rbx, -24
.Ltmp598:
	.cfi_offset %r14, -16
	#DEBUG_VALUE: operator()<libmda::metaprog::detail::loop_iterator_impl<libmda::metaprog::int_<104>, libmda::metaprog::int_<0>, libmda::metaprog::int_<200> >, libmda::metaprog::detail::loop_iterator_impl<libmda::metaprog::int_<200>, libmda::metaprog::int_<0>, libmda::metaprog::int_<200> > >:this <- RDI+0
	#DEBUG_VALUE: operator()<libmda::metaprog::detail::loop_iterator_impl<libmda::metaprog::int_<104>, libmda::metaprog::int_<0>, libmda::metaprog::int_<200> >, libmda::metaprog::detail::loop_iterator_impl<libmda::metaprog::int_<200>, libmda::metaprog::int_<0>, libmda::metaprog::int_<200> > >:aout <- RSI+0
	movq	%rsi, %rbx
.Ltmp599:
	#DEBUG_VALUE: operator()<libmda::metaprog::detail::loop_iterator_impl<libmda::metaprog::int_<104>, libmda::metaprog::int_<0>, libmda::metaprog::int_<200> >, libmda::metaprog::detail::loop_iterator_impl<libmda::metaprog::int_<200>, libmda::metaprog::int_<0>, libmda::metaprog::int_<200> > >:aout <- RBX+0
	movq	%rdi, %r14
.Ltmp600:
	#DEBUG_VALUE: operator()<libmda::metaprog::detail::loop_iterator_impl<libmda::metaprog::int_<104>, libmda::metaprog::int_<0>, libmda::metaprog::int_<200> >, libmda::metaprog::detail::loop_iterator_impl<libmda::metaprog::int_<200>, libmda::metaprog::int_<0>, libmda::metaprog::int_<200> > >:this <- R14+0
	#DEBUG_VALUE: operator()<libmda::metaprog::detail::loop_iterator_impl<libmda::metaprog::int_<111>, libmda::metaprog::int_<0>, libmda::metaprog::int_<200> >, libmda::metaprog::detail::loop_iterator_impl<libmda::metaprog::int_<200>, libmda::metaprog::int_<0>, libmda::metaprog::int_<200> > >:this <- R14+0
	#DEBUG_VALUE: operator()<libmda::metaprog::detail::loop_iterator_impl<libmda::metaprog::int_<111>, libmda::metaprog::int_<0>, libmda::metaprog::int_<200> >, libmda::metaprog::detail::loop_iterator_impl<libmda::metaprog::int_<200>, libmda::metaprog::int_<0>, libmda::metaprog::int_<200> > >:aout <- RBX+0
	#DEBUG_VALUE: operator()<libmda::metaprog::detail::loop_iterator_impl<libmda::metaprog::int_<110>, libmda::metaprog::int_<0>, libmda::metaprog::int_<200> >, libmda::metaprog::detail::loop_iterator_impl<libmda::metaprog::int_<200>, libmda::metaprog::int_<0>, libmda::metaprog::int_<200> > >:this <- R14+0
	#DEBUG_VALUE: operator()<libmda::metaprog::detail::loop_iterator_impl<libmda::metaprog::int_<110>, libmda::metaprog::int_<0>, libmda::metaprog::int_<200> >, libmda::metaprog::detail::loop_iterator_impl<libmda::metaprog::int_<200>, libmda::metaprog::int_<0>, libmda::metaprog::int_<200> > >:aout <- RBX+0
	#DEBUG_VALUE: operator()<libmda::metaprog::detail::loop_iterator_impl<libmda::metaprog::int_<109>, libmda::metaprog::int_<0>, libmda::metaprog::int_<200> >, libmda::metaprog::detail::loop_iterator_impl<libmda::metaprog::int_<200>, libmda::metaprog::int_<0>, libmda::metaprog::int_<200> > >:this <- R14+0
	#DEBUG_VALUE: operator()<libmda::metaprog::detail::loop_iterator_impl<libmda::metaprog::int_<109>, libmda::metaprog::int_<0>, libmda::metaprog::int_<200> >, libmda::metaprog::detail::loop_iterator_impl<libmda::metaprog::int_<200>, libmda::metaprog::int_<0>, libmda::metaprog::int_<200> > >:aout <- RBX+0
	#DEBUG_VALUE: operator()<libmda::metaprog::detail::loop_iterator_impl<libmda::metaprog::int_<108>, libmda::metaprog::int_<0>, libmda::metaprog::int_<200> >, libmda::metaprog::detail::loop_iterator_impl<libmda::metaprog::int_<200>, libmda::metaprog::int_<0>, libmda::metaprog::int_<200> > >:this <- R14+0
	#DEBUG_VALUE: operator()<libmda::metaprog::detail::loop_iterator_impl<libmda::metaprog::int_<108>, libmda::metaprog::int_<0>, libmda::metaprog::int_<200> >, libmda::metaprog::detail::loop_iterator_impl<libmda::metaprog::int_<200>, libmda::metaprog::int_<0>, libmda::metaprog::int_<200> > >:aout <- RBX+0
	#DEBUG_VALUE: operator()<libmda::metaprog::detail::loop_iterator_impl<libmda::metaprog::int_<107>, libmda::metaprog::int_<0>, libmda::metaprog::int_<200> >, libmda::metaprog::detail::loop_iterator_impl<libmda::metaprog::int_<200>, libmda::metaprog::int_<0>, libmda::metaprog::int_<200> > >:this <- R14+0
	#DEBUG_VALUE: operator()<libmda::metaprog::detail::loop_iterator_impl<libmda::metaprog::int_<107>, libmda::metaprog::int_<0>, libmda::metaprog::int_<200> >, libmda::metaprog::detail::loop_iterator_impl<libmda::metaprog::int_<200>, libmda::metaprog::int_<0>, libmda::metaprog::int_<200> > >:aout <- RBX+0
	#DEBUG_VALUE: operator()<libmda::metaprog::detail::loop_iterator_impl<libmda::metaprog::int_<106>, libmda::metaprog::int_<0>, libmda::metaprog::int_<200> >, libmda::metaprog::detail::loop_iterator_impl<libmda::metaprog::int_<200>, libmda::metaprog::int_<0>, libmda::metaprog::int_<200> > >:this <- R14+0
	#DEBUG_VALUE: operator()<libmda::metaprog::detail::loop_iterator_impl<libmda::metaprog::int_<106>, libmda::metaprog::int_<0>, libmda::metaprog::int_<200> >, libmda::metaprog::detail::loop_iterator_impl<libmda::metaprog::int_<200>, libmda::metaprog::int_<0>, libmda::metaprog::int_<200> > >:aout <- RBX+0
	#DEBUG_VALUE: operator()<libmda::metaprog::detail::loop_iterator_impl<libmda::metaprog::int_<105>, libmda::metaprog::int_<0>, libmda::metaprog::int_<200> >, libmda::metaprog::detail::loop_iterator_impl<libmda::metaprog::int_<200>, libmda::metaprog::int_<0>, libmda::metaprog::int_<200> > >:this <- R14+0
	#DEBUG_VALUE: operator()<libmda::metaprog::detail::loop_iterator_impl<libmda::metaprog::int_<105>, libmda::metaprog::int_<0>, libmda::metaprog::int_<200> >, libmda::metaprog::detail::loop_iterator_impl<libmda::metaprog::int_<200>, libmda::metaprog::int_<0>, libmda::metaprog::int_<200> > >:aout <- RBX+0
	.loc	1 9 0 prologue_end      # main.cc:9:0
	movq	%rbx, %rdi
	movl	$104, %esi
	callq	_ZNSolsEi
.Ltmp601:
	#DEBUG_VALUE: operator<<<std::char_traits<char> >:__out <- RAX+0
	#DEBUG_VALUE: length:__s <- undef
	#DEBUG_VALUE: operator<<<std::char_traits<char> >:__s <- undef
	#DEBUG_VALUE: length:__s <- undef
	#DEBUG_VALUE: operator<<<std::char_traits<char> >:__s <- undef
	#DEBUG_VALUE: length:__s <- undef
	#DEBUG_VALUE: operator<<<std::char_traits<char> >:__s <- undef
	#DEBUG_VALUE: length:__s <- undef
	#DEBUG_VALUE: operator<<<std::char_traits<char> >:__s <- undef
	#DEBUG_VALUE: length:__s <- undef
	#DEBUG_VALUE: operator<<<std::char_traits<char> >:__s <- undef
	#DEBUG_VALUE: length:__s <- undef
	#DEBUG_VALUE: operator<<<std::char_traits<char> >:__s <- undef
	#DEBUG_VALUE: length:__s <- undef
	#DEBUG_VALUE: operator<<<std::char_traits<char> >:__s <- undef
	#DEBUG_VALUE: length:__s <- undef
	.loc	31 535 0                # /usr/lib/gcc/x86_64-linux-gnu/4.8/../../../../include/c++/4.8/ostream:535:0
	movq	%rax, %rdi
	movl	$.L.str, %esi
	movl	$1, %edx
	callq	_ZSt16__ostream_insertIcSt11char_traitsIcEERSt13basic_ostreamIT_T0_ES6_PKS3_l
.Ltmp602:
	.loc	1 9 0                   # main.cc:9:0
	movq	%rbx, %rdi
	movl	$105, %esi
	callq	_ZNSolsEi
.Ltmp603:
	#DEBUG_VALUE: operator<<<std::char_traits<char> >:__out <- RAX+0
	.loc	31 535 0                # /usr/lib/gcc/x86_64-linux-gnu/4.8/../../../../include/c++/4.8/ostream:535:0
	movq	%rax, %rdi
.Ltmp604:
	.loc	31 535 0                # /usr/lib/gcc/x86_64-linux-gnu/4.8/../../../../include/c++/4.8/ostream:535:0
	movl	$.L.str, %esi
	movl	$1, %edx
.Ltmp605:
	.loc	31 535 0                # /usr/lib/gcc/x86_64-linux-gnu/4.8/../../../../include/c++/4.8/ostream:535:0
	callq	_ZSt16__ostream_insertIcSt11char_traitsIcEERSt13basic_ostreamIT_T0_ES6_PKS3_l
.Ltmp606:
	.loc	1 9 0                   # main.cc:9:0
	movq	%rbx, %rdi
	movl	$106, %esi
	callq	_ZNSolsEi
.Ltmp607:
	#DEBUG_VALUE: operator<<<std::char_traits<char> >:__out <- RAX+0
	.loc	31 535 0                # /usr/lib/gcc/x86_64-linux-gnu/4.8/../../../../include/c++/4.8/ostream:535:0
	movq	%rax, %rdi
.Ltmp608:
	.loc	31 535 0                # /usr/lib/gcc/x86_64-linux-gnu/4.8/../../../../include/c++/4.8/ostream:535:0
	movl	$.L.str, %esi
	movl	$1, %edx
.Ltmp609:
	.loc	31 535 0                # /usr/lib/gcc/x86_64-linux-gnu/4.8/../../../../include/c++/4.8/ostream:535:0
	callq	_ZSt16__ostream_insertIcSt11char_traitsIcEERSt13basic_ostreamIT_T0_ES6_PKS3_l
.Ltmp610:
	.loc	1 9 0                   # main.cc:9:0
	movq	%rbx, %rdi
	movl	$107, %esi
	callq	_ZNSolsEi
.Ltmp611:
	#DEBUG_VALUE: operator<<<std::char_traits<char> >:__out <- RAX+0
	.loc	31 535 0                # /usr/lib/gcc/x86_64-linux-gnu/4.8/../../../../include/c++/4.8/ostream:535:0
	movq	%rax, %rdi
.Ltmp612:
	.loc	31 535 0                # /usr/lib/gcc/x86_64-linux-gnu/4.8/../../../../include/c++/4.8/ostream:535:0
	movl	$.L.str, %esi
	movl	$1, %edx
.Ltmp613:
	.loc	31 535 0                # /usr/lib/gcc/x86_64-linux-gnu/4.8/../../../../include/c++/4.8/ostream:535:0
	callq	_ZSt16__ostream_insertIcSt11char_traitsIcEERSt13basic_ostreamIT_T0_ES6_PKS3_l
.Ltmp614:
	.loc	1 9 0                   # main.cc:9:0
	movq	%rbx, %rdi
	movl	$108, %esi
	callq	_ZNSolsEi
.Ltmp615:
	#DEBUG_VALUE: operator<<<std::char_traits<char> >:__out <- RAX+0
	.loc	31 535 0                # /usr/lib/gcc/x86_64-linux-gnu/4.8/../../../../include/c++/4.8/ostream:535:0
	movq	%rax, %rdi
.Ltmp616:
	.loc	31 535 0                # /usr/lib/gcc/x86_64-linux-gnu/4.8/../../../../include/c++/4.8/ostream:535:0
	movl	$.L.str, %esi
	movl	$1, %edx
.Ltmp617:
	.loc	31 535 0                # /usr/lib/gcc/x86_64-linux-gnu/4.8/../../../../include/c++/4.8/ostream:535:0
	callq	_ZSt16__ostream_insertIcSt11char_traitsIcEERSt13basic_ostreamIT_T0_ES6_PKS3_l
.Ltmp618:
	.loc	1 9 0                   # main.cc:9:0
	movq	%rbx, %rdi
	movl	$109, %esi
	callq	_ZNSolsEi
.Ltmp619:
	#DEBUG_VALUE: operator<<<std::char_traits<char> >:__out <- RAX+0
	.loc	31 535 0                # /usr/lib/gcc/x86_64-linux-gnu/4.8/../../../../include/c++/4.8/ostream:535:0
	movq	%rax, %rdi
.Ltmp620:
	.loc	31 535 0                # /usr/lib/gcc/x86_64-linux-gnu/4.8/../../../../include/c++/4.8/ostream:535:0
	movl	$.L.str, %esi
	movl	$1, %edx
.Ltmp621:
	.loc	31 535 0                # /usr/lib/gcc/x86_64-linux-gnu/4.8/../../../../include/c++/4.8/ostream:535:0
	callq	_ZSt16__ostream_insertIcSt11char_traitsIcEERSt13basic_ostreamIT_T0_ES6_PKS3_l
.Ltmp622:
	.loc	1 9 0                   # main.cc:9:0
	movq	%rbx, %rdi
	movl	$110, %esi
	callq	_ZNSolsEi
.Ltmp623:
	#DEBUG_VALUE: operator<<<std::char_traits<char> >:__out <- RAX+0
	.loc	31 535 0                # /usr/lib/gcc/x86_64-linux-gnu/4.8/../../../../include/c++/4.8/ostream:535:0
	movq	%rax, %rdi
.Ltmp624:
	.loc	31 535 0                # /usr/lib/gcc/x86_64-linux-gnu/4.8/../../../../include/c++/4.8/ostream:535:0
	movl	$.L.str, %esi
	movl	$1, %edx
.Ltmp625:
	.loc	31 535 0                # /usr/lib/gcc/x86_64-linux-gnu/4.8/../../../../include/c++/4.8/ostream:535:0
	callq	_ZSt16__ostream_insertIcSt11char_traitsIcEERSt13basic_ostreamIT_T0_ES6_PKS3_l
.Ltmp626:
	.loc	1 9 0                   # main.cc:9:0
	movq	%rbx, %rdi
	movl	$111, %esi
	callq	_ZNSolsEi
.Ltmp627:
	#DEBUG_VALUE: operator<<<std::char_traits<char> >:__out <- RAX+0
	.loc	31 535 0                # /usr/lib/gcc/x86_64-linux-gnu/4.8/../../../../include/c++/4.8/ostream:535:0
	movq	%rax, %rdi
.Ltmp628:
	.loc	31 535 0                # /usr/lib/gcc/x86_64-linux-gnu/4.8/../../../../include/c++/4.8/ostream:535:0
	movl	$.L.str, %esi
	movl	$1, %edx
.Ltmp629:
	.loc	31 535 0                # /usr/lib/gcc/x86_64-linux-gnu/4.8/../../../../include/c++/4.8/ostream:535:0
	callq	_ZSt16__ostream_insertIcSt11char_traitsIcEERSt13basic_ostreamIT_T0_ES6_PKS3_l
.Ltmp630:
	.loc	1 10 0                  # main.cc:10:0
	movq	%r14, %rdi
.Ltmp631:
	#DEBUG_VALUE: operator()<libmda::metaprog::detail::loop_iterator_impl<libmda::metaprog::int_<104>, libmda::metaprog::int_<0>, libmda::metaprog::int_<200> >, libmda::metaprog::detail::loop_iterator_impl<libmda::metaprog::int_<200>, libmda::metaprog::int_<0>, libmda::metaprog::int_<200> > >:this <- RDI+0
	movq	%rbx, %rsi
	addq	$8, %rsp
	popq	%rbx
.Ltmp632:
	popq	%r14
.Ltmp633:
	jmp	_ZN5Forr_clIN6libmda8metaprog6detail18loop_iterator_implINS2_4int_ILi112EEENS5_ILi0EEENS5_ILi200EEEEENS4_IS8_S7_S8_EEEEvRSoT_T0_ # TAILCALL
.Ltmp634:
.Ltmp635:
	.size	_ZN5Forr_clIN6libmda8metaprog6detail18loop_iterator_implINS2_4int_ILi104EEENS5_ILi0EEENS5_ILi200EEEEENS4_IS8_S7_S8_EEEEvRSoT_T0_, .Ltmp635-_ZN5Forr_clIN6libmda8metaprog6detail18loop_iterator_implINS2_4int_ILi104EEENS5_ILi0EEENS5_ILi200EEEEENS4_IS8_S7_S8_EEEEvRSoT_T0_
.Lfunc_end14:
	.cfi_endproc

	.section	.text._ZN5Forr_clIN6libmda8metaprog6detail18loop_iterator_implINS2_4int_ILi112EEENS5_ILi0EEENS5_ILi200EEEEENS4_IS8_S7_S8_EEEEvRSoT_T0_,"axG",@progbits,_ZN5Forr_clIN6libmda8metaprog6detail18loop_iterator_implINS2_4int_ILi112EEENS5_ILi0EEENS5_ILi200EEEEENS4_IS8_S7_S8_EEEEvRSoT_T0_,comdat
	.weak	_ZN5Forr_clIN6libmda8metaprog6detail18loop_iterator_implINS2_4int_ILi112EEENS5_ILi0EEENS5_ILi200EEEEENS4_IS8_S7_S8_EEEEvRSoT_T0_
	.align	16, 0x90
	.type	_ZN5Forr_clIN6libmda8metaprog6detail18loop_iterator_implINS2_4int_ILi112EEENS5_ILi0EEENS5_ILi200EEEEENS4_IS8_S7_S8_EEEEvRSoT_T0_,@function
_ZN5Forr_clIN6libmda8metaprog6detail18loop_iterator_implINS2_4int_ILi112EEENS5_ILi0EEENS5_ILi200EEEEENS4_IS8_S7_S8_EEEEvRSoT_T0_: # @_ZN5Forr_clIN6libmda8metaprog6detail18loop_iterator_implINS2_4int_ILi112EEENS5_ILi0EEENS5_ILi200EEEEENS4_IS8_S7_S8_EEEEvRSoT_T0_
	.cfi_startproc
.Lfunc_begin15:
	.loc	1 8 0                   # main.cc:8:0
# BB#0:                                 # %entry
	pushq	%r14
.Ltmp639:
	.cfi_def_cfa_offset 16
	pushq	%rbx
.Ltmp640:
	.cfi_def_cfa_offset 24
	pushq	%rax
.Ltmp641:
	.cfi_def_cfa_offset 32
.Ltmp642:
	.cfi_offset %rbx, -24
.Ltmp643:
	.cfi_offset %r14, -16
	#DEBUG_VALUE: operator()<libmda::metaprog::detail::loop_iterator_impl<libmda::metaprog::int_<112>, libmda::metaprog::int_<0>, libmda::metaprog::int_<200> >, libmda::metaprog::detail::loop_iterator_impl<libmda::metaprog::int_<200>, libmda::metaprog::int_<0>, libmda::metaprog::int_<200> > >:this <- RDI+0
	#DEBUG_VALUE: operator()<libmda::metaprog::detail::loop_iterator_impl<libmda::metaprog::int_<112>, libmda::metaprog::int_<0>, libmda::metaprog::int_<200> >, libmda::metaprog::detail::loop_iterator_impl<libmda::metaprog::int_<200>, libmda::metaprog::int_<0>, libmda::metaprog::int_<200> > >:aout <- RSI+0
	movq	%rsi, %rbx
.Ltmp644:
	#DEBUG_VALUE: operator()<libmda::metaprog::detail::loop_iterator_impl<libmda::metaprog::int_<112>, libmda::metaprog::int_<0>, libmda::metaprog::int_<200> >, libmda::metaprog::detail::loop_iterator_impl<libmda::metaprog::int_<200>, libmda::metaprog::int_<0>, libmda::metaprog::int_<200> > >:aout <- RBX+0
	movq	%rdi, %r14
.Ltmp645:
	#DEBUG_VALUE: operator()<libmda::metaprog::detail::loop_iterator_impl<libmda::metaprog::int_<112>, libmda::metaprog::int_<0>, libmda::metaprog::int_<200> >, libmda::metaprog::detail::loop_iterator_impl<libmda::metaprog::int_<200>, libmda::metaprog::int_<0>, libmda::metaprog::int_<200> > >:this <- R14+0
	#DEBUG_VALUE: operator()<libmda::metaprog::detail::loop_iterator_impl<libmda::metaprog::int_<119>, libmda::metaprog::int_<0>, libmda::metaprog::int_<200> >, libmda::metaprog::detail::loop_iterator_impl<libmda::metaprog::int_<200>, libmda::metaprog::int_<0>, libmda::metaprog::int_<200> > >:this <- R14+0
	#DEBUG_VALUE: operator()<libmda::metaprog::detail::loop_iterator_impl<libmda::metaprog::int_<119>, libmda::metaprog::int_<0>, libmda::metaprog::int_<200> >, libmda::metaprog::detail::loop_iterator_impl<libmda::metaprog::int_<200>, libmda::metaprog::int_<0>, libmda::metaprog::int_<200> > >:aout <- RBX+0
	#DEBUG_VALUE: operator()<libmda::metaprog::detail::loop_iterator_impl<libmda::metaprog::int_<118>, libmda::metaprog::int_<0>, libmda::metaprog::int_<200> >, libmda::metaprog::detail::loop_iterator_impl<libmda::metaprog::int_<200>, libmda::metaprog::int_<0>, libmda::metaprog::int_<200> > >:this <- R14+0
	#DEBUG_VALUE: operator()<libmda::metaprog::detail::loop_iterator_impl<libmda::metaprog::int_<118>, libmda::metaprog::int_<0>, libmda::metaprog::int_<200> >, libmda::metaprog::detail::loop_iterator_impl<libmda::metaprog::int_<200>, libmda::metaprog::int_<0>, libmda::metaprog::int_<200> > >:aout <- RBX+0
	#DEBUG_VALUE: operator()<libmda::metaprog::detail::loop_iterator_impl<libmda::metaprog::int_<117>, libmda::metaprog::int_<0>, libmda::metaprog::int_<200> >, libmda::metaprog::detail::loop_iterator_impl<libmda::metaprog::int_<200>, libmda::metaprog::int_<0>, libmda::metaprog::int_<200> > >:this <- R14+0
	#DEBUG_VALUE: operator()<libmda::metaprog::detail::loop_iterator_impl<libmda::metaprog::int_<117>, libmda::metaprog::int_<0>, libmda::metaprog::int_<200> >, libmda::metaprog::detail::loop_iterator_impl<libmda::metaprog::int_<200>, libmda::metaprog::int_<0>, libmda::metaprog::int_<200> > >:aout <- RBX+0
	#DEBUG_VALUE: operator()<libmda::metaprog::detail::loop_iterator_impl<libmda::metaprog::int_<116>, libmda::metaprog::int_<0>, libmda::metaprog::int_<200> >, libmda::metaprog::detail::loop_iterator_impl<libmda::metaprog::int_<200>, libmda::metaprog::int_<0>, libmda::metaprog::int_<200> > >:this <- R14+0
	#DEBUG_VALUE: operator()<libmda::metaprog::detail::loop_iterator_impl<libmda::metaprog::int_<116>, libmda::metaprog::int_<0>, libmda::metaprog::int_<200> >, libmda::metaprog::detail::loop_iterator_impl<libmda::metaprog::int_<200>, libmda::metaprog::int_<0>, libmda::metaprog::int_<200> > >:aout <- RBX+0
	#DEBUG_VALUE: operator()<libmda::metaprog::detail::loop_iterator_impl<libmda::metaprog::int_<115>, libmda::metaprog::int_<0>, libmda::metaprog::int_<200> >, libmda::metaprog::detail::loop_iterator_impl<libmda::metaprog::int_<200>, libmda::metaprog::int_<0>, libmda::metaprog::int_<200> > >:this <- R14+0
	#DEBUG_VALUE: operator()<libmda::metaprog::detail::loop_iterator_impl<libmda::metaprog::int_<115>, libmda::metaprog::int_<0>, libmda::metaprog::int_<200> >, libmda::metaprog::detail::loop_iterator_impl<libmda::metaprog::int_<200>, libmda::metaprog::int_<0>, libmda::metaprog::int_<200> > >:aout <- RBX+0
	#DEBUG_VALUE: operator()<libmda::metaprog::detail::loop_iterator_impl<libmda::metaprog::int_<114>, libmda::metaprog::int_<0>, libmda::metaprog::int_<200> >, libmda::metaprog::detail::loop_iterator_impl<libmda::metaprog::int_<200>, libmda::metaprog::int_<0>, libmda::metaprog::int_<200> > >:this <- R14+0
	#DEBUG_VALUE: operator()<libmda::metaprog::detail::loop_iterator_impl<libmda::metaprog::int_<114>, libmda::metaprog::int_<0>, libmda::metaprog::int_<200> >, libmda::metaprog::detail::loop_iterator_impl<libmda::metaprog::int_<200>, libmda::metaprog::int_<0>, libmda::metaprog::int_<200> > >:aout <- RBX+0
	#DEBUG_VALUE: operator()<libmda::metaprog::detail::loop_iterator_impl<libmda::metaprog::int_<113>, libmda::metaprog::int_<0>, libmda::metaprog::int_<200> >, libmda::metaprog::detail::loop_iterator_impl<libmda::metaprog::int_<200>, libmda::metaprog::int_<0>, libmda::metaprog::int_<200> > >:this <- R14+0
	#DEBUG_VALUE: operator()<libmda::metaprog::detail::loop_iterator_impl<libmda::metaprog::int_<113>, libmda::metaprog::int_<0>, libmda::metaprog::int_<200> >, libmda::metaprog::detail::loop_iterator_impl<libmda::metaprog::int_<200>, libmda::metaprog::int_<0>, libmda::metaprog::int_<200> > >:aout <- RBX+0
	.loc	1 9 0 prologue_end      # main.cc:9:0
	movq	%rbx, %rdi
	movl	$112, %esi
	callq	_ZNSolsEi
.Ltmp646:
	#DEBUG_VALUE: operator<<<std::char_traits<char> >:__out <- RAX+0
	#DEBUG_VALUE: length:__s <- undef
	#DEBUG_VALUE: operator<<<std::char_traits<char> >:__s <- undef
	#DEBUG_VALUE: length:__s <- undef
	#DEBUG_VALUE: operator<<<std::char_traits<char> >:__s <- undef
	#DEBUG_VALUE: length:__s <- undef
	#DEBUG_VALUE: operator<<<std::char_traits<char> >:__s <- undef
	#DEBUG_VALUE: length:__s <- undef
	#DEBUG_VALUE: operator<<<std::char_traits<char> >:__s <- undef
	#DEBUG_VALUE: length:__s <- undef
	#DEBUG_VALUE: operator<<<std::char_traits<char> >:__s <- undef
	#DEBUG_VALUE: length:__s <- undef
	#DEBUG_VALUE: operator<<<std::char_traits<char> >:__s <- undef
	#DEBUG_VALUE: length:__s <- undef
	#DEBUG_VALUE: operator<<<std::char_traits<char> >:__s <- undef
	#DEBUG_VALUE: length:__s <- undef
	.loc	31 535 0                # /usr/lib/gcc/x86_64-linux-gnu/4.8/../../../../include/c++/4.8/ostream:535:0
	movq	%rax, %rdi
	movl	$.L.str, %esi
	movl	$1, %edx
	callq	_ZSt16__ostream_insertIcSt11char_traitsIcEERSt13basic_ostreamIT_T0_ES6_PKS3_l
.Ltmp647:
	.loc	1 9 0                   # main.cc:9:0
	movq	%rbx, %rdi
	movl	$113, %esi
	callq	_ZNSolsEi
.Ltmp648:
	#DEBUG_VALUE: operator<<<std::char_traits<char> >:__out <- RAX+0
	.loc	31 535 0                # /usr/lib/gcc/x86_64-linux-gnu/4.8/../../../../include/c++/4.8/ostream:535:0
	movq	%rax, %rdi
.Ltmp649:
	.loc	31 535 0                # /usr/lib/gcc/x86_64-linux-gnu/4.8/../../../../include/c++/4.8/ostream:535:0
	movl	$.L.str, %esi
	movl	$1, %edx
.Ltmp650:
	.loc	31 535 0                # /usr/lib/gcc/x86_64-linux-gnu/4.8/../../../../include/c++/4.8/ostream:535:0
	callq	_ZSt16__ostream_insertIcSt11char_traitsIcEERSt13basic_ostreamIT_T0_ES6_PKS3_l
.Ltmp651:
	.loc	1 9 0                   # main.cc:9:0
	movq	%rbx, %rdi
	movl	$114, %esi
	callq	_ZNSolsEi
.Ltmp652:
	#DEBUG_VALUE: operator<<<std::char_traits<char> >:__out <- RAX+0
	.loc	31 535 0                # /usr/lib/gcc/x86_64-linux-gnu/4.8/../../../../include/c++/4.8/ostream:535:0
	movq	%rax, %rdi
.Ltmp653:
	.loc	31 535 0                # /usr/lib/gcc/x86_64-linux-gnu/4.8/../../../../include/c++/4.8/ostream:535:0
	movl	$.L.str, %esi
	movl	$1, %edx
.Ltmp654:
	.loc	31 535 0                # /usr/lib/gcc/x86_64-linux-gnu/4.8/../../../../include/c++/4.8/ostream:535:0
	callq	_ZSt16__ostream_insertIcSt11char_traitsIcEERSt13basic_ostreamIT_T0_ES6_PKS3_l
.Ltmp655:
	.loc	1 9 0                   # main.cc:9:0
	movq	%rbx, %rdi
	movl	$115, %esi
	callq	_ZNSolsEi
.Ltmp656:
	#DEBUG_VALUE: operator<<<std::char_traits<char> >:__out <- RAX+0
	.loc	31 535 0                # /usr/lib/gcc/x86_64-linux-gnu/4.8/../../../../include/c++/4.8/ostream:535:0
	movq	%rax, %rdi
.Ltmp657:
	.loc	31 535 0                # /usr/lib/gcc/x86_64-linux-gnu/4.8/../../../../include/c++/4.8/ostream:535:0
	movl	$.L.str, %esi
	movl	$1, %edx
.Ltmp658:
	.loc	31 535 0                # /usr/lib/gcc/x86_64-linux-gnu/4.8/../../../../include/c++/4.8/ostream:535:0
	callq	_ZSt16__ostream_insertIcSt11char_traitsIcEERSt13basic_ostreamIT_T0_ES6_PKS3_l
.Ltmp659:
	.loc	1 9 0                   # main.cc:9:0
	movq	%rbx, %rdi
	movl	$116, %esi
	callq	_ZNSolsEi
.Ltmp660:
	#DEBUG_VALUE: operator<<<std::char_traits<char> >:__out <- RAX+0
	.loc	31 535 0                # /usr/lib/gcc/x86_64-linux-gnu/4.8/../../../../include/c++/4.8/ostream:535:0
	movq	%rax, %rdi
.Ltmp661:
	.loc	31 535 0                # /usr/lib/gcc/x86_64-linux-gnu/4.8/../../../../include/c++/4.8/ostream:535:0
	movl	$.L.str, %esi
	movl	$1, %edx
.Ltmp662:
	.loc	31 535 0                # /usr/lib/gcc/x86_64-linux-gnu/4.8/../../../../include/c++/4.8/ostream:535:0
	callq	_ZSt16__ostream_insertIcSt11char_traitsIcEERSt13basic_ostreamIT_T0_ES6_PKS3_l
.Ltmp663:
	.loc	1 9 0                   # main.cc:9:0
	movq	%rbx, %rdi
	movl	$117, %esi
	callq	_ZNSolsEi
.Ltmp664:
	#DEBUG_VALUE: operator<<<std::char_traits<char> >:__out <- RAX+0
	.loc	31 535 0                # /usr/lib/gcc/x86_64-linux-gnu/4.8/../../../../include/c++/4.8/ostream:535:0
	movq	%rax, %rdi
.Ltmp665:
	.loc	31 535 0                # /usr/lib/gcc/x86_64-linux-gnu/4.8/../../../../include/c++/4.8/ostream:535:0
	movl	$.L.str, %esi
	movl	$1, %edx
.Ltmp666:
	.loc	31 535 0                # /usr/lib/gcc/x86_64-linux-gnu/4.8/../../../../include/c++/4.8/ostream:535:0
	callq	_ZSt16__ostream_insertIcSt11char_traitsIcEERSt13basic_ostreamIT_T0_ES6_PKS3_l
.Ltmp667:
	.loc	1 9 0                   # main.cc:9:0
	movq	%rbx, %rdi
	movl	$118, %esi
	callq	_ZNSolsEi
.Ltmp668:
	#DEBUG_VALUE: operator<<<std::char_traits<char> >:__out <- RAX+0
	.loc	31 535 0                # /usr/lib/gcc/x86_64-linux-gnu/4.8/../../../../include/c++/4.8/ostream:535:0
	movq	%rax, %rdi
.Ltmp669:
	.loc	31 535 0                # /usr/lib/gcc/x86_64-linux-gnu/4.8/../../../../include/c++/4.8/ostream:535:0
	movl	$.L.str, %esi
	movl	$1, %edx
.Ltmp670:
	.loc	31 535 0                # /usr/lib/gcc/x86_64-linux-gnu/4.8/../../../../include/c++/4.8/ostream:535:0
	callq	_ZSt16__ostream_insertIcSt11char_traitsIcEERSt13basic_ostreamIT_T0_ES6_PKS3_l
.Ltmp671:
	.loc	1 9 0                   # main.cc:9:0
	movq	%rbx, %rdi
	movl	$119, %esi
	callq	_ZNSolsEi
.Ltmp672:
	#DEBUG_VALUE: operator<<<std::char_traits<char> >:__out <- RAX+0
	.loc	31 535 0                # /usr/lib/gcc/x86_64-linux-gnu/4.8/../../../../include/c++/4.8/ostream:535:0
	movq	%rax, %rdi
.Ltmp673:
	.loc	31 535 0                # /usr/lib/gcc/x86_64-linux-gnu/4.8/../../../../include/c++/4.8/ostream:535:0
	movl	$.L.str, %esi
	movl	$1, %edx
.Ltmp674:
	.loc	31 535 0                # /usr/lib/gcc/x86_64-linux-gnu/4.8/../../../../include/c++/4.8/ostream:535:0
	callq	_ZSt16__ostream_insertIcSt11char_traitsIcEERSt13basic_ostreamIT_T0_ES6_PKS3_l
.Ltmp675:
	.loc	1 10 0                  # main.cc:10:0
	movq	%r14, %rdi
.Ltmp676:
	#DEBUG_VALUE: operator()<libmda::metaprog::detail::loop_iterator_impl<libmda::metaprog::int_<112>, libmda::metaprog::int_<0>, libmda::metaprog::int_<200> >, libmda::metaprog::detail::loop_iterator_impl<libmda::metaprog::int_<200>, libmda::metaprog::int_<0>, libmda::metaprog::int_<200> > >:this <- RDI+0
	movq	%rbx, %rsi
	addq	$8, %rsp
	popq	%rbx
.Ltmp677:
	popq	%r14
.Ltmp678:
	jmp	_ZN5Forr_clIN6libmda8metaprog6detail18loop_iterator_implINS2_4int_ILi120EEENS5_ILi0EEENS5_ILi200EEEEENS4_IS8_S7_S8_EEEEvRSoT_T0_ # TAILCALL
.Ltmp679:
.Ltmp680:
	.size	_ZN5Forr_clIN6libmda8metaprog6detail18loop_iterator_implINS2_4int_ILi112EEENS5_ILi0EEENS5_ILi200EEEEENS4_IS8_S7_S8_EEEEvRSoT_T0_, .Ltmp680-_ZN5Forr_clIN6libmda8metaprog6detail18loop_iterator_implINS2_4int_ILi112EEENS5_ILi0EEENS5_ILi200EEEEENS4_IS8_S7_S8_EEEEvRSoT_T0_
.Lfunc_end15:
	.cfi_endproc

	.section	.text._ZN5Forr_clIN6libmda8metaprog6detail18loop_iterator_implINS2_4int_ILi120EEENS5_ILi0EEENS5_ILi200EEEEENS4_IS8_S7_S8_EEEEvRSoT_T0_,"axG",@progbits,_ZN5Forr_clIN6libmda8metaprog6detail18loop_iterator_implINS2_4int_ILi120EEENS5_ILi0EEENS5_ILi200EEEEENS4_IS8_S7_S8_EEEEvRSoT_T0_,comdat
	.weak	_ZN5Forr_clIN6libmda8metaprog6detail18loop_iterator_implINS2_4int_ILi120EEENS5_ILi0EEENS5_ILi200EEEEENS4_IS8_S7_S8_EEEEvRSoT_T0_
	.align	16, 0x90
	.type	_ZN5Forr_clIN6libmda8metaprog6detail18loop_iterator_implINS2_4int_ILi120EEENS5_ILi0EEENS5_ILi200EEEEENS4_IS8_S7_S8_EEEEvRSoT_T0_,@function
_ZN5Forr_clIN6libmda8metaprog6detail18loop_iterator_implINS2_4int_ILi120EEENS5_ILi0EEENS5_ILi200EEEEENS4_IS8_S7_S8_EEEEvRSoT_T0_: # @_ZN5Forr_clIN6libmda8metaprog6detail18loop_iterator_implINS2_4int_ILi120EEENS5_ILi0EEENS5_ILi200EEEEENS4_IS8_S7_S8_EEEEvRSoT_T0_
	.cfi_startproc
.Lfunc_begin16:
	.loc	1 8 0                   # main.cc:8:0
# BB#0:                                 # %entry
	pushq	%r14
.Ltmp684:
	.cfi_def_cfa_offset 16
	pushq	%rbx
.Ltmp685:
	.cfi_def_cfa_offset 24
	pushq	%rax
.Ltmp686:
	.cfi_def_cfa_offset 32
.Ltmp687:
	.cfi_offset %rbx, -24
.Ltmp688:
	.cfi_offset %r14, -16
	#DEBUG_VALUE: operator()<libmda::metaprog::detail::loop_iterator_impl<libmda::metaprog::int_<120>, libmda::metaprog::int_<0>, libmda::metaprog::int_<200> >, libmda::metaprog::detail::loop_iterator_impl<libmda::metaprog::int_<200>, libmda::metaprog::int_<0>, libmda::metaprog::int_<200> > >:this <- RDI+0
	#DEBUG_VALUE: operator()<libmda::metaprog::detail::loop_iterator_impl<libmda::metaprog::int_<120>, libmda::metaprog::int_<0>, libmda::metaprog::int_<200> >, libmda::metaprog::detail::loop_iterator_impl<libmda::metaprog::int_<200>, libmda::metaprog::int_<0>, libmda::metaprog::int_<200> > >:aout <- RSI+0
	movq	%rsi, %rbx
.Ltmp689:
	#DEBUG_VALUE: operator()<libmda::metaprog::detail::loop_iterator_impl<libmda::metaprog::int_<120>, libmda::metaprog::int_<0>, libmda::metaprog::int_<200> >, libmda::metaprog::detail::loop_iterator_impl<libmda::metaprog::int_<200>, libmda::metaprog::int_<0>, libmda::metaprog::int_<200> > >:aout <- RBX+0
	movq	%rdi, %r14
.Ltmp690:
	#DEBUG_VALUE: operator()<libmda::metaprog::detail::loop_iterator_impl<libmda::metaprog::int_<120>, libmda::metaprog::int_<0>, libmda::metaprog::int_<200> >, libmda::metaprog::detail::loop_iterator_impl<libmda::metaprog::int_<200>, libmda::metaprog::int_<0>, libmda::metaprog::int_<200> > >:this <- R14+0
	#DEBUG_VALUE: operator()<libmda::metaprog::detail::loop_iterator_impl<libmda::metaprog::int_<127>, libmda::metaprog::int_<0>, libmda::metaprog::int_<200> >, libmda::metaprog::detail::loop_iterator_impl<libmda::metaprog::int_<200>, libmda::metaprog::int_<0>, libmda::metaprog::int_<200> > >:this <- R14+0
	#DEBUG_VALUE: operator()<libmda::metaprog::detail::loop_iterator_impl<libmda::metaprog::int_<127>, libmda::metaprog::int_<0>, libmda::metaprog::int_<200> >, libmda::metaprog::detail::loop_iterator_impl<libmda::metaprog::int_<200>, libmda::metaprog::int_<0>, libmda::metaprog::int_<200> > >:aout <- RBX+0
	#DEBUG_VALUE: operator()<libmda::metaprog::detail::loop_iterator_impl<libmda::metaprog::int_<126>, libmda::metaprog::int_<0>, libmda::metaprog::int_<200> >, libmda::metaprog::detail::loop_iterator_impl<libmda::metaprog::int_<200>, libmda::metaprog::int_<0>, libmda::metaprog::int_<200> > >:this <- R14+0
	#DEBUG_VALUE: operator()<libmda::metaprog::detail::loop_iterator_impl<libmda::metaprog::int_<126>, libmda::metaprog::int_<0>, libmda::metaprog::int_<200> >, libmda::metaprog::detail::loop_iterator_impl<libmda::metaprog::int_<200>, libmda::metaprog::int_<0>, libmda::metaprog::int_<200> > >:aout <- RBX+0
	#DEBUG_VALUE: operator()<libmda::metaprog::detail::loop_iterator_impl<libmda::metaprog::int_<125>, libmda::metaprog::int_<0>, libmda::metaprog::int_<200> >, libmda::metaprog::detail::loop_iterator_impl<libmda::metaprog::int_<200>, libmda::metaprog::int_<0>, libmda::metaprog::int_<200> > >:this <- R14+0
	#DEBUG_VALUE: operator()<libmda::metaprog::detail::loop_iterator_impl<libmda::metaprog::int_<125>, libmda::metaprog::int_<0>, libmda::metaprog::int_<200> >, libmda::metaprog::detail::loop_iterator_impl<libmda::metaprog::int_<200>, libmda::metaprog::int_<0>, libmda::metaprog::int_<200> > >:aout <- RBX+0
	#DEBUG_VALUE: operator()<libmda::metaprog::detail::loop_iterator_impl<libmda::metaprog::int_<124>, libmda::metaprog::int_<0>, libmda::metaprog::int_<200> >, libmda::metaprog::detail::loop_iterator_impl<libmda::metaprog::int_<200>, libmda::metaprog::int_<0>, libmda::metaprog::int_<200> > >:this <- R14+0
	#DEBUG_VALUE: operator()<libmda::metaprog::detail::loop_iterator_impl<libmda::metaprog::int_<124>, libmda::metaprog::int_<0>, libmda::metaprog::int_<200> >, libmda::metaprog::detail::loop_iterator_impl<libmda::metaprog::int_<200>, libmda::metaprog::int_<0>, libmda::metaprog::int_<200> > >:aout <- RBX+0
	#DEBUG_VALUE: operator()<libmda::metaprog::detail::loop_iterator_impl<libmda::metaprog::int_<123>, libmda::metaprog::int_<0>, libmda::metaprog::int_<200> >, libmda::metaprog::detail::loop_iterator_impl<libmda::metaprog::int_<200>, libmda::metaprog::int_<0>, libmda::metaprog::int_<200> > >:this <- R14+0
	#DEBUG_VALUE: operator()<libmda::metaprog::detail::loop_iterator_impl<libmda::metaprog::int_<123>, libmda::metaprog::int_<0>, libmda::metaprog::int_<200> >, libmda::metaprog::detail::loop_iterator_impl<libmda::metaprog::int_<200>, libmda::metaprog::int_<0>, libmda::metaprog::int_<200> > >:aout <- RBX+0
	#DEBUG_VALUE: operator()<libmda::metaprog::detail::loop_iterator_impl<libmda::metaprog::int_<122>, libmda::metaprog::int_<0>, libmda::metaprog::int_<200> >, libmda::metaprog::detail::loop_iterator_impl<libmda::metaprog::int_<200>, libmda::metaprog::int_<0>, libmda::metaprog::int_<200> > >:this <- R14+0
	#DEBUG_VALUE: operator()<libmda::metaprog::detail::loop_iterator_impl<libmda::metaprog::int_<122>, libmda::metaprog::int_<0>, libmda::metaprog::int_<200> >, libmda::metaprog::detail::loop_iterator_impl<libmda::metaprog::int_<200>, libmda::metaprog::int_<0>, libmda::metaprog::int_<200> > >:aout <- RBX+0
	#DEBUG_VALUE: operator()<libmda::metaprog::detail::loop_iterator_impl<libmda::metaprog::int_<121>, libmda::metaprog::int_<0>, libmda::metaprog::int_<200> >, libmda::metaprog::detail::loop_iterator_impl<libmda::metaprog::int_<200>, libmda::metaprog::int_<0>, libmda::metaprog::int_<200> > >:this <- R14+0
	#DEBUG_VALUE: operator()<libmda::metaprog::detail::loop_iterator_impl<libmda::metaprog::int_<121>, libmda::metaprog::int_<0>, libmda::metaprog::int_<200> >, libmda::metaprog::detail::loop_iterator_impl<libmda::metaprog::int_<200>, libmda::metaprog::int_<0>, libmda::metaprog::int_<200> > >:aout <- RBX+0
	.loc	1 9 0 prologue_end      # main.cc:9:0
	movq	%rbx, %rdi
	movl	$120, %esi
	callq	_ZNSolsEi
.Ltmp691:
	#DEBUG_VALUE: operator<<<std::char_traits<char> >:__out <- RAX+0
	#DEBUG_VALUE: length:__s <- undef
	#DEBUG_VALUE: operator<<<std::char_traits<char> >:__s <- undef
	#DEBUG_VALUE: length:__s <- undef
	#DEBUG_VALUE: operator<<<std::char_traits<char> >:__s <- undef
	#DEBUG_VALUE: length:__s <- undef
	#DEBUG_VALUE: operator<<<std::char_traits<char> >:__s <- undef
	#DEBUG_VALUE: length:__s <- undef
	#DEBUG_VALUE: operator<<<std::char_traits<char> >:__s <- undef
	#DEBUG_VALUE: length:__s <- undef
	#DEBUG_VALUE: operator<<<std::char_traits<char> >:__s <- undef
	#DEBUG_VALUE: length:__s <- undef
	#DEBUG_VALUE: operator<<<std::char_traits<char> >:__s <- undef
	#DEBUG_VALUE: length:__s <- undef
	#DEBUG_VALUE: operator<<<std::char_traits<char> >:__s <- undef
	#DEBUG_VALUE: length:__s <- undef
	.loc	31 535 0                # /usr/lib/gcc/x86_64-linux-gnu/4.8/../../../../include/c++/4.8/ostream:535:0
	movq	%rax, %rdi
	movl	$.L.str, %esi
	movl	$1, %edx
	callq	_ZSt16__ostream_insertIcSt11char_traitsIcEERSt13basic_ostreamIT_T0_ES6_PKS3_l
.Ltmp692:
	.loc	1 9 0                   # main.cc:9:0
	movq	%rbx, %rdi
	movl	$121, %esi
	callq	_ZNSolsEi
.Ltmp693:
	#DEBUG_VALUE: operator<<<std::char_traits<char> >:__out <- RAX+0
	.loc	31 535 0                # /usr/lib/gcc/x86_64-linux-gnu/4.8/../../../../include/c++/4.8/ostream:535:0
	movq	%rax, %rdi
.Ltmp694:
	.loc	31 535 0                # /usr/lib/gcc/x86_64-linux-gnu/4.8/../../../../include/c++/4.8/ostream:535:0
	movl	$.L.str, %esi
	movl	$1, %edx
.Ltmp695:
	.loc	31 535 0                # /usr/lib/gcc/x86_64-linux-gnu/4.8/../../../../include/c++/4.8/ostream:535:0
	callq	_ZSt16__ostream_insertIcSt11char_traitsIcEERSt13basic_ostreamIT_T0_ES6_PKS3_l
.Ltmp696:
	.loc	1 9 0                   # main.cc:9:0
	movq	%rbx, %rdi
	movl	$122, %esi
	callq	_ZNSolsEi
.Ltmp697:
	#DEBUG_VALUE: operator<<<std::char_traits<char> >:__out <- RAX+0
	.loc	31 535 0                # /usr/lib/gcc/x86_64-linux-gnu/4.8/../../../../include/c++/4.8/ostream:535:0
	movq	%rax, %rdi
.Ltmp698:
	.loc	31 535 0                # /usr/lib/gcc/x86_64-linux-gnu/4.8/../../../../include/c++/4.8/ostream:535:0
	movl	$.L.str, %esi
	movl	$1, %edx
.Ltmp699:
	.loc	31 535 0                # /usr/lib/gcc/x86_64-linux-gnu/4.8/../../../../include/c++/4.8/ostream:535:0
	callq	_ZSt16__ostream_insertIcSt11char_traitsIcEERSt13basic_ostreamIT_T0_ES6_PKS3_l
.Ltmp700:
	.loc	1 9 0                   # main.cc:9:0
	movq	%rbx, %rdi
	movl	$123, %esi
	callq	_ZNSolsEi
.Ltmp701:
	#DEBUG_VALUE: operator<<<std::char_traits<char> >:__out <- RAX+0
	.loc	31 535 0                # /usr/lib/gcc/x86_64-linux-gnu/4.8/../../../../include/c++/4.8/ostream:535:0
	movq	%rax, %rdi
.Ltmp702:
	.loc	31 535 0                # /usr/lib/gcc/x86_64-linux-gnu/4.8/../../../../include/c++/4.8/ostream:535:0
	movl	$.L.str, %esi
	movl	$1, %edx
.Ltmp703:
	.loc	31 535 0                # /usr/lib/gcc/x86_64-linux-gnu/4.8/../../../../include/c++/4.8/ostream:535:0
	callq	_ZSt16__ostream_insertIcSt11char_traitsIcEERSt13basic_ostreamIT_T0_ES6_PKS3_l
.Ltmp704:
	.loc	1 9 0                   # main.cc:9:0
	movq	%rbx, %rdi
	movl	$124, %esi
	callq	_ZNSolsEi
.Ltmp705:
	#DEBUG_VALUE: operator<<<std::char_traits<char> >:__out <- RAX+0
	.loc	31 535 0                # /usr/lib/gcc/x86_64-linux-gnu/4.8/../../../../include/c++/4.8/ostream:535:0
	movq	%rax, %rdi
.Ltmp706:
	.loc	31 535 0                # /usr/lib/gcc/x86_64-linux-gnu/4.8/../../../../include/c++/4.8/ostream:535:0
	movl	$.L.str, %esi
	movl	$1, %edx
.Ltmp707:
	.loc	31 535 0                # /usr/lib/gcc/x86_64-linux-gnu/4.8/../../../../include/c++/4.8/ostream:535:0
	callq	_ZSt16__ostream_insertIcSt11char_traitsIcEERSt13basic_ostreamIT_T0_ES6_PKS3_l
.Ltmp708:
	.loc	1 9 0                   # main.cc:9:0
	movq	%rbx, %rdi
	movl	$125, %esi
	callq	_ZNSolsEi
.Ltmp709:
	#DEBUG_VALUE: operator<<<std::char_traits<char> >:__out <- RAX+0
	.loc	31 535 0                # /usr/lib/gcc/x86_64-linux-gnu/4.8/../../../../include/c++/4.8/ostream:535:0
	movq	%rax, %rdi
.Ltmp710:
	.loc	31 535 0                # /usr/lib/gcc/x86_64-linux-gnu/4.8/../../../../include/c++/4.8/ostream:535:0
	movl	$.L.str, %esi
	movl	$1, %edx
.Ltmp711:
	.loc	31 535 0                # /usr/lib/gcc/x86_64-linux-gnu/4.8/../../../../include/c++/4.8/ostream:535:0
	callq	_ZSt16__ostream_insertIcSt11char_traitsIcEERSt13basic_ostreamIT_T0_ES6_PKS3_l
.Ltmp712:
	.loc	1 9 0                   # main.cc:9:0
	movq	%rbx, %rdi
	movl	$126, %esi
	callq	_ZNSolsEi
.Ltmp713:
	#DEBUG_VALUE: operator<<<std::char_traits<char> >:__out <- RAX+0
	.loc	31 535 0                # /usr/lib/gcc/x86_64-linux-gnu/4.8/../../../../include/c++/4.8/ostream:535:0
	movq	%rax, %rdi
.Ltmp714:
	.loc	31 535 0                # /usr/lib/gcc/x86_64-linux-gnu/4.8/../../../../include/c++/4.8/ostream:535:0
	movl	$.L.str, %esi
	movl	$1, %edx
.Ltmp715:
	.loc	31 535 0                # /usr/lib/gcc/x86_64-linux-gnu/4.8/../../../../include/c++/4.8/ostream:535:0
	callq	_ZSt16__ostream_insertIcSt11char_traitsIcEERSt13basic_ostreamIT_T0_ES6_PKS3_l
.Ltmp716:
	.loc	1 9 0                   # main.cc:9:0
	movq	%rbx, %rdi
	movl	$127, %esi
	callq	_ZNSolsEi
.Ltmp717:
	#DEBUG_VALUE: operator<<<std::char_traits<char> >:__out <- RAX+0
	.loc	31 535 0                # /usr/lib/gcc/x86_64-linux-gnu/4.8/../../../../include/c++/4.8/ostream:535:0
	movq	%rax, %rdi
.Ltmp718:
	.loc	31 535 0                # /usr/lib/gcc/x86_64-linux-gnu/4.8/../../../../include/c++/4.8/ostream:535:0
	movl	$.L.str, %esi
	movl	$1, %edx
.Ltmp719:
	.loc	31 535 0                # /usr/lib/gcc/x86_64-linux-gnu/4.8/../../../../include/c++/4.8/ostream:535:0
	callq	_ZSt16__ostream_insertIcSt11char_traitsIcEERSt13basic_ostreamIT_T0_ES6_PKS3_l
.Ltmp720:
	.loc	1 10 0                  # main.cc:10:0
	movq	%r14, %rdi
.Ltmp721:
	#DEBUG_VALUE: operator()<libmda::metaprog::detail::loop_iterator_impl<libmda::metaprog::int_<120>, libmda::metaprog::int_<0>, libmda::metaprog::int_<200> >, libmda::metaprog::detail::loop_iterator_impl<libmda::metaprog::int_<200>, libmda::metaprog::int_<0>, libmda::metaprog::int_<200> > >:this <- RDI+0
	movq	%rbx, %rsi
	addq	$8, %rsp
	popq	%rbx
.Ltmp722:
	popq	%r14
.Ltmp723:
	jmp	_ZN5Forr_clIN6libmda8metaprog6detail18loop_iterator_implINS2_4int_ILi128EEENS5_ILi0EEENS5_ILi200EEEEENS4_IS8_S7_S8_EEEEvRSoT_T0_ # TAILCALL
.Ltmp724:
.Ltmp725:
	.size	_ZN5Forr_clIN6libmda8metaprog6detail18loop_iterator_implINS2_4int_ILi120EEENS5_ILi0EEENS5_ILi200EEEEENS4_IS8_S7_S8_EEEEvRSoT_T0_, .Ltmp725-_ZN5Forr_clIN6libmda8metaprog6detail18loop_iterator_implINS2_4int_ILi120EEENS5_ILi0EEENS5_ILi200EEEEENS4_IS8_S7_S8_EEEEvRSoT_T0_
.Lfunc_end16:
	.cfi_endproc

	.section	.text._ZN5Forr_clIN6libmda8metaprog6detail18loop_iterator_implINS2_4int_ILi128EEENS5_ILi0EEENS5_ILi200EEEEENS4_IS8_S7_S8_EEEEvRSoT_T0_,"axG",@progbits,_ZN5Forr_clIN6libmda8metaprog6detail18loop_iterator_implINS2_4int_ILi128EEENS5_ILi0EEENS5_ILi200EEEEENS4_IS8_S7_S8_EEEEvRSoT_T0_,comdat
	.weak	_ZN5Forr_clIN6libmda8metaprog6detail18loop_iterator_implINS2_4int_ILi128EEENS5_ILi0EEENS5_ILi200EEEEENS4_IS8_S7_S8_EEEEvRSoT_T0_
	.align	16, 0x90
	.type	_ZN5Forr_clIN6libmda8metaprog6detail18loop_iterator_implINS2_4int_ILi128EEENS5_ILi0EEENS5_ILi200EEEEENS4_IS8_S7_S8_EEEEvRSoT_T0_,@function
_ZN5Forr_clIN6libmda8metaprog6detail18loop_iterator_implINS2_4int_ILi128EEENS5_ILi0EEENS5_ILi200EEEEENS4_IS8_S7_S8_EEEEvRSoT_T0_: # @_ZN5Forr_clIN6libmda8metaprog6detail18loop_iterator_implINS2_4int_ILi128EEENS5_ILi0EEENS5_ILi200EEEEENS4_IS8_S7_S8_EEEEvRSoT_T0_
	.cfi_startproc
.Lfunc_begin17:
	.loc	1 8 0                   # main.cc:8:0
# BB#0:                                 # %entry
	pushq	%r14
.Ltmp729:
	.cfi_def_cfa_offset 16
	pushq	%rbx
.Ltmp730:
	.cfi_def_cfa_offset 24
	pushq	%rax
.Ltmp731:
	.cfi_def_cfa_offset 32
.Ltmp732:
	.cfi_offset %rbx, -24
.Ltmp733:
	.cfi_offset %r14, -16
	#DEBUG_VALUE: operator()<libmda::metaprog::detail::loop_iterator_impl<libmda::metaprog::int_<128>, libmda::metaprog::int_<0>, libmda::metaprog::int_<200> >, libmda::metaprog::detail::loop_iterator_impl<libmda::metaprog::int_<200>, libmda::metaprog::int_<0>, libmda::metaprog::int_<200> > >:this <- RDI+0
	#DEBUG_VALUE: operator()<libmda::metaprog::detail::loop_iterator_impl<libmda::metaprog::int_<128>, libmda::metaprog::int_<0>, libmda::metaprog::int_<200> >, libmda::metaprog::detail::loop_iterator_impl<libmda::metaprog::int_<200>, libmda::metaprog::int_<0>, libmda::metaprog::int_<200> > >:aout <- RSI+0
	movq	%rsi, %rbx
.Ltmp734:
	#DEBUG_VALUE: operator()<libmda::metaprog::detail::loop_iterator_impl<libmda::metaprog::int_<128>, libmda::metaprog::int_<0>, libmda::metaprog::int_<200> >, libmda::metaprog::detail::loop_iterator_impl<libmda::metaprog::int_<200>, libmda::metaprog::int_<0>, libmda::metaprog::int_<200> > >:aout <- RBX+0
	movq	%rdi, %r14
.Ltmp735:
	#DEBUG_VALUE: operator()<libmda::metaprog::detail::loop_iterator_impl<libmda::metaprog::int_<128>, libmda::metaprog::int_<0>, libmda::metaprog::int_<200> >, libmda::metaprog::detail::loop_iterator_impl<libmda::metaprog::int_<200>, libmda::metaprog::int_<0>, libmda::metaprog::int_<200> > >:this <- R14+0
	#DEBUG_VALUE: operator()<libmda::metaprog::detail::loop_iterator_impl<libmda::metaprog::int_<135>, libmda::metaprog::int_<0>, libmda::metaprog::int_<200> >, libmda::metaprog::detail::loop_iterator_impl<libmda::metaprog::int_<200>, libmda::metaprog::int_<0>, libmda::metaprog::int_<200> > >:this <- R14+0
	#DEBUG_VALUE: operator()<libmda::metaprog::detail::loop_iterator_impl<libmda::metaprog::int_<135>, libmda::metaprog::int_<0>, libmda::metaprog::int_<200> >, libmda::metaprog::detail::loop_iterator_impl<libmda::metaprog::int_<200>, libmda::metaprog::int_<0>, libmda::metaprog::int_<200> > >:aout <- RBX+0
	#DEBUG_VALUE: operator()<libmda::metaprog::detail::loop_iterator_impl<libmda::metaprog::int_<134>, libmda::metaprog::int_<0>, libmda::metaprog::int_<200> >, libmda::metaprog::detail::loop_iterator_impl<libmda::metaprog::int_<200>, libmda::metaprog::int_<0>, libmda::metaprog::int_<200> > >:this <- R14+0
	#DEBUG_VALUE: operator()<libmda::metaprog::detail::loop_iterator_impl<libmda::metaprog::int_<134>, libmda::metaprog::int_<0>, libmda::metaprog::int_<200> >, libmda::metaprog::detail::loop_iterator_impl<libmda::metaprog::int_<200>, libmda::metaprog::int_<0>, libmda::metaprog::int_<200> > >:aout <- RBX+0
	#DEBUG_VALUE: operator()<libmda::metaprog::detail::loop_iterator_impl<libmda::metaprog::int_<133>, libmda::metaprog::int_<0>, libmda::metaprog::int_<200> >, libmda::metaprog::detail::loop_iterator_impl<libmda::metaprog::int_<200>, libmda::metaprog::int_<0>, libmda::metaprog::int_<200> > >:this <- R14+0
	#DEBUG_VALUE: operator()<libmda::metaprog::detail::loop_iterator_impl<libmda::metaprog::int_<133>, libmda::metaprog::int_<0>, libmda::metaprog::int_<200> >, libmda::metaprog::detail::loop_iterator_impl<libmda::metaprog::int_<200>, libmda::metaprog::int_<0>, libmda::metaprog::int_<200> > >:aout <- RBX+0
	#DEBUG_VALUE: operator()<libmda::metaprog::detail::loop_iterator_impl<libmda::metaprog::int_<132>, libmda::metaprog::int_<0>, libmda::metaprog::int_<200> >, libmda::metaprog::detail::loop_iterator_impl<libmda::metaprog::int_<200>, libmda::metaprog::int_<0>, libmda::metaprog::int_<200> > >:this <- R14+0
	#DEBUG_VALUE: operator()<libmda::metaprog::detail::loop_iterator_impl<libmda::metaprog::int_<132>, libmda::metaprog::int_<0>, libmda::metaprog::int_<200> >, libmda::metaprog::detail::loop_iterator_impl<libmda::metaprog::int_<200>, libmda::metaprog::int_<0>, libmda::metaprog::int_<200> > >:aout <- RBX+0
	#DEBUG_VALUE: operator()<libmda::metaprog::detail::loop_iterator_impl<libmda::metaprog::int_<131>, libmda::metaprog::int_<0>, libmda::metaprog::int_<200> >, libmda::metaprog::detail::loop_iterator_impl<libmda::metaprog::int_<200>, libmda::metaprog::int_<0>, libmda::metaprog::int_<200> > >:this <- R14+0
	#DEBUG_VALUE: operator()<libmda::metaprog::detail::loop_iterator_impl<libmda::metaprog::int_<131>, libmda::metaprog::int_<0>, libmda::metaprog::int_<200> >, libmda::metaprog::detail::loop_iterator_impl<libmda::metaprog::int_<200>, libmda::metaprog::int_<0>, libmda::metaprog::int_<200> > >:aout <- RBX+0
	#DEBUG_VALUE: operator()<libmda::metaprog::detail::loop_iterator_impl<libmda::metaprog::int_<130>, libmda::metaprog::int_<0>, libmda::metaprog::int_<200> >, libmda::metaprog::detail::loop_iterator_impl<libmda::metaprog::int_<200>, libmda::metaprog::int_<0>, libmda::metaprog::int_<200> > >:this <- R14+0
	#DEBUG_VALUE: operator()<libmda::metaprog::detail::loop_iterator_impl<libmda::metaprog::int_<130>, libmda::metaprog::int_<0>, libmda::metaprog::int_<200> >, libmda::metaprog::detail::loop_iterator_impl<libmda::metaprog::int_<200>, libmda::metaprog::int_<0>, libmda::metaprog::int_<200> > >:aout <- RBX+0
	#DEBUG_VALUE: operator()<libmda::metaprog::detail::loop_iterator_impl<libmda::metaprog::int_<129>, libmda::metaprog::int_<0>, libmda::metaprog::int_<200> >, libmda::metaprog::detail::loop_iterator_impl<libmda::metaprog::int_<200>, libmda::metaprog::int_<0>, libmda::metaprog::int_<200> > >:this <- R14+0
	#DEBUG_VALUE: operator()<libmda::metaprog::detail::loop_iterator_impl<libmda::metaprog::int_<129>, libmda::metaprog::int_<0>, libmda::metaprog::int_<200> >, libmda::metaprog::detail::loop_iterator_impl<libmda::metaprog::int_<200>, libmda::metaprog::int_<0>, libmda::metaprog::int_<200> > >:aout <- RBX+0
	.loc	1 9 0 prologue_end      # main.cc:9:0
	movq	%rbx, %rdi
	movl	$128, %esi
	callq	_ZNSolsEi
.Ltmp736:
	#DEBUG_VALUE: operator<<<std::char_traits<char> >:__out <- RAX+0
	#DEBUG_VALUE: length:__s <- undef
	#DEBUG_VALUE: operator<<<std::char_traits<char> >:__s <- undef
	#DEBUG_VALUE: length:__s <- undef
	#DEBUG_VALUE: operator<<<std::char_traits<char> >:__s <- undef
	#DEBUG_VALUE: length:__s <- undef
	#DEBUG_VALUE: operator<<<std::char_traits<char> >:__s <- undef
	#DEBUG_VALUE: length:__s <- undef
	#DEBUG_VALUE: operator<<<std::char_traits<char> >:__s <- undef
	#DEBUG_VALUE: length:__s <- undef
	#DEBUG_VALUE: operator<<<std::char_traits<char> >:__s <- undef
	#DEBUG_VALUE: length:__s <- undef
	#DEBUG_VALUE: operator<<<std::char_traits<char> >:__s <- undef
	#DEBUG_VALUE: length:__s <- undef
	#DEBUG_VALUE: operator<<<std::char_traits<char> >:__s <- undef
	#DEBUG_VALUE: length:__s <- undef
	.loc	31 535 0                # /usr/lib/gcc/x86_64-linux-gnu/4.8/../../../../include/c++/4.8/ostream:535:0
	movq	%rax, %rdi
	movl	$.L.str, %esi
	movl	$1, %edx
	callq	_ZSt16__ostream_insertIcSt11char_traitsIcEERSt13basic_ostreamIT_T0_ES6_PKS3_l
.Ltmp737:
	.loc	1 9 0                   # main.cc:9:0
	movq	%rbx, %rdi
	movl	$129, %esi
	callq	_ZNSolsEi
.Ltmp738:
	#DEBUG_VALUE: operator<<<std::char_traits<char> >:__out <- RAX+0
	.loc	31 535 0                # /usr/lib/gcc/x86_64-linux-gnu/4.8/../../../../include/c++/4.8/ostream:535:0
	movq	%rax, %rdi
.Ltmp739:
	.loc	31 535 0                # /usr/lib/gcc/x86_64-linux-gnu/4.8/../../../../include/c++/4.8/ostream:535:0
	movl	$.L.str, %esi
	movl	$1, %edx
.Ltmp740:
	.loc	31 535 0                # /usr/lib/gcc/x86_64-linux-gnu/4.8/../../../../include/c++/4.8/ostream:535:0
	callq	_ZSt16__ostream_insertIcSt11char_traitsIcEERSt13basic_ostreamIT_T0_ES6_PKS3_l
.Ltmp741:
	.loc	1 9 0                   # main.cc:9:0
	movq	%rbx, %rdi
	movl	$130, %esi
	callq	_ZNSolsEi
.Ltmp742:
	#DEBUG_VALUE: operator<<<std::char_traits<char> >:__out <- RAX+0
	.loc	31 535 0                # /usr/lib/gcc/x86_64-linux-gnu/4.8/../../../../include/c++/4.8/ostream:535:0
	movq	%rax, %rdi
.Ltmp743:
	.loc	31 535 0                # /usr/lib/gcc/x86_64-linux-gnu/4.8/../../../../include/c++/4.8/ostream:535:0
	movl	$.L.str, %esi
	movl	$1, %edx
.Ltmp744:
	.loc	31 535 0                # /usr/lib/gcc/x86_64-linux-gnu/4.8/../../../../include/c++/4.8/ostream:535:0
	callq	_ZSt16__ostream_insertIcSt11char_traitsIcEERSt13basic_ostreamIT_T0_ES6_PKS3_l
.Ltmp745:
	.loc	1 9 0                   # main.cc:9:0
	movq	%rbx, %rdi
	movl	$131, %esi
	callq	_ZNSolsEi
.Ltmp746:
	#DEBUG_VALUE: operator<<<std::char_traits<char> >:__out <- RAX+0
	.loc	31 535 0                # /usr/lib/gcc/x86_64-linux-gnu/4.8/../../../../include/c++/4.8/ostream:535:0
	movq	%rax, %rdi
.Ltmp747:
	.loc	31 535 0                # /usr/lib/gcc/x86_64-linux-gnu/4.8/../../../../include/c++/4.8/ostream:535:0
	movl	$.L.str, %esi
	movl	$1, %edx
.Ltmp748:
	.loc	31 535 0                # /usr/lib/gcc/x86_64-linux-gnu/4.8/../../../../include/c++/4.8/ostream:535:0
	callq	_ZSt16__ostream_insertIcSt11char_traitsIcEERSt13basic_ostreamIT_T0_ES6_PKS3_l
.Ltmp749:
	.loc	1 9 0                   # main.cc:9:0
	movq	%rbx, %rdi
	movl	$132, %esi
	callq	_ZNSolsEi
.Ltmp750:
	#DEBUG_VALUE: operator<<<std::char_traits<char> >:__out <- RAX+0
	.loc	31 535 0                # /usr/lib/gcc/x86_64-linux-gnu/4.8/../../../../include/c++/4.8/ostream:535:0
	movq	%rax, %rdi
.Ltmp751:
	.loc	31 535 0                # /usr/lib/gcc/x86_64-linux-gnu/4.8/../../../../include/c++/4.8/ostream:535:0
	movl	$.L.str, %esi
	movl	$1, %edx
.Ltmp752:
	.loc	31 535 0                # /usr/lib/gcc/x86_64-linux-gnu/4.8/../../../../include/c++/4.8/ostream:535:0
	callq	_ZSt16__ostream_insertIcSt11char_traitsIcEERSt13basic_ostreamIT_T0_ES6_PKS3_l
.Ltmp753:
	.loc	1 9 0                   # main.cc:9:0
	movq	%rbx, %rdi
	movl	$133, %esi
	callq	_ZNSolsEi
.Ltmp754:
	#DEBUG_VALUE: operator<<<std::char_traits<char> >:__out <- RAX+0
	.loc	31 535 0                # /usr/lib/gcc/x86_64-linux-gnu/4.8/../../../../include/c++/4.8/ostream:535:0
	movq	%rax, %rdi
.Ltmp755:
	.loc	31 535 0                # /usr/lib/gcc/x86_64-linux-gnu/4.8/../../../../include/c++/4.8/ostream:535:0
	movl	$.L.str, %esi
	movl	$1, %edx
.Ltmp756:
	.loc	31 535 0                # /usr/lib/gcc/x86_64-linux-gnu/4.8/../../../../include/c++/4.8/ostream:535:0
	callq	_ZSt16__ostream_insertIcSt11char_traitsIcEERSt13basic_ostreamIT_T0_ES6_PKS3_l
.Ltmp757:
	.loc	1 9 0                   # main.cc:9:0
	movq	%rbx, %rdi
	movl	$134, %esi
	callq	_ZNSolsEi
.Ltmp758:
	#DEBUG_VALUE: operator<<<std::char_traits<char> >:__out <- RAX+0
	.loc	31 535 0                # /usr/lib/gcc/x86_64-linux-gnu/4.8/../../../../include/c++/4.8/ostream:535:0
	movq	%rax, %rdi
.Ltmp759:
	.loc	31 535 0                # /usr/lib/gcc/x86_64-linux-gnu/4.8/../../../../include/c++/4.8/ostream:535:0
	movl	$.L.str, %esi
	movl	$1, %edx
.Ltmp760:
	.loc	31 535 0                # /usr/lib/gcc/x86_64-linux-gnu/4.8/../../../../include/c++/4.8/ostream:535:0
	callq	_ZSt16__ostream_insertIcSt11char_traitsIcEERSt13basic_ostreamIT_T0_ES6_PKS3_l
.Ltmp761:
	.loc	1 9 0                   # main.cc:9:0
	movq	%rbx, %rdi
	movl	$135, %esi
	callq	_ZNSolsEi
.Ltmp762:
	#DEBUG_VALUE: operator<<<std::char_traits<char> >:__out <- RAX+0
	.loc	31 535 0                # /usr/lib/gcc/x86_64-linux-gnu/4.8/../../../../include/c++/4.8/ostream:535:0
	movq	%rax, %rdi
.Ltmp763:
	.loc	31 535 0                # /usr/lib/gcc/x86_64-linux-gnu/4.8/../../../../include/c++/4.8/ostream:535:0
	movl	$.L.str, %esi
	movl	$1, %edx
.Ltmp764:
	.loc	31 535 0                # /usr/lib/gcc/x86_64-linux-gnu/4.8/../../../../include/c++/4.8/ostream:535:0
	callq	_ZSt16__ostream_insertIcSt11char_traitsIcEERSt13basic_ostreamIT_T0_ES6_PKS3_l
.Ltmp765:
	.loc	1 10 0                  # main.cc:10:0
	movq	%r14, %rdi
.Ltmp766:
	#DEBUG_VALUE: operator()<libmda::metaprog::detail::loop_iterator_impl<libmda::metaprog::int_<128>, libmda::metaprog::int_<0>, libmda::metaprog::int_<200> >, libmda::metaprog::detail::loop_iterator_impl<libmda::metaprog::int_<200>, libmda::metaprog::int_<0>, libmda::metaprog::int_<200> > >:this <- RDI+0
	movq	%rbx, %rsi
	addq	$8, %rsp
	popq	%rbx
.Ltmp767:
	popq	%r14
.Ltmp768:
	jmp	_ZN5Forr_clIN6libmda8metaprog6detail18loop_iterator_implINS2_4int_ILi136EEENS5_ILi0EEENS5_ILi200EEEEENS4_IS8_S7_S8_EEEEvRSoT_T0_ # TAILCALL
.Ltmp769:
.Ltmp770:
	.size	_ZN5Forr_clIN6libmda8metaprog6detail18loop_iterator_implINS2_4int_ILi128EEENS5_ILi0EEENS5_ILi200EEEEENS4_IS8_S7_S8_EEEEvRSoT_T0_, .Ltmp770-_ZN5Forr_clIN6libmda8metaprog6detail18loop_iterator_implINS2_4int_ILi128EEENS5_ILi0EEENS5_ILi200EEEEENS4_IS8_S7_S8_EEEEvRSoT_T0_
.Lfunc_end17:
	.cfi_endproc

	.section	.text._ZN5Forr_clIN6libmda8metaprog6detail18loop_iterator_implINS2_4int_ILi136EEENS5_ILi0EEENS5_ILi200EEEEENS4_IS8_S7_S8_EEEEvRSoT_T0_,"axG",@progbits,_ZN5Forr_clIN6libmda8metaprog6detail18loop_iterator_implINS2_4int_ILi136EEENS5_ILi0EEENS5_ILi200EEEEENS4_IS8_S7_S8_EEEEvRSoT_T0_,comdat
	.weak	_ZN5Forr_clIN6libmda8metaprog6detail18loop_iterator_implINS2_4int_ILi136EEENS5_ILi0EEENS5_ILi200EEEEENS4_IS8_S7_S8_EEEEvRSoT_T0_
	.align	16, 0x90
	.type	_ZN5Forr_clIN6libmda8metaprog6detail18loop_iterator_implINS2_4int_ILi136EEENS5_ILi0EEENS5_ILi200EEEEENS4_IS8_S7_S8_EEEEvRSoT_T0_,@function
_ZN5Forr_clIN6libmda8metaprog6detail18loop_iterator_implINS2_4int_ILi136EEENS5_ILi0EEENS5_ILi200EEEEENS4_IS8_S7_S8_EEEEvRSoT_T0_: # @_ZN5Forr_clIN6libmda8metaprog6detail18loop_iterator_implINS2_4int_ILi136EEENS5_ILi0EEENS5_ILi200EEEEENS4_IS8_S7_S8_EEEEvRSoT_T0_
	.cfi_startproc
.Lfunc_begin18:
	.loc	1 8 0                   # main.cc:8:0
# BB#0:                                 # %entry
	pushq	%r14
.Ltmp774:
	.cfi_def_cfa_offset 16
	pushq	%rbx
.Ltmp775:
	.cfi_def_cfa_offset 24
	pushq	%rax
.Ltmp776:
	.cfi_def_cfa_offset 32
.Ltmp777:
	.cfi_offset %rbx, -24
.Ltmp778:
	.cfi_offset %r14, -16
	#DEBUG_VALUE: operator()<libmda::metaprog::detail::loop_iterator_impl<libmda::metaprog::int_<136>, libmda::metaprog::int_<0>, libmda::metaprog::int_<200> >, libmda::metaprog::detail::loop_iterator_impl<libmda::metaprog::int_<200>, libmda::metaprog::int_<0>, libmda::metaprog::int_<200> > >:this <- RDI+0
	#DEBUG_VALUE: operator()<libmda::metaprog::detail::loop_iterator_impl<libmda::metaprog::int_<136>, libmda::metaprog::int_<0>, libmda::metaprog::int_<200> >, libmda::metaprog::detail::loop_iterator_impl<libmda::metaprog::int_<200>, libmda::metaprog::int_<0>, libmda::metaprog::int_<200> > >:aout <- RSI+0
	movq	%rsi, %rbx
.Ltmp779:
	#DEBUG_VALUE: operator()<libmda::metaprog::detail::loop_iterator_impl<libmda::metaprog::int_<136>, libmda::metaprog::int_<0>, libmda::metaprog::int_<200> >, libmda::metaprog::detail::loop_iterator_impl<libmda::metaprog::int_<200>, libmda::metaprog::int_<0>, libmda::metaprog::int_<200> > >:aout <- RBX+0
	movq	%rdi, %r14
.Ltmp780:
	#DEBUG_VALUE: operator()<libmda::metaprog::detail::loop_iterator_impl<libmda::metaprog::int_<136>, libmda::metaprog::int_<0>, libmda::metaprog::int_<200> >, libmda::metaprog::detail::loop_iterator_impl<libmda::metaprog::int_<200>, libmda::metaprog::int_<0>, libmda::metaprog::int_<200> > >:this <- R14+0
	#DEBUG_VALUE: operator()<libmda::metaprog::detail::loop_iterator_impl<libmda::metaprog::int_<143>, libmda::metaprog::int_<0>, libmda::metaprog::int_<200> >, libmda::metaprog::detail::loop_iterator_impl<libmda::metaprog::int_<200>, libmda::metaprog::int_<0>, libmda::metaprog::int_<200> > >:this <- R14+0
	#DEBUG_VALUE: operator()<libmda::metaprog::detail::loop_iterator_impl<libmda::metaprog::int_<143>, libmda::metaprog::int_<0>, libmda::metaprog::int_<200> >, libmda::metaprog::detail::loop_iterator_impl<libmda::metaprog::int_<200>, libmda::metaprog::int_<0>, libmda::metaprog::int_<200> > >:aout <- RBX+0
	#DEBUG_VALUE: operator()<libmda::metaprog::detail::loop_iterator_impl<libmda::metaprog::int_<142>, libmda::metaprog::int_<0>, libmda::metaprog::int_<200> >, libmda::metaprog::detail::loop_iterator_impl<libmda::metaprog::int_<200>, libmda::metaprog::int_<0>, libmda::metaprog::int_<200> > >:this <- R14+0
	#DEBUG_VALUE: operator()<libmda::metaprog::detail::loop_iterator_impl<libmda::metaprog::int_<142>, libmda::metaprog::int_<0>, libmda::metaprog::int_<200> >, libmda::metaprog::detail::loop_iterator_impl<libmda::metaprog::int_<200>, libmda::metaprog::int_<0>, libmda::metaprog::int_<200> > >:aout <- RBX+0
	#DEBUG_VALUE: operator()<libmda::metaprog::detail::loop_iterator_impl<libmda::metaprog::int_<141>, libmda::metaprog::int_<0>, libmda::metaprog::int_<200> >, libmda::metaprog::detail::loop_iterator_impl<libmda::metaprog::int_<200>, libmda::metaprog::int_<0>, libmda::metaprog::int_<200> > >:this <- R14+0
	#DEBUG_VALUE: operator()<libmda::metaprog::detail::loop_iterator_impl<libmda::metaprog::int_<141>, libmda::metaprog::int_<0>, libmda::metaprog::int_<200> >, libmda::metaprog::detail::loop_iterator_impl<libmda::metaprog::int_<200>, libmda::metaprog::int_<0>, libmda::metaprog::int_<200> > >:aout <- RBX+0
	#DEBUG_VALUE: operator()<libmda::metaprog::detail::loop_iterator_impl<libmda::metaprog::int_<140>, libmda::metaprog::int_<0>, libmda::metaprog::int_<200> >, libmda::metaprog::detail::loop_iterator_impl<libmda::metaprog::int_<200>, libmda::metaprog::int_<0>, libmda::metaprog::int_<200> > >:this <- R14+0
	#DEBUG_VALUE: operator()<libmda::metaprog::detail::loop_iterator_impl<libmda::metaprog::int_<140>, libmda::metaprog::int_<0>, libmda::metaprog::int_<200> >, libmda::metaprog::detail::loop_iterator_impl<libmda::metaprog::int_<200>, libmda::metaprog::int_<0>, libmda::metaprog::int_<200> > >:aout <- RBX+0
	#DEBUG_VALUE: operator()<libmda::metaprog::detail::loop_iterator_impl<libmda::metaprog::int_<139>, libmda::metaprog::int_<0>, libmda::metaprog::int_<200> >, libmda::metaprog::detail::loop_iterator_impl<libmda::metaprog::int_<200>, libmda::metaprog::int_<0>, libmda::metaprog::int_<200> > >:this <- R14+0
	#DEBUG_VALUE: operator()<libmda::metaprog::detail::loop_iterator_impl<libmda::metaprog::int_<139>, libmda::metaprog::int_<0>, libmda::metaprog::int_<200> >, libmda::metaprog::detail::loop_iterator_impl<libmda::metaprog::int_<200>, libmda::metaprog::int_<0>, libmda::metaprog::int_<200> > >:aout <- RBX+0
	#DEBUG_VALUE: operator()<libmda::metaprog::detail::loop_iterator_impl<libmda::metaprog::int_<138>, libmda::metaprog::int_<0>, libmda::metaprog::int_<200> >, libmda::metaprog::detail::loop_iterator_impl<libmda::metaprog::int_<200>, libmda::metaprog::int_<0>, libmda::metaprog::int_<200> > >:this <- R14+0
	#DEBUG_VALUE: operator()<libmda::metaprog::detail::loop_iterator_impl<libmda::metaprog::int_<138>, libmda::metaprog::int_<0>, libmda::metaprog::int_<200> >, libmda::metaprog::detail::loop_iterator_impl<libmda::metaprog::int_<200>, libmda::metaprog::int_<0>, libmda::metaprog::int_<200> > >:aout <- RBX+0
	#DEBUG_VALUE: operator()<libmda::metaprog::detail::loop_iterator_impl<libmda::metaprog::int_<137>, libmda::metaprog::int_<0>, libmda::metaprog::int_<200> >, libmda::metaprog::detail::loop_iterator_impl<libmda::metaprog::int_<200>, libmda::metaprog::int_<0>, libmda::metaprog::int_<200> > >:this <- R14+0
	#DEBUG_VALUE: operator()<libmda::metaprog::detail::loop_iterator_impl<libmda::metaprog::int_<137>, libmda::metaprog::int_<0>, libmda::metaprog::int_<200> >, libmda::metaprog::detail::loop_iterator_impl<libmda::metaprog::int_<200>, libmda::metaprog::int_<0>, libmda::metaprog::int_<200> > >:aout <- RBX+0
	.loc	1 9 0 prologue_end      # main.cc:9:0
	movq	%rbx, %rdi
	movl	$136, %esi
	callq	_ZNSolsEi
.Ltmp781:
	#DEBUG_VALUE: operator<<<std::char_traits<char> >:__out <- RAX+0
	#DEBUG_VALUE: length:__s <- undef
	#DEBUG_VALUE: operator<<<std::char_traits<char> >:__s <- undef
	#DEBUG_VALUE: length:__s <- undef
	#DEBUG_VALUE: operator<<<std::char_traits<char> >:__s <- undef
	#DEBUG_VALUE: length:__s <- undef
	#DEBUG_VALUE: operator<<<std::char_traits<char> >:__s <- undef
	#DEBUG_VALUE: length:__s <- undef
	#DEBUG_VALUE: operator<<<std::char_traits<char> >:__s <- undef
	#DEBUG_VALUE: length:__s <- undef
	#DEBUG_VALUE: operator<<<std::char_traits<char> >:__s <- undef
	#DEBUG_VALUE: length:__s <- undef
	#DEBUG_VALUE: operator<<<std::char_traits<char> >:__s <- undef
	#DEBUG_VALUE: length:__s <- undef
	#DEBUG_VALUE: operator<<<std::char_traits<char> >:__s <- undef
	#DEBUG_VALUE: length:__s <- undef
	.loc	31 535 0                # /usr/lib/gcc/x86_64-linux-gnu/4.8/../../../../include/c++/4.8/ostream:535:0
	movq	%rax, %rdi
	movl	$.L.str, %esi
	movl	$1, %edx
	callq	_ZSt16__ostream_insertIcSt11char_traitsIcEERSt13basic_ostreamIT_T0_ES6_PKS3_l
.Ltmp782:
	.loc	1 9 0                   # main.cc:9:0
	movq	%rbx, %rdi
	movl	$137, %esi
	callq	_ZNSolsEi
.Ltmp783:
	#DEBUG_VALUE: operator<<<std::char_traits<char> >:__out <- RAX+0
	.loc	31 535 0                # /usr/lib/gcc/x86_64-linux-gnu/4.8/../../../../include/c++/4.8/ostream:535:0
	movq	%rax, %rdi
.Ltmp784:
	.loc	31 535 0                # /usr/lib/gcc/x86_64-linux-gnu/4.8/../../../../include/c++/4.8/ostream:535:0
	movl	$.L.str, %esi
	movl	$1, %edx
.Ltmp785:
	.loc	31 535 0                # /usr/lib/gcc/x86_64-linux-gnu/4.8/../../../../include/c++/4.8/ostream:535:0
	callq	_ZSt16__ostream_insertIcSt11char_traitsIcEERSt13basic_ostreamIT_T0_ES6_PKS3_l
.Ltmp786:
	.loc	1 9 0                   # main.cc:9:0
	movq	%rbx, %rdi
	movl	$138, %esi
	callq	_ZNSolsEi
.Ltmp787:
	#DEBUG_VALUE: operator<<<std::char_traits<char> >:__out <- RAX+0
	.loc	31 535 0                # /usr/lib/gcc/x86_64-linux-gnu/4.8/../../../../include/c++/4.8/ostream:535:0
	movq	%rax, %rdi
.Ltmp788:
	.loc	31 535 0                # /usr/lib/gcc/x86_64-linux-gnu/4.8/../../../../include/c++/4.8/ostream:535:0
	movl	$.L.str, %esi
	movl	$1, %edx
.Ltmp789:
	.loc	31 535 0                # /usr/lib/gcc/x86_64-linux-gnu/4.8/../../../../include/c++/4.8/ostream:535:0
	callq	_ZSt16__ostream_insertIcSt11char_traitsIcEERSt13basic_ostreamIT_T0_ES6_PKS3_l
.Ltmp790:
	.loc	1 9 0                   # main.cc:9:0
	movq	%rbx, %rdi
	movl	$139, %esi
	callq	_ZNSolsEi
.Ltmp791:
	#DEBUG_VALUE: operator<<<std::char_traits<char> >:__out <- RAX+0
	.loc	31 535 0                # /usr/lib/gcc/x86_64-linux-gnu/4.8/../../../../include/c++/4.8/ostream:535:0
	movq	%rax, %rdi
.Ltmp792:
	.loc	31 535 0                # /usr/lib/gcc/x86_64-linux-gnu/4.8/../../../../include/c++/4.8/ostream:535:0
	movl	$.L.str, %esi
	movl	$1, %edx
.Ltmp793:
	.loc	31 535 0                # /usr/lib/gcc/x86_64-linux-gnu/4.8/../../../../include/c++/4.8/ostream:535:0
	callq	_ZSt16__ostream_insertIcSt11char_traitsIcEERSt13basic_ostreamIT_T0_ES6_PKS3_l
.Ltmp794:
	.loc	1 9 0                   # main.cc:9:0
	movq	%rbx, %rdi
	movl	$140, %esi
	callq	_ZNSolsEi
.Ltmp795:
	#DEBUG_VALUE: operator<<<std::char_traits<char> >:__out <- RAX+0
	.loc	31 535 0                # /usr/lib/gcc/x86_64-linux-gnu/4.8/../../../../include/c++/4.8/ostream:535:0
	movq	%rax, %rdi
.Ltmp796:
	.loc	31 535 0                # /usr/lib/gcc/x86_64-linux-gnu/4.8/../../../../include/c++/4.8/ostream:535:0
	movl	$.L.str, %esi
	movl	$1, %edx
.Ltmp797:
	.loc	31 535 0                # /usr/lib/gcc/x86_64-linux-gnu/4.8/../../../../include/c++/4.8/ostream:535:0
	callq	_ZSt16__ostream_insertIcSt11char_traitsIcEERSt13basic_ostreamIT_T0_ES6_PKS3_l
.Ltmp798:
	.loc	1 9 0                   # main.cc:9:0
	movq	%rbx, %rdi
	movl	$141, %esi
	callq	_ZNSolsEi
.Ltmp799:
	#DEBUG_VALUE: operator<<<std::char_traits<char> >:__out <- RAX+0
	.loc	31 535 0                # /usr/lib/gcc/x86_64-linux-gnu/4.8/../../../../include/c++/4.8/ostream:535:0
	movq	%rax, %rdi
.Ltmp800:
	.loc	31 535 0                # /usr/lib/gcc/x86_64-linux-gnu/4.8/../../../../include/c++/4.8/ostream:535:0
	movl	$.L.str, %esi
	movl	$1, %edx
.Ltmp801:
	.loc	31 535 0                # /usr/lib/gcc/x86_64-linux-gnu/4.8/../../../../include/c++/4.8/ostream:535:0
	callq	_ZSt16__ostream_insertIcSt11char_traitsIcEERSt13basic_ostreamIT_T0_ES6_PKS3_l
.Ltmp802:
	.loc	1 9 0                   # main.cc:9:0
	movq	%rbx, %rdi
	movl	$142, %esi
	callq	_ZNSolsEi
.Ltmp803:
	#DEBUG_VALUE: operator<<<std::char_traits<char> >:__out <- RAX+0
	.loc	31 535 0                # /usr/lib/gcc/x86_64-linux-gnu/4.8/../../../../include/c++/4.8/ostream:535:0
	movq	%rax, %rdi
.Ltmp804:
	.loc	31 535 0                # /usr/lib/gcc/x86_64-linux-gnu/4.8/../../../../include/c++/4.8/ostream:535:0
	movl	$.L.str, %esi
	movl	$1, %edx
.Ltmp805:
	.loc	31 535 0                # /usr/lib/gcc/x86_64-linux-gnu/4.8/../../../../include/c++/4.8/ostream:535:0
	callq	_ZSt16__ostream_insertIcSt11char_traitsIcEERSt13basic_ostreamIT_T0_ES6_PKS3_l
.Ltmp806:
	.loc	1 9 0                   # main.cc:9:0
	movq	%rbx, %rdi
	movl	$143, %esi
	callq	_ZNSolsEi
.Ltmp807:
	#DEBUG_VALUE: operator<<<std::char_traits<char> >:__out <- RAX+0
	.loc	31 535 0                # /usr/lib/gcc/x86_64-linux-gnu/4.8/../../../../include/c++/4.8/ostream:535:0
	movq	%rax, %rdi
.Ltmp808:
	.loc	31 535 0                # /usr/lib/gcc/x86_64-linux-gnu/4.8/../../../../include/c++/4.8/ostream:535:0
	movl	$.L.str, %esi
	movl	$1, %edx
.Ltmp809:
	.loc	31 535 0                # /usr/lib/gcc/x86_64-linux-gnu/4.8/../../../../include/c++/4.8/ostream:535:0
	callq	_ZSt16__ostream_insertIcSt11char_traitsIcEERSt13basic_ostreamIT_T0_ES6_PKS3_l
.Ltmp810:
	.loc	1 10 0                  # main.cc:10:0
	movq	%r14, %rdi
.Ltmp811:
	#DEBUG_VALUE: operator()<libmda::metaprog::detail::loop_iterator_impl<libmda::metaprog::int_<136>, libmda::metaprog::int_<0>, libmda::metaprog::int_<200> >, libmda::metaprog::detail::loop_iterator_impl<libmda::metaprog::int_<200>, libmda::metaprog::int_<0>, libmda::metaprog::int_<200> > >:this <- RDI+0
	movq	%rbx, %rsi
	addq	$8, %rsp
	popq	%rbx
.Ltmp812:
	popq	%r14
.Ltmp813:
	jmp	_ZN5Forr_clIN6libmda8metaprog6detail18loop_iterator_implINS2_4int_ILi144EEENS5_ILi0EEENS5_ILi200EEEEENS4_IS8_S7_S8_EEEEvRSoT_T0_ # TAILCALL
.Ltmp814:
.Ltmp815:
	.size	_ZN5Forr_clIN6libmda8metaprog6detail18loop_iterator_implINS2_4int_ILi136EEENS5_ILi0EEENS5_ILi200EEEEENS4_IS8_S7_S8_EEEEvRSoT_T0_, .Ltmp815-_ZN5Forr_clIN6libmda8metaprog6detail18loop_iterator_implINS2_4int_ILi136EEENS5_ILi0EEENS5_ILi200EEEEENS4_IS8_S7_S8_EEEEvRSoT_T0_
.Lfunc_end18:
	.cfi_endproc

	.section	.text._ZN5Forr_clIN6libmda8metaprog6detail18loop_iterator_implINS2_4int_ILi144EEENS5_ILi0EEENS5_ILi200EEEEENS4_IS8_S7_S8_EEEEvRSoT_T0_,"axG",@progbits,_ZN5Forr_clIN6libmda8metaprog6detail18loop_iterator_implINS2_4int_ILi144EEENS5_ILi0EEENS5_ILi200EEEEENS4_IS8_S7_S8_EEEEvRSoT_T0_,comdat
	.weak	_ZN5Forr_clIN6libmda8metaprog6detail18loop_iterator_implINS2_4int_ILi144EEENS5_ILi0EEENS5_ILi200EEEEENS4_IS8_S7_S8_EEEEvRSoT_T0_
	.align	16, 0x90
	.type	_ZN5Forr_clIN6libmda8metaprog6detail18loop_iterator_implINS2_4int_ILi144EEENS5_ILi0EEENS5_ILi200EEEEENS4_IS8_S7_S8_EEEEvRSoT_T0_,@function
_ZN5Forr_clIN6libmda8metaprog6detail18loop_iterator_implINS2_4int_ILi144EEENS5_ILi0EEENS5_ILi200EEEEENS4_IS8_S7_S8_EEEEvRSoT_T0_: # @_ZN5Forr_clIN6libmda8metaprog6detail18loop_iterator_implINS2_4int_ILi144EEENS5_ILi0EEENS5_ILi200EEEEENS4_IS8_S7_S8_EEEEvRSoT_T0_
	.cfi_startproc
.Lfunc_begin19:
	.loc	1 8 0                   # main.cc:8:0
# BB#0:                                 # %entry
	pushq	%r14
.Ltmp819:
	.cfi_def_cfa_offset 16
	pushq	%rbx
.Ltmp820:
	.cfi_def_cfa_offset 24
	pushq	%rax
.Ltmp821:
	.cfi_def_cfa_offset 32
.Ltmp822:
	.cfi_offset %rbx, -24
.Ltmp823:
	.cfi_offset %r14, -16
	#DEBUG_VALUE: operator()<libmda::metaprog::detail::loop_iterator_impl<libmda::metaprog::int_<144>, libmda::metaprog::int_<0>, libmda::metaprog::int_<200> >, libmda::metaprog::detail::loop_iterator_impl<libmda::metaprog::int_<200>, libmda::metaprog::int_<0>, libmda::metaprog::int_<200> > >:this <- RDI+0
	#DEBUG_VALUE: operator()<libmda::metaprog::detail::loop_iterator_impl<libmda::metaprog::int_<144>, libmda::metaprog::int_<0>, libmda::metaprog::int_<200> >, libmda::metaprog::detail::loop_iterator_impl<libmda::metaprog::int_<200>, libmda::metaprog::int_<0>, libmda::metaprog::int_<200> > >:aout <- RSI+0
	movq	%rsi, %rbx
.Ltmp824:
	#DEBUG_VALUE: operator()<libmda::metaprog::detail::loop_iterator_impl<libmda::metaprog::int_<144>, libmda::metaprog::int_<0>, libmda::metaprog::int_<200> >, libmda::metaprog::detail::loop_iterator_impl<libmda::metaprog::int_<200>, libmda::metaprog::int_<0>, libmda::metaprog::int_<200> > >:aout <- RBX+0
	movq	%rdi, %r14
.Ltmp825:
	#DEBUG_VALUE: operator()<libmda::metaprog::detail::loop_iterator_impl<libmda::metaprog::int_<144>, libmda::metaprog::int_<0>, libmda::metaprog::int_<200> >, libmda::metaprog::detail::loop_iterator_impl<libmda::metaprog::int_<200>, libmda::metaprog::int_<0>, libmda::metaprog::int_<200> > >:this <- R14+0
	#DEBUG_VALUE: operator()<libmda::metaprog::detail::loop_iterator_impl<libmda::metaprog::int_<151>, libmda::metaprog::int_<0>, libmda::metaprog::int_<200> >, libmda::metaprog::detail::loop_iterator_impl<libmda::metaprog::int_<200>, libmda::metaprog::int_<0>, libmda::metaprog::int_<200> > >:this <- R14+0
	#DEBUG_VALUE: operator()<libmda::metaprog::detail::loop_iterator_impl<libmda::metaprog::int_<151>, libmda::metaprog::int_<0>, libmda::metaprog::int_<200> >, libmda::metaprog::detail::loop_iterator_impl<libmda::metaprog::int_<200>, libmda::metaprog::int_<0>, libmda::metaprog::int_<200> > >:aout <- RBX+0
	#DEBUG_VALUE: operator()<libmda::metaprog::detail::loop_iterator_impl<libmda::metaprog::int_<150>, libmda::metaprog::int_<0>, libmda::metaprog::int_<200> >, libmda::metaprog::detail::loop_iterator_impl<libmda::metaprog::int_<200>, libmda::metaprog::int_<0>, libmda::metaprog::int_<200> > >:this <- R14+0
	#DEBUG_VALUE: operator()<libmda::metaprog::detail::loop_iterator_impl<libmda::metaprog::int_<150>, libmda::metaprog::int_<0>, libmda::metaprog::int_<200> >, libmda::metaprog::detail::loop_iterator_impl<libmda::metaprog::int_<200>, libmda::metaprog::int_<0>, libmda::metaprog::int_<200> > >:aout <- RBX+0
	#DEBUG_VALUE: operator()<libmda::metaprog::detail::loop_iterator_impl<libmda::metaprog::int_<149>, libmda::metaprog::int_<0>, libmda::metaprog::int_<200> >, libmda::metaprog::detail::loop_iterator_impl<libmda::metaprog::int_<200>, libmda::metaprog::int_<0>, libmda::metaprog::int_<200> > >:this <- R14+0
	#DEBUG_VALUE: operator()<libmda::metaprog::detail::loop_iterator_impl<libmda::metaprog::int_<149>, libmda::metaprog::int_<0>, libmda::metaprog::int_<200> >, libmda::metaprog::detail::loop_iterator_impl<libmda::metaprog::int_<200>, libmda::metaprog::int_<0>, libmda::metaprog::int_<200> > >:aout <- RBX+0
	#DEBUG_VALUE: operator()<libmda::metaprog::detail::loop_iterator_impl<libmda::metaprog::int_<148>, libmda::metaprog::int_<0>, libmda::metaprog::int_<200> >, libmda::metaprog::detail::loop_iterator_impl<libmda::metaprog::int_<200>, libmda::metaprog::int_<0>, libmda::metaprog::int_<200> > >:this <- R14+0
	#DEBUG_VALUE: operator()<libmda::metaprog::detail::loop_iterator_impl<libmda::metaprog::int_<148>, libmda::metaprog::int_<0>, libmda::metaprog::int_<200> >, libmda::metaprog::detail::loop_iterator_impl<libmda::metaprog::int_<200>, libmda::metaprog::int_<0>, libmda::metaprog::int_<200> > >:aout <- RBX+0
